TN:
SF:/home/tarun/ros2_final/src/inspection_bot/build/_deps/googletest-src/googletest/include/gtest/gtest-assertion-result.h
FN:155,_ZN7testing15AssertionResultC2IbEERKT_PNSt9enable_ifIXntsrSt14is_convertibleIS2_S0_E5valueEvE4typeE
FN:174,_ZNK7testing15AssertionResultcvbEv
FN:183,_ZNK7testing15AssertionResult7messageEv
FN:187,_ZNK7testing15AssertionResult15failure_messageEv
FN:191,_ZN7testing15AssertionResultlsIA3_cEERS0_RKT_
FN:191,_ZN7testing15AssertionResultlsIPKcEERS0_RKT_
FN:191,_ZN7testing15AssertionResultlsIA5_cEERS0_RKT_
FN:191,_ZN7testing15AssertionResultlsIA12_cEERS0_RKT_
FN:191,_ZN7testing15AssertionResultlsINSt7__cxx1112basic_stringIcSt11char_traitsIcESaIcEEEEERS0_RKT_
FN:206,_ZN7testing15AssertionResult13AppendMessageERKNS_7MessageE
FNDA:0,_ZNK7testing15AssertionResult15failure_messageEv
FNDA:0,_ZN7testing15AssertionResultlsIPKcEERS0_RKT_
FNDA:0,_ZN7testing15AssertionResultlsIA3_cEERS0_RKT_
FNDA:0,_ZN7testing15AssertionResultlsINSt7__cxx1112basic_stringIcSt11char_traitsIcESaIcEEEEERS0_RKT_
FNDA:0,_ZN7testing15AssertionResultlsIA12_cEERS0_RKT_
FNDA:0,_ZNK7testing15AssertionResultcvbEv
FNDA:0,_ZN7testing15AssertionResultlsIA5_cEERS0_RKT_
FNDA:0,_ZN7testing15AssertionResult13AppendMessageERKNS_7MessageE
FNDA:0,_ZNK7testing15AssertionResult7messageEv
FNDA:0,_ZN7testing15AssertionResultC2IbEERKT_PNSt9enable_ifIXntsrSt14is_convertibleIS2_S0_E5valueEvE4typeE
FNF:10
FNH:0
DA:155,0
DA:161,0
DA:174,0
DA:183,0
DA:184,0
DA:187,0
DA:191,0
DA:192,0
DA:193,0
DA:206,0
DA:207,0
DA:208,0
DA:209,0
LF:13
LH:0
end_of_record
TN:
SF:/home/tarun/ros2_final/src/inspection_bot/build/_deps/googletest-src/googletest/include/gtest/gtest-message.h
FN:132,_ZN7testing7MessagelsINSt7__cxx1112basic_stringIcSt11char_traitsIcESaIcEEEEERS0_RKT_
FN:132,_ZN7testing7MessagelsIA12_cEERS0_RKT_
FN:132,_ZN7testing7MessagelsIA3_cEERS0_RKT_
FN:132,_ZN7testing7MessagelsIA5_cEERS0_RKT_
FN:182,_ZN7testing7MessagelsIKcEERS0_RKPT_
FNDA:0,_ZN7testing7MessagelsIA5_cEERS0_RKT_
FNDA:0,_ZN7testing7MessagelsIA3_cEERS0_RKT_
FNDA:0,_ZN7testing7MessagelsINSt7__cxx1112basic_stringIcSt11char_traitsIcESaIcEEEEERS0_RKT_
FNDA:0,_ZN7testing7MessagelsIA12_cEERS0_RKT_
FNDA:21,_ZN7testing7MessagelsIKcEERS0_RKPT_
FNF:5
FNH:1
DA:132,0
DA:148,0
DA:149,0
DA:182,21
DA:183,21
DA:184,0
DA:186,21
DA:188,21
LF:8
LH:4
end_of_record
TN:
SF:/home/tarun/ros2_final/src/inspection_bot/build/_deps/googletest-src/googletest/include/gtest/gtest-printers.h
FN:221,_ZN7testing8internal52internal_stream_operator_without_lexical_name_lookup13StreamPrinter10PrintValueIivEEDTcvvlsdefp0_fp_ERKT_PSo
FN:326,_ZN7testing8internal17PrintWithFallbackIiEEvRKT_PSo
FN:357,_ZN7testing8internal19FormatForComparisonIiiE6FormatB5cxx11ERKi
FN:437,_ZN7testing8internal33FormatForComparisonFailureMessageIiiEENSt7__cxx1112basic_stringIcSt11char_traitsIcESaIcEEERKT_RKT0_
FN:464,_ZN7testing8internal7PrintToIiEEvRKT_PSo
FN:799,_ZN7testing8internal16UniversalPrinterIiE5PrintERKiPSo
FN:989,_ZN7testing8internal21UniversalTersePrinterIiE5PrintERKiPSo
FN:1108,_ZN7testing8internal14UniversalPrintIiEEvRKT_PSo
FN:1148,_ZN7testing13PrintToStringIiEENSt7__cxx1112basic_stringIcSt11char_traitsIcESaIcEEERKT_
FNDA:0,_ZN7testing8internal7PrintToIiEEvRKT_PSo
FNDA:0,_ZN7testing8internal16UniversalPrinterIiE5PrintERKiPSo
FNDA:0,_ZN7testing8internal52internal_stream_operator_without_lexical_name_lookup13StreamPrinter10PrintValueIivEEDTcvvlsdefp0_fp_ERKT_PSo
FNDA:0,_ZN7testing8internal14UniversalPrintIiEEvRKT_PSo
FNDA:0,_ZN7testing8internal21UniversalTersePrinterIiE5PrintERKiPSo
FNDA:0,_ZN7testing8internal19FormatForComparisonIiiE6FormatB5cxx11ERKi
FNDA:0,_ZN7testing13PrintToStringIiEENSt7__cxx1112basic_stringIcSt11char_traitsIcESaIcEEERKT_
FNDA:0,_ZN7testing8internal33FormatForComparisonFailureMessageIiiEENSt7__cxx1112basic_stringIcSt11char_traitsIcESaIcEEERKT_RKT0_
FNDA:0,_ZN7testing8internal17PrintWithFallbackIiEEvRKT_PSo
FNF:9
FNH:0
DA:221,0
DA:225,0
DA:226,0
DA:326,0
DA:336,0
DA:337,0
DA:357,0
DA:358,0
DA:437,0
DA:439,0
DA:464,0
DA:465,0
DA:466,0
DA:799,0
DA:808,0
DA:809,0
DA:989,0
DA:990,0
DA:991,0
DA:1108,0
DA:1112,0
DA:1113,0
DA:1148,0
DA:1149,0
DA:1150,0
DA:1151,0
DA:1152,0
LF:27
LH:0
end_of_record
TN:
SF:/home/tarun/ros2_final/src/inspection_bot/build/_deps/googletest-src/googletest/include/gtest/gtest.h
FN:256,_ZN7testing4Test14SetUpTestSuiteEv
FN:264,_ZN7testing4Test17TearDownTestSuiteEv
FN:269,_ZN7testing4Test16TearDownTestCaseEv
FN:270,_ZN7testing4Test13SetUpTestCaseEv
FN:357,_ZN7testing4Test5SetupEv
FN:1359,_ZN7testing8internal18CmpHelperEQFailureIiiEENS_15AssertionResultEPKcS4_RKT_RKT0_
FN:1376,_ZN7testing8internal11CmpHelperEQIiiEENS_15AssertionResultEPKcS4_RKT_RKT0_
FN:1395,_ZN7testing8internal8EqHelper7CompareIiiLPv0EEENS_15AssertionResultEPKcS6_RKT_RKT0_
FN:1428,_ZN7testing8internal18CmpHelperOpFailureIiiEENS_15AssertionResultEPKcS4_RKT_RKT0_S4_
FN:1457,_ZN7testing8internal11CmpHelperNEIiiEENS_15AssertionResultEPKcS4_RKT_RKT0_
FN:2317,_Z13RUN_ALL_TESTSv
FNDA:0,_ZN7testing8internal18CmpHelperEQFailureIiiEENS_15AssertionResultEPKcS4_RKT_RKT0_
FNDA:0,_ZN7testing8internal8EqHelper7CompareIiiLPv0EEENS_15AssertionResultEPKcS6_RKT_RKT0_
FNDA:0,_ZN7testing4Test16TearDownTestCaseEv
FNDA:0,_ZN7testing4Test17TearDownTestSuiteEv
FNDA:0,_ZN7testing8internal11CmpHelperNEIiiEENS_15AssertionResultEPKcS4_RKT_RKT0_
FNDA:0,_ZN7testing4Test14SetUpTestSuiteEv
FNDA:0,_ZN7testing8internal11CmpHelperEQIiiEENS_15AssertionResultEPKcS4_RKT_RKT0_
FNDA:0,_ZN7testing8internal18CmpHelperOpFailureIiiEENS_15AssertionResultEPKcS4_RKT_RKT0_S4_
FNDA:0,_ZN7testing4Test13SetUpTestCaseEv
FNDA:1,_Z13RUN_ALL_TESTSv
FNDA:0,_ZN7testing4Test5SetupEv
FNF:11
FNH:1
DA:256,0
DA:264,0
DA:269,0
DA:270,0
DA:357,0
DA:1359,0
DA:1364,0
DA:1376,0
DA:1379,0
DA:1380,0
DA:1383,0
DA:1395,0
DA:1398,0
DA:1428,0
DA:1432,0
DA:1433,0
DA:1434,0
DA:1457,0
DA:2317,1
LF:19
LH:1
end_of_record
TN:
SF:/home/tarun/ros2_final/src/inspection_bot/build/_deps/googletest-src/googletest/include/gtest/internal/gtest-internal.h
FN:419,_ZN7testing8internal9GetTypeIdI16InspectorBotTestEEPKvv
FN:438,_ZN7testing8internal15TestFactoryBaseD0Ev
FN:438,_ZN7testing8internal15TestFactoryBaseD2Ev
FN:445,_ZN7testing8internal15TestFactoryBaseC2Ev
FN:457,_ZN7testing8internal15TestFactoryImplI35InspectorBotTest_RotateBotTest_TestE10CreateTestEv
FN:457,_ZN7testing8internal15TestFactoryImplI33InspectorBotTest_GetLocxTest_TestE10CreateTestEv
FN:457,_ZN7testing8internal15TestFactoryImplI32InspectorBotTest_SetLocTest_TestE10CreateTestEv
FN:457,_ZN7testing8internal15TestFactoryImplI33InspectorBotTest_GetLocyTest_TestE10CreateTestEv
FN:457,_ZN7testing8internal15TestFactoryImplI38InspectorBotTest_GoToLocationTest_TestE10CreateTestEv
FN:457,_ZN7testing8internal15TestFactoryImplI44InspectorBotTest_ContinueInspectionTest_TestE10CreateTestEv
FN:478,_ZN7testing8internal12CodeLocationC2ERKNSt7__cxx1112basic_stringIcSt11char_traitsIcESaIcEEEi
FN:491,_ZN7testing8internal19GetNotDefaultOrNullEPFvvES2_
FN:506,_ZN7testing8internal16SuiteApiResolverI16InspectorBotTestE19GetSetUpCaseOrSuiteEPKci
FN:527,_ZN7testing8internal16SuiteApiResolverI16InspectorBotTestE22GetTearDownCaseOrSuiteEPKci
FNDA:0,_ZN7testing8internal15TestFactoryImplI35InspectorBotTest_RotateBotTest_TestE10CreateTestEv
FNDA:0,_ZN7testing8internal15TestFactoryBaseD0Ev
FNDA:6,_ZN7testing8internal16SuiteApiResolverI16InspectorBotTestE22GetTearDownCaseOrSuiteEPKci
FNDA:6,_ZN7testing8internal9GetTypeIdI16InspectorBotTestEEPKvv
FNDA:0,_ZN7testing8internal15TestFactoryImplI33InspectorBotTest_GetLocyTest_TestE10CreateTestEv
FNDA:0,_ZN7testing8internal15TestFactoryImplI32InspectorBotTest_SetLocTest_TestE10CreateTestEv
FNDA:6,_ZN7testing8internal15TestFactoryBaseD2Ev
FNDA:0,_ZN7testing8internal15TestFactoryImplI38InspectorBotTest_GoToLocationTest_TestE10CreateTestEv
FNDA:0,_ZN7testing8internal15TestFactoryImplI44InspectorBotTest_ContinueInspectionTest_TestE10CreateTestEv
FNDA:0,_ZN7testing8internal15TestFactoryImplI33InspectorBotTest_GetLocxTest_TestE10CreateTestEv
FNDA:6,_ZN7testing8internal16SuiteApiResolverI16InspectorBotTestE19GetSetUpCaseOrSuiteEPKci
FNDA:24,_ZN7testing8internal19GetNotDefaultOrNullEPFvvES2_
FNDA:6,_ZN7testing8internal12CodeLocationC2ERKNSt7__cxx1112basic_stringIcSt11char_traitsIcESaIcEEEi
FNDA:6,_ZN7testing8internal15TestFactoryBaseC2Ev
FNF:14
FNH:7
DA:419,6
DA:424,6
DA:438,6
DA:445,6
DA:457,0
DA:478,6
DA:479,6
DA:491,24
DA:493,24
DA:506,6
DA:510,6
DA:512,6
DA:514,6
DA:517,0
DA:519,6
DA:527,6
DA:531,6
DA:533,6
DA:535,6
DA:538,0
DA:540,6
LF:21
LH:18
end_of_record
TN:
SF:/home/tarun/ros2_final/src/inspection_bot/build/_deps/googletest-src/googletest/include/gtest/internal/gtest-port.h
FN:1042,_ZN7testing8internal8GTestLog9GetStreamEv
FNDA:0,_ZN7testing8internal8GTestLog9GetStreamEv
FNF:1
FNH:0
DA:1042,0
LF:1
LH:0
end_of_record
TN:
SF:/home/tarun/ros2_final/src/inspection_bot/src/InspectorBot.cpp
FN:24,_ZN12InspectorBotC2Ev
FN:35,_ZN12InspectorBot12goToLocationEv
FN:70,_ZN12InspectorBot6setLocEff
FN:80,_ZN12InspectorBot7getLocxEv
FN:87,_ZN12InspectorBot7getLocyEv
FN:95,_ZN12InspectorBot9rotateBotEv
FN:127,_ZN12InspectorBot18continueInspectionEv
FN:161,_ZN12InspectorBot18inspectionCallbackESt10shared_ptrIN8nav_msgs3msg9Odometry_ISaIvEEEE
FN:176,_ZN12InspectorBot26continueInspectionCallbackESt10shared_ptrIN8nav_msgs3msg9Odometry_ISaIvEEEE
FNDA:0,_ZN12InspectorBot6setLocEff
FNDA:0,_ZN12InspectorBot7getLocxEv
FNDA:0,_ZN12InspectorBotC2Ev
FNDA:0,_ZN12InspectorBot12goToLocationEv
FNDA:0,_ZN12InspectorBot9rotateBotEv
FNDA:0,_ZN12InspectorBot18continueInspectionEv
FNDA:0,_ZN12InspectorBot18inspectionCallbackESt10shared_ptrIN8nav_msgs3msg9Odometry_ISaIvEEEE
FNDA:0,_ZN12InspectorBot7getLocyEv
FNDA:0,_ZN12InspectorBot26continueInspectionCallbackESt10shared_ptrIN8nav_msgs3msg9Odometry_ISaIvEEEE
FNF:9
FNH:0
DA:24,0
DA:25,0
DA:26,0
DA:27,0
DA:35,0
DA:36,0
DA:38,0
DA:41,0
DA:43,0
DA:44,0
DA:45,0
DA:46,0
DA:47,0
DA:48,0
DA:49,0
DA:50,0
DA:51,0
DA:52,0
DA:53,0
DA:55,0
DA:56,0
DA:57,0
DA:58,0
DA:59,0
DA:61,0
DA:62,0
DA:70,0
DA:71,0
DA:72,0
DA:73,0
DA:80,0
DA:87,0
DA:95,0
DA:96,0
DA:100,0
DA:102,0
DA:103,0
DA:104,0
DA:105,0
DA:106,0
DA:107,0
DA:108,0
DA:109,0
DA:111,0
DA:112,0
DA:113,0
DA:114,0
DA:115,0
DA:116,0
DA:119,0
DA:127,0
DA:129,0
DA:132,0
DA:133,0
DA:135,0
DA:137,0
DA:138,0
DA:139,0
DA:140,0
DA:141,0
DA:142,0
DA:143,0
DA:144,0
DA:145,0
DA:146,0
DA:148,0
DA:149,0
DA:150,0
DA:151,0
DA:152,0
DA:154,0
DA:161,0
DA:162,0
DA:163,0
DA:164,0
DA:166,0
DA:167,0
DA:169,0
DA:176,0
DA:178,0
DA:179,0
DA:180,0
DA:182,0
DA:185,0
LF:84
LH:0
end_of_record
TN:
SF:/opt/ros/humble/include/builtin_interfaces/builtin_interfaces/msg/detail/time__struct.hpp
FN:36,_ZN18builtin_interfaces3msg5Time_ISaIvEEC2EN18rosidl_runtime_cpp21MessageInitializationE
FNDA:0,_ZN18builtin_interfaces3msg5Time_ISaIvEEC2EN18rosidl_runtime_cpp21MessageInitializationE
FNF:1
FNH:0
DA:36,0
DA:38,0
DA:41,0
DA:42,0
DA:44,0
LF:5
LH:0
end_of_record
TN:
SF:/opt/ros/humble/include/geometry_msgs/geometry_msgs/msg/detail/point__struct.hpp
FN:36,_ZN13geometry_msgs3msg6Point_ISaIvEEC2EN18rosidl_runtime_cpp21MessageInitializationE
FNDA:0,_ZN13geometry_msgs3msg6Point_ISaIvEEC2EN18rosidl_runtime_cpp21MessageInitializationE
FNF:1
FNH:0
DA:36,0
DA:38,0
DA:41,0
DA:42,0
DA:43,0
DA:45,0
LF:6
LH:0
end_of_record
TN:
SF:/opt/ros/humble/include/geometry_msgs/geometry_msgs/msg/detail/pose__struct.hpp
FN:42,_ZN13geometry_msgs3msg5Pose_ISaIvEEC2EN18rosidl_runtime_cpp21MessageInitializationE
FNDA:0,_ZN13geometry_msgs3msg5Pose_ISaIvEEC2EN18rosidl_runtime_cpp21MessageInitializationE
FNF:1
FNH:0
DA:42,0
DA:43,0
DA:44,0
DA:47,0
LF:4
LH:0
end_of_record
TN:
SF:/opt/ros/humble/include/geometry_msgs/geometry_msgs/msg/detail/pose_stamped__struct.hpp
FN:42,_ZN13geometry_msgs3msg12PoseStamped_ISaIvEEC2EN18rosidl_runtime_cpp21MessageInitializationE
FNDA:0,_ZN13geometry_msgs3msg12PoseStamped_ISaIvEEC2EN18rosidl_runtime_cpp21MessageInitializationE
FNF:1
FNH:0
DA:42,0
DA:43,0
DA:44,0
DA:47,0
LF:4
LH:0
end_of_record
TN:
SF:/opt/ros/humble/include/geometry_msgs/geometry_msgs/msg/detail/pose_with_covariance__struct.hpp
FN:40,_ZN13geometry_msgs3msg19PoseWithCovariance_ISaIvEEC2EN18rosidl_runtime_cpp21MessageInitializationE
FNDA:0,_ZN13geometry_msgs3msg19PoseWithCovariance_ISaIvEEC2EN18rosidl_runtime_cpp21MessageInitializationE
FNF:1
FNH:0
DA:40,0
DA:41,0
DA:43,0
DA:46,0
DA:48,0
LF:5
LH:0
end_of_record
TN:
SF:/opt/ros/humble/include/geometry_msgs/geometry_msgs/msg/detail/quaternion__struct.hpp
FN:36,_ZN13geometry_msgs3msg11Quaternion_ISaIvEEC2EN18rosidl_runtime_cpp21MessageInitializationE
FNDA:0,_ZN13geometry_msgs3msg11Quaternion_ISaIvEEC2EN18rosidl_runtime_cpp21MessageInitializationE
FNF:1
FNH:0
DA:36,0
DA:38,0
DA:41,0
DA:42,0
DA:43,0
DA:44,0
DA:45,0
DA:46,0
DA:47,0
DA:48,0
DA:49,0
DA:51,0
LF:12
LH:0
end_of_record
TN:
SF:/opt/ros/humble/include/geometry_msgs/geometry_msgs/msg/detail/twist__struct.hpp
FN:41,_ZN13geometry_msgs3msg6Twist_ISaIvEEC2EN18rosidl_runtime_cpp21MessageInitializationE
FNDA:0,_ZN13geometry_msgs3msg6Twist_ISaIvEEC2EN18rosidl_runtime_cpp21MessageInitializationE
FNF:1
FNH:0
DA:41,0
DA:42,0
DA:43,0
DA:46,0
LF:4
LH:0
end_of_record
TN:
SF:/opt/ros/humble/include/geometry_msgs/geometry_msgs/msg/detail/twist_with_covariance__struct.hpp
FN:40,_ZN13geometry_msgs3msg20TwistWithCovariance_ISaIvEEC2EN18rosidl_runtime_cpp21MessageInitializationE
FNDA:0,_ZN13geometry_msgs3msg20TwistWithCovariance_ISaIvEEC2EN18rosidl_runtime_cpp21MessageInitializationE
FNF:1
FNH:0
DA:40,0
DA:41,0
DA:43,0
DA:46,0
DA:48,0
LF:5
LH:0
end_of_record
TN:
SF:/opt/ros/humble/include/geometry_msgs/geometry_msgs/msg/detail/vector3__struct.hpp
FN:36,_ZN13geometry_msgs3msg8Vector3_ISaIvEEC2EN18rosidl_runtime_cpp21MessageInitializationE
FNDA:0,_ZN13geometry_msgs3msg8Vector3_ISaIvEEC2EN18rosidl_runtime_cpp21MessageInitializationE
FNF:1
FNH:0
DA:36,0
DA:38,0
DA:41,0
DA:42,0
DA:43,0
DA:45,0
LF:6
LH:0
end_of_record
TN:
SF:/opt/ros/humble/include/libstatistics_collector/libstatistics_collector/collector/collector.hpp
FN:41,_ZN23libstatistics_collector9collector9CollectorC2Ev
FN:44,_ZN23libstatistics_collector9collector9CollectorD2Ev
FN:44,_ZN23libstatistics_collector9collector9CollectorD0Ev
FNDA:0,_ZN23libstatistics_collector9collector9CollectorC2Ev
FNDA:0,_ZN23libstatistics_collector9collector9CollectorD0Ev
FNDA:0,_ZN23libstatistics_collector9collector9CollectorD2Ev
FNF:3
FNH:0
DA:41,0
DA:44,0
LF:2
LH:0
end_of_record
TN:
SF:/opt/ros/humble/include/libstatistics_collector/libstatistics_collector/collector/metric_details_interface.hpp
FN:34,_ZN23libstatistics_collector9collector22MetricDetailsInterfaceD0Ev
FN:34,_ZN23libstatistics_collector9collector22MetricDetailsInterfaceD2Ev
FNDA:0,_ZN23libstatistics_collector9collector22MetricDetailsInterfaceD2Ev
FNDA:0,_ZN23libstatistics_collector9collector22MetricDetailsInterfaceD0Ev
FNF:2
FNH:0
DA:34,0
LF:1
LH:0
end_of_record
TN:
SF:/opt/ros/humble/include/libstatistics_collector/libstatistics_collector/moving_average_statistics/moving_average.hpp
FN:53,_ZN23libstatistics_collector25moving_average_statistics23MovingAverageStatisticsC2Ev
FNDA:0,_ZN23libstatistics_collector25moving_average_statistics23MovingAverageStatisticsC2Ev
FNF:1
FNH:0
DA:53,0
LF:1
LH:0
end_of_record
TN:
SF:/opt/ros/humble/include/libstatistics_collector/libstatistics_collector/topic_statistics_collector/received_message_age.hpp
FN:80,_ZN23libstatistics_collector26topic_statistics_collector9TimeStampIN8nav_msgs3msg9Odometry_ISaIvEEEvE5valueERKS6_
FN:97,_ZN23libstatistics_collector26topic_statistics_collector27ReceivedMessageAgeCollectorIN8nav_msgs3msg9Odometry_ISaIvEEEEC2Ev
FN:99,_ZN23libstatistics_collector26topic_statistics_collector27ReceivedMessageAgeCollectorIN8nav_msgs3msg9Odometry_ISaIvEEEED2Ev
FN:99,_ZN23libstatistics_collector26topic_statistics_collector27ReceivedMessageAgeCollectorIN8nav_msgs3msg9Odometry_ISaIvEEEED0Ev
FN:107,_ZN23libstatistics_collector26topic_statistics_collector27ReceivedMessageAgeCollectorIN8nav_msgs3msg9Odometry_ISaIvEEEE17OnMessageReceivedERKS6_l
FN:129,_ZNK23libstatistics_collector26topic_statistics_collector27ReceivedMessageAgeCollectorIN8nav_msgs3msg9Odometry_ISaIvEEEE13GetMetricNameB5cxx11Ev
FN:139,_ZNK23libstatistics_collector26topic_statistics_collector27ReceivedMessageAgeCollectorIN8nav_msgs3msg9Odometry_ISaIvEEEE13GetMetricUnitB5cxx11Ev
FN:145,_ZN23libstatistics_collector26topic_statistics_collector27ReceivedMessageAgeCollectorIN8nav_msgs3msg9Odometry_ISaIvEEEE10SetupStartEv
FN:150,_ZN23libstatistics_collector26topic_statistics_collector27ReceivedMessageAgeCollectorIN8nav_msgs3msg9Odometry_ISaIvEEEE9SetupStopEv
FNDA:0,_ZN23libstatistics_collector26topic_statistics_collector27ReceivedMessageAgeCollectorIN8nav_msgs3msg9Odometry_ISaIvEEEEC2Ev
FNDA:0,_ZN23libstatistics_collector26topic_statistics_collector27ReceivedMessageAgeCollectorIN8nav_msgs3msg9Odometry_ISaIvEEEE10SetupStartEv
FNDA:0,_ZNK23libstatistics_collector26topic_statistics_collector27ReceivedMessageAgeCollectorIN8nav_msgs3msg9Odometry_ISaIvEEEE13GetMetricNameB5cxx11Ev
FNDA:0,_ZN23libstatistics_collector26topic_statistics_collector27ReceivedMessageAgeCollectorIN8nav_msgs3msg9Odometry_ISaIvEEEE17OnMessageReceivedERKS6_l
FNDA:0,_ZN23libstatistics_collector26topic_statistics_collector27ReceivedMessageAgeCollectorIN8nav_msgs3msg9Odometry_ISaIvEEEED2Ev
FNDA:0,_ZN23libstatistics_collector26topic_statistics_collector27ReceivedMessageAgeCollectorIN8nav_msgs3msg9Odometry_ISaIvEEEE9SetupStopEv
FNDA:0,_ZNK23libstatistics_collector26topic_statistics_collector27ReceivedMessageAgeCollectorIN8nav_msgs3msg9Odometry_ISaIvEEEE13GetMetricUnitB5cxx11Ev
FNDA:0,_ZN23libstatistics_collector26topic_statistics_collector9TimeStampIN8nav_msgs3msg9Odometry_ISaIvEEEvE5valueERKS6_
FNDA:0,_ZN23libstatistics_collector26topic_statistics_collector27ReceivedMessageAgeCollectorIN8nav_msgs3msg9Odometry_ISaIvEEEED0Ev
FNF:9
FNH:0
DA:80,0
DA:82,0
DA:83,0
DA:84,0
DA:97,0
DA:99,0
DA:107,0
DA:111,0
DA:113,0
DA:115,0
DA:116,0
DA:117,0
DA:119,0
DA:122,0
DA:129,0
DA:131,0
DA:139,0
DA:141,0
DA:145,0
DA:147,0
DA:150,0
DA:152,0
LF:22
LH:0
end_of_record
TN:
SF:/opt/ros/humble/include/libstatistics_collector/libstatistics_collector/topic_statistics_collector/received_message_period.hpp
FN:48,_ZN23libstatistics_collector26topic_statistics_collector30ReceivedMessagePeriodCollectorIN8nav_msgs3msg9Odometry_ISaIvEEEEC2Ev
FN:53,_ZN23libstatistics_collector26topic_statistics_collector30ReceivedMessagePeriodCollectorIN8nav_msgs3msg9Odometry_ISaIvEEEED2Ev
FN:53,_ZN23libstatistics_collector26topic_statistics_collector30ReceivedMessagePeriodCollectorIN8nav_msgs3msg9Odometry_ISaIvEEEED0Ev
FN:62,_ZN23libstatistics_collector26topic_statistics_collector30ReceivedMessagePeriodCollectorIN8nav_msgs3msg9Odometry_ISaIvEEEE17OnMessageReceivedERKS6_l
FN:84,_ZNK23libstatistics_collector26topic_statistics_collector30ReceivedMessagePeriodCollectorIN8nav_msgs3msg9Odometry_ISaIvEEEE13GetMetricNameB5cxx11Ev
FN:94,_ZNK23libstatistics_collector26topic_statistics_collector30ReceivedMessagePeriodCollectorIN8nav_msgs3msg9Odometry_ISaIvEEEE13GetMetricUnitB5cxx11Ev
FN:104,_ZN23libstatistics_collector26topic_statistics_collector30ReceivedMessagePeriodCollectorIN8nav_msgs3msg9Odometry_ISaIvEEEE10SetupStartEv
FN:110,_ZN23libstatistics_collector26topic_statistics_collector30ReceivedMessagePeriodCollectorIN8nav_msgs3msg9Odometry_ISaIvEEEE9SetupStopEv
FN:119,_ZN23libstatistics_collector26topic_statistics_collector30ReceivedMessagePeriodCollectorIN8nav_msgs3msg9Odometry_ISaIvEEEE28ResetTimeLastMessageReceivedEv
FNDA:0,_ZN23libstatistics_collector26topic_statistics_collector30ReceivedMessagePeriodCollectorIN8nav_msgs3msg9Odometry_ISaIvEEEED2Ev
FNDA:0,_ZNK23libstatistics_collector26topic_statistics_collector30ReceivedMessagePeriodCollectorIN8nav_msgs3msg9Odometry_ISaIvEEEE13GetMetricUnitB5cxx11Ev
FNDA:0,_ZN23libstatistics_collector26topic_statistics_collector30ReceivedMessagePeriodCollectorIN8nav_msgs3msg9Odometry_ISaIvEEEE17OnMessageReceivedERKS6_l
FNDA:0,_ZN23libstatistics_collector26topic_statistics_collector30ReceivedMessagePeriodCollectorIN8nav_msgs3msg9Odometry_ISaIvEEEE10SetupStartEv
FNDA:0,_ZN23libstatistics_collector26topic_statistics_collector30ReceivedMessagePeriodCollectorIN8nav_msgs3msg9Odometry_ISaIvEEEEC2Ev
FNDA:0,_ZNK23libstatistics_collector26topic_statistics_collector30ReceivedMessagePeriodCollectorIN8nav_msgs3msg9Odometry_ISaIvEEEE13GetMetricNameB5cxx11Ev
FNDA:0,_ZN23libstatistics_collector26topic_statistics_collector30ReceivedMessagePeriodCollectorIN8nav_msgs3msg9Odometry_ISaIvEEEE9SetupStopEv
FNDA:0,_ZN23libstatistics_collector26topic_statistics_collector30ReceivedMessagePeriodCollectorIN8nav_msgs3msg9Odometry_ISaIvEEEED0Ev
FNDA:0,_ZN23libstatistics_collector26topic_statistics_collector30ReceivedMessagePeriodCollectorIN8nav_msgs3msg9Odometry_ISaIvEEEE28ResetTimeLastMessageReceivedEv
FNF:9
FNH:0
DA:48,0
DA:49,0
DA:50,0
DA:51,0
DA:53,0
DA:62,0
DA:65,0
DA:69,0
DA:70,0
DA:72,0
DA:73,0
DA:74,0
DA:75,0
DA:77,0
DA:84,0
DA:86,0
DA:94,0
DA:96,0
DA:104,0
DA:106,0
DA:107,0
DA:110,0
DA:112,0
DA:119,0
DA:121,0
DA:122,0
LF:26
LH:0
end_of_record
TN:
SF:/opt/ros/humble/include/libstatistics_collector/libstatistics_collector/topic_statistics_collector/topic_statistics_collector.hpp
FN:40,_ZN23libstatistics_collector26topic_statistics_collector24TopicStatisticsCollectorIN8nav_msgs3msg9Odometry_ISaIvEEEEC2Ev
FN:42,_ZN23libstatistics_collector26topic_statistics_collector24TopicStatisticsCollectorIN8nav_msgs3msg9Odometry_ISaIvEEEED0Ev
FN:42,_ZN23libstatistics_collector26topic_statistics_collector24TopicStatisticsCollectorIN8nav_msgs3msg9Odometry_ISaIvEEEED2Ev
FNDA:0,_ZN23libstatistics_collector26topic_statistics_collector24TopicStatisticsCollectorIN8nav_msgs3msg9Odometry_ISaIvEEEEC2Ev
FNDA:0,_ZN23libstatistics_collector26topic_statistics_collector24TopicStatisticsCollectorIN8nav_msgs3msg9Odometry_ISaIvEEEED0Ev
FNDA:0,_ZN23libstatistics_collector26topic_statistics_collector24TopicStatisticsCollectorIN8nav_msgs3msg9Odometry_ISaIvEEEED2Ev
FNF:3
FNH:0
DA:40,0
DA:42,0
LF:2
LH:0
end_of_record
TN:
SF:/opt/ros/humble/include/nav_msgs/nav_msgs/msg/detail/odometry__struct.hpp
FN:44,_ZN8nav_msgs3msg9Odometry_ISaIvEEC2EN18rosidl_runtime_cpp21MessageInitializationE
FNDA:0,_ZN8nav_msgs3msg9Odometry_ISaIvEEC2EN18rosidl_runtime_cpp21MessageInitializationE
FNF:1
FNH:0
DA:44,0
DA:45,0
DA:46,0
DA:47,0
DA:49,0
DA:52,0
DA:54,0
LF:7
LH:0
end_of_record
TN:
SF:/opt/ros/humble/include/rcl_interfaces/rcl_interfaces/msg/detail/parameter_descriptor__struct.hpp
FN:42,_ZN14rcl_interfaces3msg20ParameterDescriptor_ISaIvEEC2EN18rosidl_runtime_cpp21MessageInitializationE
FNDA:0,_ZN14rcl_interfaces3msg20ParameterDescriptor_ISaIvEEC2EN18rosidl_runtime_cpp21MessageInitializationE
FNF:1
FNH:0
DA:42,0
DA:43,0
DA:44,0
DA:47,0
DA:48,0
DA:49,0
DA:50,0
DA:51,0
DA:52,0
DA:53,0
DA:54,0
DA:55,0
DA:57,0
DA:60,0
DA:61,0
DA:62,0
DA:63,0
DA:65,0
LF:18
LH:0
end_of_record
TN:
SF:/opt/ros/humble/include/rclcpp/rclcpp/allocator/allocator_common.hpp
FN:34,_ZN6rclcpp9allocator16retyped_allocateISaIcEEEPvmS3_
FN:44,_ZN6rclcpp9allocator21retyped_zero_allocateISaIcEEEPvmmS3_
FN:60,_ZN6rclcpp9allocator18retyped_deallocateIcSaIcEEEvPvS3_
FN:71,_ZN6rclcpp9allocator18retyped_reallocateIcSaIcEEEPvS3_mS3_
FN:88,_ZN6rclcpp9allocator17get_rcl_allocatorIcSaIcELPv0EEE19rcutils_allocator_sRT0_
FNDA:0,_ZN6rclcpp9allocator21retyped_zero_allocateISaIcEEEPvmmS3_
FNDA:0,_ZN6rclcpp9allocator16retyped_allocateISaIcEEEPvmS3_
FNDA:0,_ZN6rclcpp9allocator18retyped_deallocateIcSaIcEEEvPvS3_
FNDA:0,_ZN6rclcpp9allocator18retyped_reallocateIcSaIcEEEPvS3_mS3_
FNDA:0,_ZN6rclcpp9allocator17get_rcl_allocatorIcSaIcELPv0EEE19rcutils_allocator_sRT0_
FNF:5
FNH:0
DA:34,0
DA:36,0
DA:37,0
DA:38,0
DA:40,0
DA:44,0
DA:46,0
DA:47,0
DA:48,0
DA:50,0
DA:52,0
DA:53,0
DA:54,0
DA:56,0
DA:60,0
DA:62,0
DA:63,0
DA:64,0
DA:66,0
DA:67,0
DA:68,0
DA:71,0
DA:73,0
DA:74,0
DA:75,0
DA:77,0
DA:78,0
DA:79,0
DA:88,0
DA:90,0
DA:92,0
DA:93,0
DA:94,0
DA:95,0
DA:96,0
DA:100,0
LF:36
LH:0
end_of_record
TN:
SF:/opt/ros/humble/include/rclcpp/rclcpp/allocator/allocator_deleter.hpp
FN:80,_ZN6rclcpp9allocator25set_allocator_for_deleterIN8nav_msgs3msg9Odometry_ISaIvEEES6_EEvPSt14default_deleteIT_EPSaIT0_E
FN:80,_ZN6rclcpp9allocator25set_allocator_for_deleterIN13geometry_msgs3msg12PoseStamped_ISaIvEEES6_EEvPSt14default_deleteIT_EPSaIT0_E
FN:80,_ZN6rclcpp9allocator25set_allocator_for_deleterIN15statistics_msgs3msg15MetricsMessage_ISaIvEEES6_EEvPSt14default_deleteIT_EPSaIT0_E
FN:80,_ZN6rclcpp9allocator25set_allocator_for_deleterIN13geometry_msgs3msg6Twist_ISaIvEEES6_EEvPSt14default_deleteIT_EPSaIT0_E
FNDA:0,_ZN6rclcpp9allocator25set_allocator_for_deleterIN8nav_msgs3msg9Odometry_ISaIvEEES6_EEvPSt14default_deleteIT_EPSaIT0_E
FNDA:0,_ZN6rclcpp9allocator25set_allocator_for_deleterIN13geometry_msgs3msg12PoseStamped_ISaIvEEES6_EEvPSt14default_deleteIT_EPSaIT0_E
FNDA:0,_ZN6rclcpp9allocator25set_allocator_for_deleterIN15statistics_msgs3msg15MetricsMessage_ISaIvEEES6_EEvPSt14default_deleteIT_EPSaIT0_E
FNDA:0,_ZN6rclcpp9allocator25set_allocator_for_deleterIN13geometry_msgs3msg6Twist_ISaIvEEES6_EEvPSt14default_deleteIT_EPSaIT0_E
FNF:4
FNH:0
DA:80,0
DA:84,0
LF:2
LH:0
end_of_record
TN:
SF:/opt/ros/humble/include/rclcpp/rclcpp/any_subscription_callback.hpp
FN:349,_ZN6rclcpp23AnySubscriptionCallbackIN8nav_msgs3msg9Odometry_ISaIvEEES4_EC2ERKS4_
FN:357,_ZN6rclcpp23AnySubscriptionCallbackIN8nav_msgs3msg9Odometry_ISaIvEEES4_EC2ERKS6_
FN:367,_ZN6rclcpp23AnySubscriptionCallbackIN8nav_msgs3msg9Odometry_ISaIvEEES4_E3setISt5_BindIFM12InspectorBotFvSt10shared_ptrIS5_EEPS9_St12_PlaceholderILi1EEEEEES6_T_
FN:408,_ZN6rclcpp23AnySubscriptionCallbackIN8nav_msgs3msg9Odometry_ISaIvEEES4_E14set_deprecatedIS5_EEvSt8functionIFvSt10shared_ptrIT_EEE
FN:428,_ZN6rclcpp23AnySubscriptionCallbackIN8nav_msgs3msg9Odometry_ISaIvEEES4_E49create_ros_unique_ptr_from_ros_shared_ptr_messageERKSt10shared_ptrIKS5_E
FN:437,_ZN6rclcpp23AnySubscriptionCallbackIN8nav_msgs3msg9Odometry_ISaIvEEES4_E52create_serialized_message_unique_ptr_from_shared_ptrERKSt10shared_ptrIKNS_17SerializedMessageEE
FN:491,_ZN6rclcpp23AnySubscriptionCallbackIN8nav_msgs3msg9Odometry_ISaIvEEES4_E8dispatchESt10shared_ptrIS5_ERKNS_11MessageInfoE
FN:505,_ZZN6rclcpp23AnySubscriptionCallbackIN8nav_msgs3msg9Odometry_ISaIvEEES4_E8dispatchESt10shared_ptrIS5_ERKNS_11MessageInfoEENKUlOT_E_clIRSt8functionIFvS8_SB_EEEEDaSD_
FN:505,_ZZN6rclcpp23AnySubscriptionCallbackIN8nav_msgs3msg9Odometry_ISaIvEEES4_E8dispatchESt10shared_ptrIS5_ERKNS_11MessageInfoEENKUlOT_E_clIRSt8functionIFvS7_IKS5_EEEEEDaSD_
FN:505,_ZZN6rclcpp23AnySubscriptionCallbackIN8nav_msgs3msg9Odometry_ISaIvEEES4_E8dispatchESt10shared_ptrIS5_ERKNS_11MessageInfoEENKUlOT_E_clIRSt8functionIFvRKS5_EEEEDaSD_
FN:505,_ZZN6rclcpp23AnySubscriptionCallbackIN8nav_msgs3msg9Odometry_ISaIvEEES4_E8dispatchESt10shared_ptrIS5_ERKNS_11MessageInfoEENKUlOT_E_clIRSt8functionIFvSt10unique_ptrINS_17SerializedMessageESt14default_deleteISI_EESB_EEEEDaSD_
FN:505,_ZZN6rclcpp23AnySubscriptionCallbackIN8nav_msgs3msg9Odometry_ISaIvEEES4_E8dispatchESt10shared_ptrIS5_ERKNS_11MessageInfoEENKUlOT_E_clIRSt8functionIFvS7_INS_17SerializedMessageEEEEEEDaSD_
FN:505,_ZZN6rclcpp23AnySubscriptionCallbackIN8nav_msgs3msg9Odometry_ISaIvEEES4_E8dispatchESt10shared_ptrIS5_ERKNS_11MessageInfoEENKUlOT_E_clIRSt8functionIFvRKS5_SB_EEEEDaSD_
FN:505,_ZZN6rclcpp23AnySubscriptionCallbackIN8nav_msgs3msg9Odometry_ISaIvEEES4_E8dispatchESt10shared_ptrIS5_ERKNS_11MessageInfoEENKUlOT_E_clIRSt8functionIFvS7_IKNS_17SerializedMessageEESB_EEEEDaSD_
FN:505,_ZZN6rclcpp23AnySubscriptionCallbackIN8nav_msgs3msg9Odometry_ISaIvEEES4_E8dispatchESt10shared_ptrIS5_ERKNS_11MessageInfoEENKUlOT_E_clIRSt8functionIFvSt10unique_ptrIS5_St14default_deleteIS5_EEEEEEDaSD_
FN:505,_ZZN6rclcpp23AnySubscriptionCallbackIN8nav_msgs3msg9Odometry_ISaIvEEES4_E8dispatchESt10shared_ptrIS5_ERKNS_11MessageInfoEENKUlOT_E_clIRSt8functionIFvRKS7_IKNS_17SerializedMessageEESB_EEEEDaSD_
FN:505,_ZZN6rclcpp23AnySubscriptionCallbackIN8nav_msgs3msg9Odometry_ISaIvEEES4_E8dispatchESt10shared_ptrIS5_ERKNS_11MessageInfoEENKUlOT_E_clIRSt8functionIFvS7_INS_17SerializedMessageEESB_EEEEDaSD_
FN:505,_ZZN6rclcpp23AnySubscriptionCallbackIN8nav_msgs3msg9Odometry_ISaIvEEES4_E8dispatchESt10shared_ptrIS5_ERKNS_11MessageInfoEENKUlOT_E_clIRSt8functionIFvRKNS_17SerializedMessageEEEEEDaSD_
FN:505,_ZZN6rclcpp23AnySubscriptionCallbackIN8nav_msgs3msg9Odometry_ISaIvEEES4_E8dispatchESt10shared_ptrIS5_ERKNS_11MessageInfoEENKUlOT_E_clIRSt8functionIFvSt10unique_ptrIS5_St14default_deleteIS5_EESB_EEEEDaSD_
FN:505,_ZZN6rclcpp23AnySubscriptionCallbackIN8nav_msgs3msg9Odometry_ISaIvEEES4_E8dispatchESt10shared_ptrIS5_ERKNS_11MessageInfoEENKUlOT_E_clIRSt8functionIFvRKNS_17SerializedMessageESB_EEEEDaSD_
FN:505,_ZZN6rclcpp23AnySubscriptionCallbackIN8nav_msgs3msg9Odometry_ISaIvEEES4_E8dispatchESt10shared_ptrIS5_ERKNS_11MessageInfoEENKUlOT_E_clIRSt8functionIFvRKS7_IKNS_17SerializedMessageEEEEEEDaSD_
FN:505,_ZZN6rclcpp23AnySubscriptionCallbackIN8nav_msgs3msg9Odometry_ISaIvEEES4_E8dispatchESt10shared_ptrIS5_ERKNS_11MessageInfoEENKUlOT_E_clIRSt8functionIFvRKS7_IKS5_ESB_EEEEDaSD_
FN:505,_ZZN6rclcpp23AnySubscriptionCallbackIN8nav_msgs3msg9Odometry_ISaIvEEES4_E8dispatchESt10shared_ptrIS5_ERKNS_11MessageInfoEENKUlOT_E_clIRSt8functionIFvS8_EEEEDaSD_
FN:505,_ZZN6rclcpp23AnySubscriptionCallbackIN8nav_msgs3msg9Odometry_ISaIvEEES4_E8dispatchESt10shared_ptrIS5_ERKNS_11MessageInfoEENKUlOT_E_clIRSt8functionIFvRKS7_IKS5_EEEEEDaSD_
FN:505,_ZZN6rclcpp23AnySubscriptionCallbackIN8nav_msgs3msg9Odometry_ISaIvEEES4_E8dispatchESt10shared_ptrIS5_ERKNS_11MessageInfoEENKUlOT_E_clIRSt8functionIFvS7_IKS5_ESB_EEEEDaSD_
FN:505,_ZZN6rclcpp23AnySubscriptionCallbackIN8nav_msgs3msg9Odometry_ISaIvEEES4_E8dispatchESt10shared_ptrIS5_ERKNS_11MessageInfoEENKUlOT_E_clIRSt8functionIFvSt10unique_ptrINS_17SerializedMessageESt14default_deleteISI_EEEEEEDaSD_
FN:505,_ZZN6rclcpp23AnySubscriptionCallbackIN8nav_msgs3msg9Odometry_ISaIvEEES4_E8dispatchESt10shared_ptrIS5_ERKNS_11MessageInfoEENKUlOT_E_clIRSt8functionIFvS7_IKNS_17SerializedMessageEEEEEEDaSD_
FN:591,_ZN6rclcpp23AnySubscriptionCallbackIN8nav_msgs3msg9Odometry_ISaIvEEES4_E8dispatchESt10shared_ptrINS_17SerializedMessageEERKNS_11MessageInfoE
FN:605,_ZZN6rclcpp23AnySubscriptionCallbackIN8nav_msgs3msg9Odometry_ISaIvEEES4_E8dispatchESt10shared_ptrINS_17SerializedMessageEERKNS_11MessageInfoEENKUlOT_E_clIRSt8functionIFvRKS7_IKS8_EEEEEDaSE_
FN:605,_ZZN6rclcpp23AnySubscriptionCallbackIN8nav_msgs3msg9Odometry_ISaIvEEES4_E8dispatchESt10shared_ptrINS_17SerializedMessageEERKNS_11MessageInfoEENKUlOT_E_clIRSt8functionIFvS9_SC_EEEEDaSE_
FN:605,_ZZN6rclcpp23AnySubscriptionCallbackIN8nav_msgs3msg9Odometry_ISaIvEEES4_E8dispatchESt10shared_ptrINS_17SerializedMessageEERKNS_11MessageInfoEENKUlOT_E_clIRSt8functionIFvSt10unique_ptrIS5_St14default_deleteIS5_EESC_EEEEDaSE_
FN:605,_ZZN6rclcpp23AnySubscriptionCallbackIN8nav_msgs3msg9Odometry_ISaIvEEES4_E8dispatchESt10shared_ptrINS_17SerializedMessageEERKNS_11MessageInfoEENKUlOT_E_clIRSt8functionIFvSt10unique_ptrIS5_St14default_deleteIS5_EEEEEEDaSE_
FN:605,_ZZN6rclcpp23AnySubscriptionCallbackIN8nav_msgs3msg9Odometry_ISaIvEEES4_E8dispatchESt10shared_ptrINS_17SerializedMessageEERKNS_11MessageInfoEENKUlOT_E_clIRSt8functionIFvSt10unique_ptrIS8_St14default_deleteIS8_EEEEEEDaSE_
FN:605,_ZZN6rclcpp23AnySubscriptionCallbackIN8nav_msgs3msg9Odometry_ISaIvEEES4_E8dispatchESt10shared_ptrINS_17SerializedMessageEERKNS_11MessageInfoEENKUlOT_E_clIRSt8functionIFvRKS5_EEEEDaSE_
FN:605,_ZZN6rclcpp23AnySubscriptionCallbackIN8nav_msgs3msg9Odometry_ISaIvEEES4_E8dispatchESt10shared_ptrINS_17SerializedMessageEERKNS_11MessageInfoEENKUlOT_E_clIRSt8functionIFvS9_EEEEDaSE_
FN:605,_ZZN6rclcpp23AnySubscriptionCallbackIN8nav_msgs3msg9Odometry_ISaIvEEES4_E8dispatchESt10shared_ptrINS_17SerializedMessageEERKNS_11MessageInfoEENKUlOT_E_clIRSt8functionIFvS7_IKS5_ESC_EEEEDaSE_
FN:605,_ZZN6rclcpp23AnySubscriptionCallbackIN8nav_msgs3msg9Odometry_ISaIvEEES4_E8dispatchESt10shared_ptrINS_17SerializedMessageEERKNS_11MessageInfoEENKUlOT_E_clIRSt8functionIFvS7_IKS8_EEEEEDaSE_
FN:605,_ZZN6rclcpp23AnySubscriptionCallbackIN8nav_msgs3msg9Odometry_ISaIvEEES4_E8dispatchESt10shared_ptrINS_17SerializedMessageEERKNS_11MessageInfoEENKUlOT_E_clIRSt8functionIFvS7_IKS8_ESC_EEEEDaSE_
FN:605,_ZZN6rclcpp23AnySubscriptionCallbackIN8nav_msgs3msg9Odometry_ISaIvEEES4_E8dispatchESt10shared_ptrINS_17SerializedMessageEERKNS_11MessageInfoEENKUlOT_E_clIRSt8functionIFvRKS5_SC_EEEEDaSE_
FN:605,_ZZN6rclcpp23AnySubscriptionCallbackIN8nav_msgs3msg9Odometry_ISaIvEEES4_E8dispatchESt10shared_ptrINS_17SerializedMessageEERKNS_11MessageInfoEENKUlOT_E_clIRSt8functionIFvS7_IKS5_EEEEEDaSE_
FN:605,_ZZN6rclcpp23AnySubscriptionCallbackIN8nav_msgs3msg9Odometry_ISaIvEEES4_E8dispatchESt10shared_ptrINS_17SerializedMessageEERKNS_11MessageInfoEENKUlOT_E_clIRSt8functionIFvRKS8_SC_EEEEDaSE_
FN:605,_ZZN6rclcpp23AnySubscriptionCallbackIN8nav_msgs3msg9Odometry_ISaIvEEES4_E8dispatchESt10shared_ptrINS_17SerializedMessageEERKNS_11MessageInfoEENKUlOT_E_clIRSt8functionIFvS7_IS5_EEEEEDaSE_
FN:605,_ZZN6rclcpp23AnySubscriptionCallbackIN8nav_msgs3msg9Odometry_ISaIvEEES4_E8dispatchESt10shared_ptrINS_17SerializedMessageEERKNS_11MessageInfoEENKUlOT_E_clIRSt8functionIFvSt10unique_ptrIS8_St14default_deleteIS8_EESC_EEEEDaSE_
FN:605,_ZZN6rclcpp23AnySubscriptionCallbackIN8nav_msgs3msg9Odometry_ISaIvEEES4_E8dispatchESt10shared_ptrINS_17SerializedMessageEERKNS_11MessageInfoEENKUlOT_E_clIRSt8functionIFvRKS7_IKS8_ESC_EEEEDaSE_
FN:605,_ZZN6rclcpp23AnySubscriptionCallbackIN8nav_msgs3msg9Odometry_ISaIvEEES4_E8dispatchESt10shared_ptrINS_17SerializedMessageEERKNS_11MessageInfoEENKUlOT_E_clIRSt8functionIFvRKS7_IKS5_ESC_EEEEDaSE_
FN:605,_ZZN6rclcpp23AnySubscriptionCallbackIN8nav_msgs3msg9Odometry_ISaIvEEES4_E8dispatchESt10shared_ptrINS_17SerializedMessageEERKNS_11MessageInfoEENKUlOT_E_clIRSt8functionIFvS7_IS5_ESC_EEEEDaSE_
FN:605,_ZZN6rclcpp23AnySubscriptionCallbackIN8nav_msgs3msg9Odometry_ISaIvEEES4_E8dispatchESt10shared_ptrINS_17SerializedMessageEERKNS_11MessageInfoEENKUlOT_E_clIRSt8functionIFvRKS8_EEEEDaSE_
FN:605,_ZZN6rclcpp23AnySubscriptionCallbackIN8nav_msgs3msg9Odometry_ISaIvEEES4_E8dispatchESt10shared_ptrINS_17SerializedMessageEERKNS_11MessageInfoEENKUlOT_E_clIRSt8functionIFvRKS7_IKS5_EEEEEDaSE_
FN:670,_ZN6rclcpp23AnySubscriptionCallbackIN8nav_msgs3msg9Odometry_ISaIvEEES4_E22dispatch_intra_processESt10shared_ptrIKS5_ERKNS_11MessageInfoE
FN:684,_ZZN6rclcpp23AnySubscriptionCallbackIN8nav_msgs3msg9Odometry_ISaIvEEES4_E22dispatch_intra_processESt10shared_ptrIKS5_ERKNS_11MessageInfoEENKUlOT_E_clIRSt8functionIFvS7_INS_17SerializedMessageEESC_EEEEDaSE_
FN:684,_ZZN6rclcpp23AnySubscriptionCallbackIN8nav_msgs3msg9Odometry_ISaIvEEES4_E22dispatch_intra_processESt10shared_ptrIKS5_ERKNS_11MessageInfoEENKUlOT_E_clIRSt8functionIFvSt10unique_ptrIS5_St14default_deleteIS5_EESC_EEEEDaSE_
FN:684,_ZZN6rclcpp23AnySubscriptionCallbackIN8nav_msgs3msg9Odometry_ISaIvEEES4_E22dispatch_intra_processESt10shared_ptrIKS5_ERKNS_11MessageInfoEENKUlOT_E_clIRSt8functionIFvS7_INS_17SerializedMessageEEEEEEDaSE_
FN:684,_ZZN6rclcpp23AnySubscriptionCallbackIN8nav_msgs3msg9Odometry_ISaIvEEES4_E22dispatch_intra_processESt10shared_ptrIKS5_ERKNS_11MessageInfoEENKUlOT_E_clIRSt8functionIFvS7_IKNS_17SerializedMessageEEEEEEDaSE_
FN:684,_ZZN6rclcpp23AnySubscriptionCallbackIN8nav_msgs3msg9Odometry_ISaIvEEES4_E22dispatch_intra_processESt10shared_ptrIKS5_ERKNS_11MessageInfoEENKUlOT_E_clIRSt8functionIFvRKNS_17SerializedMessageESC_EEEEDaSE_
FN:684,_ZZN6rclcpp23AnySubscriptionCallbackIN8nav_msgs3msg9Odometry_ISaIvEEES4_E22dispatch_intra_processESt10shared_ptrIKS5_ERKNS_11MessageInfoEENKUlOT_E_clIRSt8functionIFvS7_IS5_EEEEEDaSE_
FN:684,_ZZN6rclcpp23AnySubscriptionCallbackIN8nav_msgs3msg9Odometry_ISaIvEEES4_E22dispatch_intra_processESt10shared_ptrIKS5_ERKNS_11MessageInfoEENKUlOT_E_clIRSt8functionIFvRKS9_EEEEDaSE_
FN:684,_ZZN6rclcpp23AnySubscriptionCallbackIN8nav_msgs3msg9Odometry_ISaIvEEES4_E22dispatch_intra_processESt10shared_ptrIKS5_ERKNS_11MessageInfoEENKUlOT_E_clIRSt8functionIFvSt10unique_ptrINS_17SerializedMessageESt14default_deleteISJ_EESC_EEEEDaSE_
FN:684,_ZZN6rclcpp23AnySubscriptionCallbackIN8nav_msgs3msg9Odometry_ISaIvEEES4_E22dispatch_intra_processESt10shared_ptrIKS5_ERKNS_11MessageInfoEENKUlOT_E_clIRSt8functionIFvRKS7_IKNS_17SerializedMessageEESC_EEEEDaSE_
FN:684,_ZZN6rclcpp23AnySubscriptionCallbackIN8nav_msgs3msg9Odometry_ISaIvEEES4_E22dispatch_intra_processESt10shared_ptrIKS5_ERKNS_11MessageInfoEENKUlOT_E_clIRSt8functionIFvRS8_SC_EEEEDaSE_
FN:684,_ZZN6rclcpp23AnySubscriptionCallbackIN8nav_msgs3msg9Odometry_ISaIvEEES4_E22dispatch_intra_processESt10shared_ptrIKS5_ERKNS_11MessageInfoEENKUlOT_E_clIRSt8functionIFvRKS9_SC_EEEEDaSE_
FN:684,_ZZN6rclcpp23AnySubscriptionCallbackIN8nav_msgs3msg9Odometry_ISaIvEEES4_E22dispatch_intra_processESt10shared_ptrIKS5_ERKNS_11MessageInfoEENKUlOT_E_clIRSt8functionIFvS7_IKNS_17SerializedMessageEESC_EEEEDaSE_
FN:684,_ZZN6rclcpp23AnySubscriptionCallbackIN8nav_msgs3msg9Odometry_ISaIvEEES4_E22dispatch_intra_processESt10shared_ptrIKS5_ERKNS_11MessageInfoEENKUlOT_E_clIRSt8functionIFvRS8_EEEEDaSE_
FN:684,_ZZN6rclcpp23AnySubscriptionCallbackIN8nav_msgs3msg9Odometry_ISaIvEEES4_E22dispatch_intra_processESt10shared_ptrIKS5_ERKNS_11MessageInfoEENKUlOT_E_clIRSt8functionIFvS7_IS5_ESC_EEEEDaSE_
FN:684,_ZZN6rclcpp23AnySubscriptionCallbackIN8nav_msgs3msg9Odometry_ISaIvEEES4_E22dispatch_intra_processESt10shared_ptrIKS5_ERKNS_11MessageInfoEENKUlOT_E_clIRSt8functionIFvRKS7_IKNS_17SerializedMessageEEEEEEDaSE_
FN:684,_ZZN6rclcpp23AnySubscriptionCallbackIN8nav_msgs3msg9Odometry_ISaIvEEES4_E22dispatch_intra_processESt10shared_ptrIKS5_ERKNS_11MessageInfoEENKUlOT_E_clIRSt8functionIFvRKNS_17SerializedMessageEEEEEDaSE_
FN:684,_ZZN6rclcpp23AnySubscriptionCallbackIN8nav_msgs3msg9Odometry_ISaIvEEES4_E22dispatch_intra_processESt10shared_ptrIKS5_ERKNS_11MessageInfoEENKUlOT_E_clIRSt8functionIFvS9_EEEEDaSE_
FN:684,_ZZN6rclcpp23AnySubscriptionCallbackIN8nav_msgs3msg9Odometry_ISaIvEEES4_E22dispatch_intra_processESt10shared_ptrIKS5_ERKNS_11MessageInfoEENKUlOT_E_clIRSt8functionIFvSt10unique_ptrINS_17SerializedMessageESt14default_deleteISJ_EEEEEEDaSE_
FN:684,_ZZN6rclcpp23AnySubscriptionCallbackIN8nav_msgs3msg9Odometry_ISaIvEEES4_E22dispatch_intra_processESt10shared_ptrIKS5_ERKNS_11MessageInfoEENKUlOT_E_clIRSt8functionIFvSt10unique_ptrIS5_St14default_deleteIS5_EEEEEEDaSE_
FN:684,_ZZN6rclcpp23AnySubscriptionCallbackIN8nav_msgs3msg9Odometry_ISaIvEEES4_E22dispatch_intra_processESt10shared_ptrIKS5_ERKNS_11MessageInfoEENKUlOT_E_clIRSt8functionIFvS9_SC_EEEEDaSE_
FN:800,_ZN6rclcpp23AnySubscriptionCallbackIN8nav_msgs3msg9Odometry_ISaIvEEES4_E22dispatch_intra_processESt10unique_ptrIS5_St14default_deleteIS5_EERKNS_11MessageInfoE
FN:814,_ZZN6rclcpp23AnySubscriptionCallbackIN8nav_msgs3msg9Odometry_ISaIvEEES4_E22dispatch_intra_processESt10unique_ptrIS5_St14default_deleteIS5_EERKNS_11MessageInfoEENKUlOT_E_clIRSt8functionIFvS7_INS_17SerializedMessageES8_ISJ_EEEEEEDaSF_
FN:814,_ZZN6rclcpp23AnySubscriptionCallbackIN8nav_msgs3msg9Odometry_ISaIvEEES4_E22dispatch_intra_processESt10unique_ptrIS5_St14default_deleteIS5_EERKNS_11MessageInfoEENKUlOT_E_clIRSt8functionIFvSA_SD_EEEEDaSF_
FN:814,_ZZN6rclcpp23AnySubscriptionCallbackIN8nav_msgs3msg9Odometry_ISaIvEEES4_E22dispatch_intra_processESt10unique_ptrIS5_St14default_deleteIS5_EERKNS_11MessageInfoEENKUlOT_E_clIRSt8functionIFvSt10shared_ptrIS5_EEEEEDaSF_
FN:814,_ZZN6rclcpp23AnySubscriptionCallbackIN8nav_msgs3msg9Odometry_ISaIvEEES4_E22dispatch_intra_processESt10unique_ptrIS5_St14default_deleteIS5_EERKNS_11MessageInfoEENKUlOT_E_clIRSt8functionIFvS7_INS_17SerializedMessageES8_ISJ_EESD_EEEEDaSF_
FN:814,_ZZN6rclcpp23AnySubscriptionCallbackIN8nav_msgs3msg9Odometry_ISaIvEEES4_E22dispatch_intra_processESt10unique_ptrIS5_St14default_deleteIS5_EERKNS_11MessageInfoEENKUlOT_E_clIRSt8functionIFvSt10shared_ptrIKNS_17SerializedMessageEEEEEEDaSF_
FN:814,_ZZN6rclcpp23AnySubscriptionCallbackIN8nav_msgs3msg9Odometry_ISaIvEEES4_E22dispatch_intra_processESt10unique_ptrIS5_St14default_deleteIS5_EERKNS_11MessageInfoEENKUlOT_E_clIRSt8functionIFvRKSt10shared_ptrIKNS_17SerializedMessageEESD_EEEEDaSF_
FN:814,_ZZN6rclcpp23AnySubscriptionCallbackIN8nav_msgs3msg9Odometry_ISaIvEEES4_E22dispatch_intra_processESt10unique_ptrIS5_St14default_deleteIS5_EERKNS_11MessageInfoEENKUlOT_E_clIRSt8functionIFvSt10shared_ptrIKNS_17SerializedMessageEESD_EEEEDaSF_
FN:814,_ZZN6rclcpp23AnySubscriptionCallbackIN8nav_msgs3msg9Odometry_ISaIvEEES4_E22dispatch_intra_processESt10unique_ptrIS5_St14default_deleteIS5_EERKNS_11MessageInfoEENKUlOT_E_clIRSt8functionIFvRKNS_17SerializedMessageEEEEEDaSF_
FN:814,_ZZN6rclcpp23AnySubscriptionCallbackIN8nav_msgs3msg9Odometry_ISaIvEEES4_E22dispatch_intra_processESt10unique_ptrIS5_St14default_deleteIS5_EERKNS_11MessageInfoEENKUlOT_E_clIRSt8functionIFvRKSt10shared_ptrIKS5_EEEEEDaSF_
FN:814,_ZZN6rclcpp23AnySubscriptionCallbackIN8nav_msgs3msg9Odometry_ISaIvEEES4_E22dispatch_intra_processESt10unique_ptrIS5_St14default_deleteIS5_EERKNS_11MessageInfoEENKUlOT_E_clIRSt8functionIFvSt10shared_ptrIKS5_EEEEEDaSF_
FN:814,_ZZN6rclcpp23AnySubscriptionCallbackIN8nav_msgs3msg9Odometry_ISaIvEEES4_E22dispatch_intra_processESt10unique_ptrIS5_St14default_deleteIS5_EERKNS_11MessageInfoEENKUlOT_E_clIRSt8functionIFvSt10shared_ptrIS5_ESD_EEEEDaSF_
FN:814,_ZZN6rclcpp23AnySubscriptionCallbackIN8nav_msgs3msg9Odometry_ISaIvEEES4_E22dispatch_intra_processESt10unique_ptrIS5_St14default_deleteIS5_EERKNS_11MessageInfoEENKUlOT_E_clIRSt8functionIFvRKS5_SD_EEEEDaSF_
FN:814,_ZZN6rclcpp23AnySubscriptionCallbackIN8nav_msgs3msg9Odometry_ISaIvEEES4_E22dispatch_intra_processESt10unique_ptrIS5_St14default_deleteIS5_EERKNS_11MessageInfoEENKUlOT_E_clIRSt8functionIFvRKNS_17SerializedMessageESD_EEEEDaSF_
FN:814,_ZZN6rclcpp23AnySubscriptionCallbackIN8nav_msgs3msg9Odometry_ISaIvEEES4_E22dispatch_intra_processESt10unique_ptrIS5_St14default_deleteIS5_EERKNS_11MessageInfoEENKUlOT_E_clIRSt8functionIFvRKSt10shared_ptrIKS5_ESD_EEEEDaSF_
FN:814,_ZZN6rclcpp23AnySubscriptionCallbackIN8nav_msgs3msg9Odometry_ISaIvEEES4_E22dispatch_intra_processESt10unique_ptrIS5_St14default_deleteIS5_EERKNS_11MessageInfoEENKUlOT_E_clIRSt8functionIFvSt10shared_ptrINS_17SerializedMessageEESD_EEEEDaSF_
FN:814,_ZZN6rclcpp23AnySubscriptionCallbackIN8nav_msgs3msg9Odometry_ISaIvEEES4_E22dispatch_intra_processESt10unique_ptrIS5_St14default_deleteIS5_EERKNS_11MessageInfoEENKUlOT_E_clIRSt8functionIFvRKSt10shared_ptrIKNS_17SerializedMessageEEEEEEDaSF_
FN:814,_ZZN6rclcpp23AnySubscriptionCallbackIN8nav_msgs3msg9Odometry_ISaIvEEES4_E22dispatch_intra_processESt10unique_ptrIS5_St14default_deleteIS5_EERKNS_11MessageInfoEENKUlOT_E_clIRSt8functionIFvSA_EEEEDaSF_
FN:814,_ZZN6rclcpp23AnySubscriptionCallbackIN8nav_msgs3msg9Odometry_ISaIvEEES4_E22dispatch_intra_processESt10unique_ptrIS5_St14default_deleteIS5_EERKNS_11MessageInfoEENKUlOT_E_clIRSt8functionIFvRKS5_EEEEDaSF_
FN:814,_ZZN6rclcpp23AnySubscriptionCallbackIN8nav_msgs3msg9Odometry_ISaIvEEES4_E22dispatch_intra_processESt10unique_ptrIS5_St14default_deleteIS5_EERKNS_11MessageInfoEENKUlOT_E_clIRSt8functionIFvSt10shared_ptrINS_17SerializedMessageEEEEEEDaSF_
FN:814,_ZZN6rclcpp23AnySubscriptionCallbackIN8nav_msgs3msg9Odometry_ISaIvEEES4_E22dispatch_intra_processESt10unique_ptrIS5_St14default_deleteIS5_EERKNS_11MessageInfoEENKUlOT_E_clIRSt8functionIFvSt10shared_ptrIKS5_ESD_EEEEDaSF_
FN:935,_ZNK6rclcpp23AnySubscriptionCallbackIN8nav_msgs3msg9Odometry_ISaIvEEES4_E22use_take_shared_methodEv
FN:946,_ZNK6rclcpp23AnySubscriptionCallbackIN8nav_msgs3msg9Odometry_ISaIvEEES4_E30is_serialized_message_callbackEv
FN:957,_ZN6rclcpp23AnySubscriptionCallbackIN8nav_msgs3msg9Odometry_ISaIvEEES4_E29register_callback_for_tracingEv
FN:961,_ZZN6rclcpp23AnySubscriptionCallbackIN8nav_msgs3msg9Odometry_ISaIvEEES4_E29register_callback_for_tracingEvENKUlOT_E_clIRSt8functionIFvRKNS_17SerializedMessageEEEEEDaS8_
FN:961,_ZZN6rclcpp23AnySubscriptionCallbackIN8nav_msgs3msg9Odometry_ISaIvEEES4_E29register_callback_for_tracingEvENKUlOT_E_clIRSt8functionIFvRKSt10shared_ptrIKNS_17SerializedMessageEEEEEEDaS8_
FN:961,_ZZN6rclcpp23AnySubscriptionCallbackIN8nav_msgs3msg9Odometry_ISaIvEEES4_E29register_callback_for_tracingEvENKUlOT_E_clIRSt8functionIFvSt10unique_ptrINS_17SerializedMessageESt14default_deleteISD_EERKNS_11MessageInfoEEEEEDaS8_
FN:961,_ZZN6rclcpp23AnySubscriptionCallbackIN8nav_msgs3msg9Odometry_ISaIvEEES4_E29register_callback_for_tracingEvENKUlOT_E_clIRSt8functionIFvSt10shared_ptrIKS5_ERKNS_11MessageInfoEEEEEDaS8_
FN:961,_ZZN6rclcpp23AnySubscriptionCallbackIN8nav_msgs3msg9Odometry_ISaIvEEES4_E29register_callback_for_tracingEvENKUlOT_E_clIRSt8functionIFvSt10unique_ptrIS5_St14default_deleteIS5_EERKNS_11MessageInfoEEEEEDaS8_
FN:961,_ZZN6rclcpp23AnySubscriptionCallbackIN8nav_msgs3msg9Odometry_ISaIvEEES4_E29register_callback_for_tracingEvENKUlOT_E_clIRSt8functionIFvSt10shared_ptrIKNS_17SerializedMessageEERKNS_11MessageInfoEEEEEDaS8_
FN:961,_ZZN6rclcpp23AnySubscriptionCallbackIN8nav_msgs3msg9Odometry_ISaIvEEES4_E29register_callback_for_tracingEvENKUlOT_E_clIRSt8functionIFvSt10shared_ptrIS5_ERKNS_11MessageInfoEEEEEDaS8_
FN:961,_ZZN6rclcpp23AnySubscriptionCallbackIN8nav_msgs3msg9Odometry_ISaIvEEES4_E29register_callback_for_tracingEvENKUlOT_E_clIRSt8functionIFvSt10shared_ptrINS_17SerializedMessageEERKNS_11MessageInfoEEEEEDaS8_
FN:961,_ZZN6rclcpp23AnySubscriptionCallbackIN8nav_msgs3msg9Odometry_ISaIvEEES4_E29register_callback_for_tracingEvENKUlOT_E_clIRSt8functionIFvRKSt10shared_ptrIKS5_ERKNS_11MessageInfoEEEEEDaS8_
FN:961,_ZZN6rclcpp23AnySubscriptionCallbackIN8nav_msgs3msg9Odometry_ISaIvEEES4_E29register_callback_for_tracingEvENKUlOT_E_clIRSt8functionIFvSt10shared_ptrIKS5_EEEEEDaS8_
FN:961,_ZZN6rclcpp23AnySubscriptionCallbackIN8nav_msgs3msg9Odometry_ISaIvEEES4_E29register_callback_for_tracingEvENKUlOT_E_clIRSt8functionIFvRKS5_RKNS_11MessageInfoEEEEEDaS8_
FN:961,_ZZN6rclcpp23AnySubscriptionCallbackIN8nav_msgs3msg9Odometry_ISaIvEEES4_E29register_callback_for_tracingEvENKUlOT_E_clIRSt8functionIFvRKNS_17SerializedMessageERKNS_11MessageInfoEEEEEDaS8_
FN:961,_ZZN6rclcpp23AnySubscriptionCallbackIN8nav_msgs3msg9Odometry_ISaIvEEES4_E29register_callback_for_tracingEvENKUlOT_E_clIRSt8functionIFvSt10shared_ptrIS5_EEEEEDaS8_
FN:961,_ZZN6rclcpp23AnySubscriptionCallbackIN8nav_msgs3msg9Odometry_ISaIvEEES4_E29register_callback_for_tracingEvENKUlOT_E_clIRSt8functionIFvRKSt10shared_ptrIKS5_EEEEEDaS8_
FN:961,_ZZN6rclcpp23AnySubscriptionCallbackIN8nav_msgs3msg9Odometry_ISaIvEEES4_E29register_callback_for_tracingEvENKUlOT_E_clIRSt8functionIFvSt10unique_ptrINS_17SerializedMessageESt14default_deleteISD_EEEEEEDaS8_
FN:961,_ZZN6rclcpp23AnySubscriptionCallbackIN8nav_msgs3msg9Odometry_ISaIvEEES4_E29register_callback_for_tracingEvENKUlOT_E_clIRSt8functionIFvSt10unique_ptrIS5_St14default_deleteIS5_EEEEEEDaS8_
FN:961,_ZZN6rclcpp23AnySubscriptionCallbackIN8nav_msgs3msg9Odometry_ISaIvEEES4_E29register_callback_for_tracingEvENKUlOT_E_clIRSt8functionIFvSt10shared_ptrINS_17SerializedMessageEEEEEEDaS8_
FN:961,_ZZN6rclcpp23AnySubscriptionCallbackIN8nav_msgs3msg9Odometry_ISaIvEEES4_E29register_callback_for_tracingEvENKUlOT_E_clIRSt8functionIFvSt10shared_ptrIKNS_17SerializedMessageEEEEEEDaS8_
FN:961,_ZZN6rclcpp23AnySubscriptionCallbackIN8nav_msgs3msg9Odometry_ISaIvEEES4_E29register_callback_for_tracingEvENKUlOT_E_clIRSt8functionIFvRKS5_EEEEDaS8_
FN:961,_ZZN6rclcpp23AnySubscriptionCallbackIN8nav_msgs3msg9Odometry_ISaIvEEES4_E29register_callback_for_tracingEvENKUlOT_E_clIRSt8functionIFvRKSt10shared_ptrIKNS_17SerializedMessageEERKNS_11MessageInfoEEEEEDaS8_
FNDA:0,_ZZN6rclcpp23AnySubscriptionCallbackIN8nav_msgs3msg9Odometry_ISaIvEEES4_E22dispatch_intra_processESt10shared_ptrIKS5_ERKNS_11MessageInfoEENKUlOT_E_clIRSt8functionIFvS9_SC_EEEEDaSE_
FNDA:0,_ZZN6rclcpp23AnySubscriptionCallbackIN8nav_msgs3msg9Odometry_ISaIvEEES4_E8dispatchESt10shared_ptrIS5_ERKNS_11MessageInfoEENKUlOT_E_clIRSt8functionIFvSt10unique_ptrINS_17SerializedMessageESt14default_deleteISI_EEEEEEDaSD_
FNDA:0,_ZZN6rclcpp23AnySubscriptionCallbackIN8nav_msgs3msg9Odometry_ISaIvEEES4_E8dispatchESt10shared_ptrIS5_ERKNS_11MessageInfoEENKUlOT_E_clIRSt8functionIFvS7_IKNS_17SerializedMessageEEEEEEDaSD_
FNDA:0,_ZZN6rclcpp23AnySubscriptionCallbackIN8nav_msgs3msg9Odometry_ISaIvEEES4_E8dispatchESt10shared_ptrINS_17SerializedMessageEERKNS_11MessageInfoEENKUlOT_E_clIRSt8functionIFvRKS7_IKS5_EEEEEDaSE_
FNDA:0,_ZNK6rclcpp23AnySubscriptionCallbackIN8nav_msgs3msg9Odometry_ISaIvEEES4_E22use_take_shared_methodEv
FNDA:0,_ZZN6rclcpp23AnySubscriptionCallbackIN8nav_msgs3msg9Odometry_ISaIvEEES4_E22dispatch_intra_processESt10unique_ptrIS5_St14default_deleteIS5_EERKNS_11MessageInfoEENKUlOT_E_clIRSt8functionIFvSt10shared_ptrINS_17SerializedMessageEEEEEEDaSF_
FNDA:0,_ZZN6rclcpp23AnySubscriptionCallbackIN8nav_msgs3msg9Odometry_ISaIvEEES4_E22dispatch_intra_processESt10unique_ptrIS5_St14default_deleteIS5_EERKNS_11MessageInfoEENKUlOT_E_clIRSt8functionIFvSt10shared_ptrIKS5_ESD_EEEEDaSF_
FNDA:0,_ZN6rclcpp23AnySubscriptionCallbackIN8nav_msgs3msg9Odometry_ISaIvEEES4_E8dispatchESt10shared_ptrINS_17SerializedMessageEERKNS_11MessageInfoE
FNDA:0,_ZZN6rclcpp23AnySubscriptionCallbackIN8nav_msgs3msg9Odometry_ISaIvEEES4_E29register_callback_for_tracingEvENKUlOT_E_clIRSt8functionIFvRKSt10shared_ptrIKNS_17SerializedMessageEERKNS_11MessageInfoEEEEEDaS8_
FNDA:0,_ZZN6rclcpp23AnySubscriptionCallbackIN8nav_msgs3msg9Odometry_ISaIvEEES4_E22dispatch_intra_processESt10unique_ptrIS5_St14default_deleteIS5_EERKNS_11MessageInfoEENKUlOT_E_clIRSt8functionIFvSA_EEEEDaSF_
FNDA:0,_ZZN6rclcpp23AnySubscriptionCallbackIN8nav_msgs3msg9Odometry_ISaIvEEES4_E22dispatch_intra_processESt10unique_ptrIS5_St14default_deleteIS5_EERKNS_11MessageInfoEENKUlOT_E_clIRSt8functionIFvRKS5_EEEEDaSF_
FNDA:0,_ZZN6rclcpp23AnySubscriptionCallbackIN8nav_msgs3msg9Odometry_ISaIvEEES4_E29register_callback_for_tracingEvENKUlOT_E_clIRSt8functionIFvRKS5_EEEEDaS8_
FNDA:0,_ZZN6rclcpp23AnySubscriptionCallbackIN8nav_msgs3msg9Odometry_ISaIvEEES4_E22dispatch_intra_processESt10unique_ptrIS5_St14default_deleteIS5_EERKNS_11MessageInfoEENKUlOT_E_clIRSt8functionIFvRKSt10shared_ptrIKNS_17SerializedMessageEEEEEEDaSF_
FNDA:0,_ZZN6rclcpp23AnySubscriptionCallbackIN8nav_msgs3msg9Odometry_ISaIvEEES4_E22dispatch_intra_processESt10unique_ptrIS5_St14default_deleteIS5_EERKNS_11MessageInfoEENKUlOT_E_clIRSt8functionIFvSt10shared_ptrINS_17SerializedMessageEESD_EEEEDaSF_
FNDA:0,_ZZN6rclcpp23AnySubscriptionCallbackIN8nav_msgs3msg9Odometry_ISaIvEEES4_E8dispatchESt10shared_ptrINS_17SerializedMessageEERKNS_11MessageInfoEENKUlOT_E_clIRSt8functionIFvS7_IS5_ESC_EEEEDaSE_
FNDA:0,_ZZN6rclcpp23AnySubscriptionCallbackIN8nav_msgs3msg9Odometry_ISaIvEEES4_E8dispatchESt10shared_ptrINS_17SerializedMessageEERKNS_11MessageInfoEENKUlOT_E_clIRSt8functionIFvRKS8_EEEEDaSE_
FNDA:0,_ZNK6rclcpp23AnySubscriptionCallbackIN8nav_msgs3msg9Odometry_ISaIvEEES4_E30is_serialized_message_callbackEv
FNDA:0,_ZN6rclcpp23AnySubscriptionCallbackIN8nav_msgs3msg9Odometry_ISaIvEEES4_E3setISt5_BindIFM12InspectorBotFvSt10shared_ptrIS5_EEPS9_St12_PlaceholderILi1EEEEEES6_T_
FNDA:0,_ZZN6rclcpp23AnySubscriptionCallbackIN8nav_msgs3msg9Odometry_ISaIvEEES4_E29register_callback_for_tracingEvENKUlOT_E_clIRSt8functionIFvSt10shared_ptrIKNS_17SerializedMessageEEEEEEDaS8_
FNDA:0,_ZZN6rclcpp23AnySubscriptionCallbackIN8nav_msgs3msg9Odometry_ISaIvEEES4_E8dispatchESt10shared_ptrIS5_ERKNS_11MessageInfoEENKUlOT_E_clIRSt8functionIFvS7_IKS5_ESB_EEEEDaSD_
FNDA:0,_ZZN6rclcpp23AnySubscriptionCallbackIN8nav_msgs3msg9Odometry_ISaIvEEES4_E22dispatch_intra_processESt10unique_ptrIS5_St14default_deleteIS5_EERKNS_11MessageInfoEENKUlOT_E_clIRSt8functionIFvRKNS_17SerializedMessageESD_EEEEDaSF_
FNDA:0,_ZZN6rclcpp23AnySubscriptionCallbackIN8nav_msgs3msg9Odometry_ISaIvEEES4_E22dispatch_intra_processESt10unique_ptrIS5_St14default_deleteIS5_EERKNS_11MessageInfoEENKUlOT_E_clIRSt8functionIFvRKSt10shared_ptrIKS5_ESD_EEEEDaSF_
FNDA:0,_ZZN6rclcpp23AnySubscriptionCallbackIN8nav_msgs3msg9Odometry_ISaIvEEES4_E22dispatch_intra_processESt10shared_ptrIKS5_ERKNS_11MessageInfoEENKUlOT_E_clIRSt8functionIFvSt10unique_ptrIS5_St14default_deleteIS5_EEEEEEDaSE_
FNDA:0,_ZZN6rclcpp23AnySubscriptionCallbackIN8nav_msgs3msg9Odometry_ISaIvEEES4_E8dispatchESt10shared_ptrIS5_ERKNS_11MessageInfoEENKUlOT_E_clIRSt8functionIFvRKS7_IKS5_EEEEEDaSD_
FNDA:0,_ZN6rclcpp23AnySubscriptionCallbackIN8nav_msgs3msg9Odometry_ISaIvEEES4_E22dispatch_intra_processESt10shared_ptrIKS5_ERKNS_11MessageInfoE
FNDA:0,_ZZN6rclcpp23AnySubscriptionCallbackIN8nav_msgs3msg9Odometry_ISaIvEEES4_E22dispatch_intra_processESt10unique_ptrIS5_St14default_deleteIS5_EERKNS_11MessageInfoEENKUlOT_E_clIRSt8functionIFvRKS5_SD_EEEEDaSF_
FNDA:0,_ZZN6rclcpp23AnySubscriptionCallbackIN8nav_msgs3msg9Odometry_ISaIvEEES4_E22dispatch_intra_processESt10unique_ptrIS5_St14default_deleteIS5_EERKNS_11MessageInfoEENKUlOT_E_clIRSt8functionIFvSt10shared_ptrIS5_ESD_EEEEDaSF_
FNDA:0,_ZZN6rclcpp23AnySubscriptionCallbackIN8nav_msgs3msg9Odometry_ISaIvEEES4_E8dispatchESt10shared_ptrINS_17SerializedMessageEERKNS_11MessageInfoEENKUlOT_E_clIRSt8functionIFvRKS7_IKS5_ESC_EEEEDaSE_
FNDA:0,_ZZN6rclcpp23AnySubscriptionCallbackIN8nav_msgs3msg9Odometry_ISaIvEEES4_E8dispatchESt10shared_ptrIS5_ERKNS_11MessageInfoEENKUlOT_E_clIRSt8functionIFvS8_EEEEDaSD_
FNDA:0,_ZZN6rclcpp23AnySubscriptionCallbackIN8nav_msgs3msg9Odometry_ISaIvEEES4_E22dispatch_intra_processESt10unique_ptrIS5_St14default_deleteIS5_EERKNS_11MessageInfoEENKUlOT_E_clIRSt8functionIFvSt10shared_ptrIKS5_EEEEEDaSF_
FNDA:0,_ZZN6rclcpp23AnySubscriptionCallbackIN8nav_msgs3msg9Odometry_ISaIvEEES4_E22dispatch_intra_processESt10shared_ptrIKS5_ERKNS_11MessageInfoEENKUlOT_E_clIRSt8functionIFvSt10unique_ptrINS_17SerializedMessageESt14default_deleteISJ_EEEEEEDaSE_
FNDA:0,_ZN6rclcpp23AnySubscriptionCallbackIN8nav_msgs3msg9Odometry_ISaIvEEES4_E49create_ros_unique_ptr_from_ros_shared_ptr_messageERKSt10shared_ptrIKS5_E
FNDA:0,_ZZN6rclcpp23AnySubscriptionCallbackIN8nav_msgs3msg9Odometry_ISaIvEEES4_E22dispatch_intra_processESt10shared_ptrIKS5_ERKNS_11MessageInfoEENKUlOT_E_clIRSt8functionIFvS9_EEEEDaSE_
FNDA:0,_ZZN6rclcpp23AnySubscriptionCallbackIN8nav_msgs3msg9Odometry_ISaIvEEES4_E22dispatch_intra_processESt10shared_ptrIKS5_ERKNS_11MessageInfoEENKUlOT_E_clIRSt8functionIFvRKS7_IKNS_17SerializedMessageEEEEEEDaSE_
FNDA:0,_ZZN6rclcpp23AnySubscriptionCallbackIN8nav_msgs3msg9Odometry_ISaIvEEES4_E22dispatch_intra_processESt10shared_ptrIKS5_ERKNS_11MessageInfoEENKUlOT_E_clIRSt8functionIFvRKNS_17SerializedMessageEEEEEDaSE_
FNDA:0,_ZZN6rclcpp23AnySubscriptionCallbackIN8nav_msgs3msg9Odometry_ISaIvEEES4_E8dispatchESt10shared_ptrIS5_ERKNS_11MessageInfoEENKUlOT_E_clIRSt8functionIFvRKS7_IKS5_ESB_EEEEDaSD_
FNDA:0,_ZZN6rclcpp23AnySubscriptionCallbackIN8nav_msgs3msg9Odometry_ISaIvEEES4_E22dispatch_intra_processESt10unique_ptrIS5_St14default_deleteIS5_EERKNS_11MessageInfoEENKUlOT_E_clIRSt8functionIFvRKNS_17SerializedMessageEEEEEDaSF_
FNDA:0,_ZZN6rclcpp23AnySubscriptionCallbackIN8nav_msgs3msg9Odometry_ISaIvEEES4_E8dispatchESt10shared_ptrIS5_ERKNS_11MessageInfoEENKUlOT_E_clIRSt8functionIFvRKS7_IKNS_17SerializedMessageEEEEEEDaSD_
FNDA:0,_ZZN6rclcpp23AnySubscriptionCallbackIN8nav_msgs3msg9Odometry_ISaIvEEES4_E22dispatch_intra_processESt10unique_ptrIS5_St14default_deleteIS5_EERKNS_11MessageInfoEENKUlOT_E_clIRSt8functionIFvRKSt10shared_ptrIKS5_EEEEEDaSF_
FNDA:0,_ZZN6rclcpp23AnySubscriptionCallbackIN8nav_msgs3msg9Odometry_ISaIvEEES4_E29register_callback_for_tracingEvENKUlOT_E_clIRSt8functionIFvSt10unique_ptrIS5_St14default_deleteIS5_EEEEEEDaS8_
FNDA:0,_ZZN6rclcpp23AnySubscriptionCallbackIN8nav_msgs3msg9Odometry_ISaIvEEES4_E22dispatch_intra_processESt10unique_ptrIS5_St14default_deleteIS5_EERKNS_11MessageInfoEENKUlOT_E_clIRSt8functionIFvSt10shared_ptrIKNS_17SerializedMessageEESD_EEEEDaSF_
FNDA:0,_ZZN6rclcpp23AnySubscriptionCallbackIN8nav_msgs3msg9Odometry_ISaIvEEES4_E29register_callback_for_tracingEvENKUlOT_E_clIRSt8functionIFvSt10shared_ptrINS_17SerializedMessageEEEEEEDaS8_
FNDA:0,_ZZN6rclcpp23AnySubscriptionCallbackIN8nav_msgs3msg9Odometry_ISaIvEEES4_E8dispatchESt10shared_ptrIS5_ERKNS_11MessageInfoEENKUlOT_E_clIRSt8functionIFvRKNS_17SerializedMessageESB_EEEEDaSD_
FNDA:0,_ZZN6rclcpp23AnySubscriptionCallbackIN8nav_msgs3msg9Odometry_ISaIvEEES4_E29register_callback_for_tracingEvENKUlOT_E_clIRSt8functionIFvSt10unique_ptrINS_17SerializedMessageESt14default_deleteISD_EEEEEEDaS8_
FNDA:0,_ZZN6rclcpp23AnySubscriptionCallbackIN8nav_msgs3msg9Odometry_ISaIvEEES4_E22dispatch_intra_processESt10shared_ptrIKS5_ERKNS_11MessageInfoEENKUlOT_E_clIRSt8functionIFvRS8_EEEEDaSE_
FNDA:0,_ZZN6rclcpp23AnySubscriptionCallbackIN8nav_msgs3msg9Odometry_ISaIvEEES4_E22dispatch_intra_processESt10shared_ptrIKS5_ERKNS_11MessageInfoEENKUlOT_E_clIRSt8functionIFvS7_IS5_ESC_EEEEDaSE_
FNDA:0,_ZZN6rclcpp23AnySubscriptionCallbackIN8nav_msgs3msg9Odometry_ISaIvEEES4_E22dispatch_intra_processESt10unique_ptrIS5_St14default_deleteIS5_EERKNS_11MessageInfoEENKUlOT_E_clIRSt8functionIFvRKSt10shared_ptrIKNS_17SerializedMessageEESD_EEEEDaSF_
FNDA:0,_ZZN6rclcpp23AnySubscriptionCallbackIN8nav_msgs3msg9Odometry_ISaIvEEES4_E8dispatchESt10shared_ptrINS_17SerializedMessageEERKNS_11MessageInfoEENKUlOT_E_clIRSt8functionIFvRKS7_IKS8_ESC_EEEEDaSE_
FNDA:0,_ZZN6rclcpp23AnySubscriptionCallbackIN8nav_msgs3msg9Odometry_ISaIvEEES4_E8dispatchESt10shared_ptrINS_17SerializedMessageEERKNS_11MessageInfoEENKUlOT_E_clIRSt8functionIFvSt10unique_ptrIS8_St14default_deleteIS8_EESC_EEEEDaSE_
FNDA:0,_ZZN6rclcpp23AnySubscriptionCallbackIN8nav_msgs3msg9Odometry_ISaIvEEES4_E22dispatch_intra_processESt10shared_ptrIKS5_ERKNS_11MessageInfoEENKUlOT_E_clIRSt8functionIFvS7_IKNS_17SerializedMessageEESC_EEEEDaSE_
FNDA:0,_ZZN6rclcpp23AnySubscriptionCallbackIN8nav_msgs3msg9Odometry_ISaIvEEES4_E29register_callback_for_tracingEvENKUlOT_E_clIRSt8functionIFvRKSt10shared_ptrIKS5_EEEEEDaS8_
FNDA:0,_ZZN6rclcpp23AnySubscriptionCallbackIN8nav_msgs3msg9Odometry_ISaIvEEES4_E8dispatchESt10shared_ptrINS_17SerializedMessageEERKNS_11MessageInfoEENKUlOT_E_clIRSt8functionIFvS7_IS5_EEEEEDaSE_
FNDA:0,_ZZN6rclcpp23AnySubscriptionCallbackIN8nav_msgs3msg9Odometry_ISaIvEEES4_E22dispatch_intra_processESt10shared_ptrIKS5_ERKNS_11MessageInfoEENKUlOT_E_clIRSt8functionIFvRKS9_SC_EEEEDaSE_
FNDA:0,_ZN6rclcpp23AnySubscriptionCallbackIN8nav_msgs3msg9Odometry_ISaIvEEES4_E14set_deprecatedIS5_EEvSt8functionIFvSt10shared_ptrIT_EEE
FNDA:0,_ZZN6rclcpp23AnySubscriptionCallbackIN8nav_msgs3msg9Odometry_ISaIvEEES4_E22dispatch_intra_processESt10shared_ptrIKS5_ERKNS_11MessageInfoEENKUlOT_E_clIRSt8functionIFvRS8_SC_EEEEDaSE_
FNDA:0,_ZN6rclcpp23AnySubscriptionCallbackIN8nav_msgs3msg9Odometry_ISaIvEEES4_E29register_callback_for_tracingEv
FNDA:0,_ZZN6rclcpp23AnySubscriptionCallbackIN8nav_msgs3msg9Odometry_ISaIvEEES4_E22dispatch_intra_processESt10unique_ptrIS5_St14default_deleteIS5_EERKNS_11MessageInfoEENKUlOT_E_clIRSt8functionIFvSt10shared_ptrIKNS_17SerializedMessageEEEEEEDaSF_
FNDA:0,_ZZN6rclcpp23AnySubscriptionCallbackIN8nav_msgs3msg9Odometry_ISaIvEEES4_E22dispatch_intra_processESt10shared_ptrIKS5_ERKNS_11MessageInfoEENKUlOT_E_clIRSt8functionIFvRKS7_IKNS_17SerializedMessageEESC_EEEEDaSE_
FNDA:0,_ZZN6rclcpp23AnySubscriptionCallbackIN8nav_msgs3msg9Odometry_ISaIvEEES4_E29register_callback_for_tracingEvENKUlOT_E_clIRSt8functionIFvRKS5_RKNS_11MessageInfoEEEEEDaS8_
FNDA:0,_ZZN6rclcpp23AnySubscriptionCallbackIN8nav_msgs3msg9Odometry_ISaIvEEES4_E29register_callback_for_tracingEvENKUlOT_E_clIRSt8functionIFvRKNS_17SerializedMessageERKNS_11MessageInfoEEEEEDaS8_
FNDA:0,_ZZN6rclcpp23AnySubscriptionCallbackIN8nav_msgs3msg9Odometry_ISaIvEEES4_E29register_callback_for_tracingEvENKUlOT_E_clIRSt8functionIFvSt10shared_ptrIS5_EEEEEDaS8_
FNDA:0,_ZZN6rclcpp23AnySubscriptionCallbackIN8nav_msgs3msg9Odometry_ISaIvEEES4_E8dispatchESt10shared_ptrIS5_ERKNS_11MessageInfoEENKUlOT_E_clIRSt8functionIFvSt10unique_ptrIS5_St14default_deleteIS5_EESB_EEEEDaSD_
FNDA:0,_ZZN6rclcpp23AnySubscriptionCallbackIN8nav_msgs3msg9Odometry_ISaIvEEES4_E8dispatchESt10shared_ptrINS_17SerializedMessageEERKNS_11MessageInfoEENKUlOT_E_clIRSt8functionIFvS7_IKS5_EEEEEDaSE_
FNDA:0,_ZZN6rclcpp23AnySubscriptionCallbackIN8nav_msgs3msg9Odometry_ISaIvEEES4_E8dispatchESt10shared_ptrINS_17SerializedMessageEERKNS_11MessageInfoEENKUlOT_E_clIRSt8functionIFvRKS8_SC_EEEEDaSE_
FNDA:0,_ZZN6rclcpp23AnySubscriptionCallbackIN8nav_msgs3msg9Odometry_ISaIvEEES4_E29register_callback_for_tracingEvENKUlOT_E_clIRSt8functionIFvSt10shared_ptrIKS5_EEEEEDaS8_
FNDA:0,_ZZN6rclcpp23AnySubscriptionCallbackIN8nav_msgs3msg9Odometry_ISaIvEEES4_E22dispatch_intra_processESt10shared_ptrIKS5_ERKNS_11MessageInfoEENKUlOT_E_clIRSt8functionIFvSt10unique_ptrINS_17SerializedMessageESt14default_deleteISJ_EESC_EEEEDaSE_
FNDA:0,_ZZN6rclcpp23AnySubscriptionCallbackIN8nav_msgs3msg9Odometry_ISaIvEEES4_E8dispatchESt10shared_ptrIS5_ERKNS_11MessageInfoEENKUlOT_E_clIRSt8functionIFvRKNS_17SerializedMessageEEEEEDaSD_
FNDA:0,_ZN6rclcpp23AnySubscriptionCallbackIN8nav_msgs3msg9Odometry_ISaIvEEES4_EC2ERKS6_
FNDA:0,_ZZN6rclcpp23AnySubscriptionCallbackIN8nav_msgs3msg9Odometry_ISaIvEEES4_E8dispatchESt10shared_ptrIS5_ERKNS_11MessageInfoEENKUlOT_E_clIRSt8functionIFvS7_INS_17SerializedMessageEESB_EEEEDaSD_
FNDA:0,_ZZN6rclcpp23AnySubscriptionCallbackIN8nav_msgs3msg9Odometry_ISaIvEEES4_E29register_callback_for_tracingEvENKUlOT_E_clIRSt8functionIFvSt10shared_ptrINS_17SerializedMessageEERKNS_11MessageInfoEEEEEDaS8_
FNDA:0,_ZZN6rclcpp23AnySubscriptionCallbackIN8nav_msgs3msg9Odometry_ISaIvEEES4_E29register_callback_for_tracingEvENKUlOT_E_clIRSt8functionIFvRKSt10shared_ptrIKS5_ERKNS_11MessageInfoEEEEEDaS8_
FNDA:0,_ZZN6rclcpp23AnySubscriptionCallbackIN8nav_msgs3msg9Odometry_ISaIvEEES4_E8dispatchESt10shared_ptrINS_17SerializedMessageEERKNS_11MessageInfoEENKUlOT_E_clIRSt8functionIFvRKS5_SC_EEEEDaSE_
FNDA:0,_ZZN6rclcpp23AnySubscriptionCallbackIN8nav_msgs3msg9Odometry_ISaIvEEES4_E8dispatchESt10shared_ptrIS5_ERKNS_11MessageInfoEENKUlOT_E_clIRSt8functionIFvRKS7_IKNS_17SerializedMessageEESB_EEEEDaSD_
FNDA:0,_ZZN6rclcpp23AnySubscriptionCallbackIN8nav_msgs3msg9Odometry_ISaIvEEES4_E8dispatchESt10shared_ptrIS5_ERKNS_11MessageInfoEENKUlOT_E_clIRSt8functionIFvSt10unique_ptrIS5_St14default_deleteIS5_EEEEEEDaSD_
FNDA:0,_ZZN6rclcpp23AnySubscriptionCallbackIN8nav_msgs3msg9Odometry_ISaIvEEES4_E29register_callback_for_tracingEvENKUlOT_E_clIRSt8functionIFvSt10shared_ptrIS5_ERKNS_11MessageInfoEEEEEDaS8_
FNDA:0,_ZZN6rclcpp23AnySubscriptionCallbackIN8nav_msgs3msg9Odometry_ISaIvEEES4_E8dispatchESt10shared_ptrINS_17SerializedMessageEERKNS_11MessageInfoEENKUlOT_E_clIRSt8functionIFvS7_IKS8_EEEEEDaSE_
FNDA:0,_ZZN6rclcpp23AnySubscriptionCallbackIN8nav_msgs3msg9Odometry_ISaIvEEES4_E8dispatchESt10shared_ptrINS_17SerializedMessageEERKNS_11MessageInfoEENKUlOT_E_clIRSt8functionIFvS7_IKS8_ESC_EEEEDaSE_
FNDA:0,_ZZN6rclcpp23AnySubscriptionCallbackIN8nav_msgs3msg9Odometry_ISaIvEEES4_E22dispatch_intra_processESt10unique_ptrIS5_St14default_deleteIS5_EERKNS_11MessageInfoEENKUlOT_E_clIRSt8functionIFvS7_INS_17SerializedMessageES8_ISJ_EESD_EEEEDaSF_
FNDA:0,_ZZN6rclcpp23AnySubscriptionCallbackIN8nav_msgs3msg9Odometry_ISaIvEEES4_E22dispatch_intra_processESt10shared_ptrIKS5_ERKNS_11MessageInfoEENKUlOT_E_clIRSt8functionIFvRKS9_EEEEDaSE_
FNDA:0,_ZZN6rclcpp23AnySubscriptionCallbackIN8nav_msgs3msg9Odometry_ISaIvEEES4_E8dispatchESt10shared_ptrIS5_ERKNS_11MessageInfoEENKUlOT_E_clIRSt8functionIFvS7_IKNS_17SerializedMessageEESB_EEEEDaSD_
FNDA:0,_ZZN6rclcpp23AnySubscriptionCallbackIN8nav_msgs3msg9Odometry_ISaIvEEES4_E22dispatch_intra_processESt10shared_ptrIKS5_ERKNS_11MessageInfoEENKUlOT_E_clIRSt8functionIFvS7_IS5_EEEEEDaSE_
FNDA:0,_ZZN6rclcpp23AnySubscriptionCallbackIN8nav_msgs3msg9Odometry_ISaIvEEES4_E8dispatchESt10shared_ptrIS5_ERKNS_11MessageInfoEENKUlOT_E_clIRSt8functionIFvS7_INS_17SerializedMessageEEEEEEDaSD_
FNDA:0,_ZZN6rclcpp23AnySubscriptionCallbackIN8nav_msgs3msg9Odometry_ISaIvEEES4_E8dispatchESt10shared_ptrIS5_ERKNS_11MessageInfoEENKUlOT_E_clIRSt8functionIFvRKS5_SB_EEEEDaSD_
FNDA:0,_ZZN6rclcpp23AnySubscriptionCallbackIN8nav_msgs3msg9Odometry_ISaIvEEES4_E8dispatchESt10shared_ptrINS_17SerializedMessageEERKNS_11MessageInfoEENKUlOT_E_clIRSt8functionIFvS7_IKS5_ESC_EEEEDaSE_
FNDA:0,_ZZN6rclcpp23AnySubscriptionCallbackIN8nav_msgs3msg9Odometry_ISaIvEEES4_E8dispatchESt10shared_ptrINS_17SerializedMessageEERKNS_11MessageInfoEENKUlOT_E_clIRSt8functionIFvS9_EEEEDaSE_
FNDA:0,_ZZN6rclcpp23AnySubscriptionCallbackIN8nav_msgs3msg9Odometry_ISaIvEEES4_E22dispatch_intra_processESt10shared_ptrIKS5_ERKNS_11MessageInfoEENKUlOT_E_clIRSt8functionIFvS7_INS_17SerializedMessageEEEEEEDaSE_
FNDA:0,_ZZN6rclcpp23AnySubscriptionCallbackIN8nav_msgs3msg9Odometry_ISaIvEEES4_E22dispatch_intra_processESt10shared_ptrIKS5_ERKNS_11MessageInfoEENKUlOT_E_clIRSt8functionIFvS7_IKNS_17SerializedMessageEEEEEEDaSE_
FNDA:0,_ZZN6rclcpp23AnySubscriptionCallbackIN8nav_msgs3msg9Odometry_ISaIvEEES4_E22dispatch_intra_processESt10shared_ptrIKS5_ERKNS_11MessageInfoEENKUlOT_E_clIRSt8functionIFvRKNS_17SerializedMessageESC_EEEEDaSE_
FNDA:0,_ZZN6rclcpp23AnySubscriptionCallbackIN8nav_msgs3msg9Odometry_ISaIvEEES4_E22dispatch_intra_processESt10shared_ptrIKS5_ERKNS_11MessageInfoEENKUlOT_E_clIRSt8functionIFvSt10unique_ptrIS5_St14default_deleteIS5_EESC_EEEEDaSE_
FNDA:0,_ZZN6rclcpp23AnySubscriptionCallbackIN8nav_msgs3msg9Odometry_ISaIvEEES4_E8dispatchESt10shared_ptrINS_17SerializedMessageEERKNS_11MessageInfoEENKUlOT_E_clIRSt8functionIFvRKS5_EEEEDaSE_
FNDA:0,_ZZN6rclcpp23AnySubscriptionCallbackIN8nav_msgs3msg9Odometry_ISaIvEEES4_E22dispatch_intra_processESt10unique_ptrIS5_St14default_deleteIS5_EERKNS_11MessageInfoEENKUlOT_E_clIRSt8functionIFvSt10shared_ptrIS5_EEEEEDaSF_
FNDA:0,_ZZN6rclcpp23AnySubscriptionCallbackIN8nav_msgs3msg9Odometry_ISaIvEEES4_E22dispatch_intra_processESt10shared_ptrIKS5_ERKNS_11MessageInfoEENKUlOT_E_clIRSt8functionIFvS7_INS_17SerializedMessageEESC_EEEEDaSE_
FNDA:0,_ZN6rclcpp23AnySubscriptionCallbackIN8nav_msgs3msg9Odometry_ISaIvEEES4_E8dispatchESt10shared_ptrIS5_ERKNS_11MessageInfoE
FNDA:0,_ZZN6rclcpp23AnySubscriptionCallbackIN8nav_msgs3msg9Odometry_ISaIvEEES4_E8dispatchESt10shared_ptrINS_17SerializedMessageEERKNS_11MessageInfoEENKUlOT_E_clIRSt8functionIFvSt10unique_ptrIS8_St14default_deleteIS8_EEEEEEDaSE_
FNDA:0,_ZZN6rclcpp23AnySubscriptionCallbackIN8nav_msgs3msg9Odometry_ISaIvEEES4_E8dispatchESt10shared_ptrIS5_ERKNS_11MessageInfoEENKUlOT_E_clIRSt8functionIFvSt10unique_ptrINS_17SerializedMessageESt14default_deleteISI_EESB_EEEEDaSD_
FNDA:0,_ZZN6rclcpp23AnySubscriptionCallbackIN8nav_msgs3msg9Odometry_ISaIvEEES4_E29register_callback_for_tracingEvENKUlOT_E_clIRSt8functionIFvSt10shared_ptrIKNS_17SerializedMessageEERKNS_11MessageInfoEEEEEDaS8_
FNDA:0,_ZZN6rclcpp23AnySubscriptionCallbackIN8nav_msgs3msg9Odometry_ISaIvEEES4_E8dispatchESt10shared_ptrIS5_ERKNS_11MessageInfoEENKUlOT_E_clIRSt8functionIFvRKS5_EEEEDaSD_
FNDA:0,_ZZN6rclcpp23AnySubscriptionCallbackIN8nav_msgs3msg9Odometry_ISaIvEEES4_E29register_callback_for_tracingEvENKUlOT_E_clIRSt8functionIFvSt10unique_ptrIS5_St14default_deleteIS5_EERKNS_11MessageInfoEEEEEDaS8_
FNDA:0,_ZN6rclcpp23AnySubscriptionCallbackIN8nav_msgs3msg9Odometry_ISaIvEEES4_E52create_serialized_message_unique_ptr_from_shared_ptrERKSt10shared_ptrIKNS_17SerializedMessageEE
FNDA:0,_ZZN6rclcpp23AnySubscriptionCallbackIN8nav_msgs3msg9Odometry_ISaIvEEES4_E8dispatchESt10shared_ptrINS_17SerializedMessageEERKNS_11MessageInfoEENKUlOT_E_clIRSt8functionIFvSt10unique_ptrIS5_St14default_deleteIS5_EESC_EEEEDaSE_
FNDA:0,_ZZN6rclcpp23AnySubscriptionCallbackIN8nav_msgs3msg9Odometry_ISaIvEEES4_E8dispatchESt10shared_ptrINS_17SerializedMessageEERKNS_11MessageInfoEENKUlOT_E_clIRSt8functionIFvSt10unique_ptrIS5_St14default_deleteIS5_EEEEEEDaSE_
FNDA:0,_ZN6rclcpp23AnySubscriptionCallbackIN8nav_msgs3msg9Odometry_ISaIvEEES4_EC2ERKS4_
FNDA:0,_ZZN6rclcpp23AnySubscriptionCallbackIN8nav_msgs3msg9Odometry_ISaIvEEES4_E29register_callback_for_tracingEvENKUlOT_E_clIRSt8functionIFvSt10unique_ptrINS_17SerializedMessageESt14default_deleteISD_EERKNS_11MessageInfoEEEEEDaS8_
FNDA:0,_ZZN6rclcpp23AnySubscriptionCallbackIN8nav_msgs3msg9Odometry_ISaIvEEES4_E29register_callback_for_tracingEvENKUlOT_E_clIRSt8functionIFvSt10shared_ptrIKS5_ERKNS_11MessageInfoEEEEEDaS8_
FNDA:0,_ZZN6rclcpp23AnySubscriptionCallbackIN8nav_msgs3msg9Odometry_ISaIvEEES4_E8dispatchESt10shared_ptrIS5_ERKNS_11MessageInfoEENKUlOT_E_clIRSt8functionIFvS8_SB_EEEEDaSD_
FNDA:0,_ZZN6rclcpp23AnySubscriptionCallbackIN8nav_msgs3msg9Odometry_ISaIvEEES4_E8dispatchESt10shared_ptrINS_17SerializedMessageEERKNS_11MessageInfoEENKUlOT_E_clIRSt8functionIFvS9_SC_EEEEDaSE_
FNDA:0,_ZZN6rclcpp23AnySubscriptionCallbackIN8nav_msgs3msg9Odometry_ISaIvEEES4_E8dispatchESt10shared_ptrIS5_ERKNS_11MessageInfoEENKUlOT_E_clIRSt8functionIFvS7_IKS5_EEEEEDaSD_
FNDA:0,_ZZN6rclcpp23AnySubscriptionCallbackIN8nav_msgs3msg9Odometry_ISaIvEEES4_E22dispatch_intra_processESt10unique_ptrIS5_St14default_deleteIS5_EERKNS_11MessageInfoEENKUlOT_E_clIRSt8functionIFvSA_SD_EEEEDaSF_
FNDA:0,_ZZN6rclcpp23AnySubscriptionCallbackIN8nav_msgs3msg9Odometry_ISaIvEEES4_E8dispatchESt10shared_ptrINS_17SerializedMessageEERKNS_11MessageInfoEENKUlOT_E_clIRSt8functionIFvRKS7_IKS8_EEEEEDaSE_
FNDA:0,_ZZN6rclcpp23AnySubscriptionCallbackIN8nav_msgs3msg9Odometry_ISaIvEEES4_E22dispatch_intra_processESt10unique_ptrIS5_St14default_deleteIS5_EERKNS_11MessageInfoEENKUlOT_E_clIRSt8functionIFvS7_INS_17SerializedMessageES8_ISJ_EEEEEEDaSF_
FNDA:0,_ZZN6rclcpp23AnySubscriptionCallbackIN8nav_msgs3msg9Odometry_ISaIvEEES4_E29register_callback_for_tracingEvENKUlOT_E_clIRSt8functionIFvRKNS_17SerializedMessageEEEEEDaS8_
FNDA:0,_ZZN6rclcpp23AnySubscriptionCallbackIN8nav_msgs3msg9Odometry_ISaIvEEES4_E29register_callback_for_tracingEvENKUlOT_E_clIRSt8functionIFvRKSt10shared_ptrIKNS_17SerializedMessageEEEEEEDaS8_
FNDA:0,_ZN6rclcpp23AnySubscriptionCallbackIN8nav_msgs3msg9Odometry_ISaIvEEES4_E22dispatch_intra_processESt10unique_ptrIS5_St14default_deleteIS5_EERKNS_11MessageInfoE
FNF:113
FNH:0
DA:349,0
DA:350,0
DA:351,0
DA:353,0
DA:354,0
DA:355,0
DA:357,0
DA:367,0
DA:376,0
DA:391,0
DA:398,0
DA:408,0
DA:410,0
DA:411,0
DA:428,0
DA:431,0
DA:432,0
DA:433,0
DA:437,0
DA:440,0
DA:441,0
DA:442,0
DA:446,0
DA:491,0
DA:495,0
DA:497,0
DA:498,0
DA:500,0
DA:504,0
DA:505,0
DA:544,0
DA:546,0
DA:548,0
DA:550,0
DA:556,0
DA:562,0
DA:577,0
DA:585,0
DA:586,0
DA:587,0
DA:591,0
DA:595,0
DA:597,0
DA:598,0
DA:600,0
DA:604,0
DA:605,0
DA:610,0
DA:612,0
DA:614,0
DA:616,0
DA:624,0
DA:630,0
DA:657,0
DA:665,0
DA:666,0
DA:667,0
DA:670,0
DA:674,0
DA:676,0
DA:677,0
DA:679,0
DA:683,0
DA:684,0
DA:728,0
DA:735,0
DA:744,0
DA:753,0
DA:762,0
DA:771,0
DA:787,0
DA:795,0
DA:796,0
DA:797,0
DA:800,0
DA:804,0
DA:806,0
DA:807,0
DA:809,0
DA:813,0
DA:814,0
DA:862,0
DA:869,0
DA:878,0
DA:887,0
DA:896,0
DA:905,0
DA:921,0
DA:929,0
DA:930,0
DA:931,0
DA:935,0
DA:938,0
DA:939,0
DA:940,0
DA:941,0
DA:946,0
DA:949,0
DA:950,0
DA:951,0
DA:952,0
DA:953,0
DA:957,0
DA:960,0
DA:961,0
DA:962,0
DA:966,0
DA:968,0
LF:108
LH:0
end_of_record
TN:
SF:/opt/ros/humble/include/rclcpp/rclcpp/context.hpp
FN:328,_ZN6rclcpp7Context15get_sub_contextINS_12experimental19IntraProcessManagerEJEEESt10shared_ptrIT_EDpOT0_
FN:339,_ZZN6rclcpp7Context15get_sub_contextINS_12experimental19IntraProcessManagerEJEEESt10shared_ptrIT_EDpOT0_ENKUlPS3_E_clESA_
FNDA:0,_ZN6rclcpp7Context15get_sub_contextINS_12experimental19IntraProcessManagerEJEEESt10shared_ptrIT_EDpOT0_
FNDA:0,_ZZN6rclcpp7Context15get_sub_contextINS_12experimental19IntraProcessManagerEJEEESt10shared_ptrIT_EDpOT0_ENKUlPS3_E_clESA_
FNF:2
FNH:0
DA:328,0
DA:330,0
DA:332,0
DA:333,0
DA:334,0
DA:335,0
DA:337,0
DA:338,0
DA:339,0
DA:340,0
DA:342,0
DA:345,0
DA:347,0
DA:348,0
LF:14
LH:0
end_of_record
TN:
SF:/opt/ros/humble/include/rclcpp/rclcpp/create_publisher.hpp
FN:46,_ZN6rclcpp6detail16create_publisherIN15statistics_msgs3msg15MetricsMessage_ISaIvEEES5_NS_9PublisherIS6_S5_EENS_4NodeESt10shared_ptrINS_15node_interfaces19NodeTopicsInterfaceEEEESA_IT1_ERT2_RT3_RKNSt7__cxx1112basic_stringIcSt11char_traitsIcESaIcEEERKNS_3QoSERKNS_29PublisherOptionsWithAllocatorIT0_EE
FN:46,_ZN6rclcpp6detail16create_publisherIN13geometry_msgs3msg6Twist_ISaIvEEES5_NS_9PublisherIS6_S5_EENS_4NodeES9_EESt10shared_ptrIT1_ERT2_RT3_RKNSt7__cxx1112basic_stringIcSt11char_traitsIcESaIcEEERKNS_3QoSERKNS_29PublisherOptionsWithAllocatorIT0_EE
FN:46,_ZN6rclcpp6detail16create_publisherIN13geometry_msgs3msg12PoseStamped_ISaIvEEES5_NS_9PublisherIS6_S5_EENS_4NodeES9_EESt10shared_ptrIT1_ERT2_RT3_RKNSt7__cxx1112basic_stringIcSt11char_traitsIcESaIcEEERKNS_3QoSERKNS_29PublisherOptionsWithAllocatorIT0_EE
FN:94,_ZN6rclcpp16create_publisherIN13geometry_msgs3msg6Twist_ISaIvEEES4_NS_9PublisherIS5_S4_EERNS_4NodeEEESt10shared_ptrIT1_EOT2_RKNSt7__cxx1112basic_stringIcSt11char_traitsIcESaIcEEERKNS_3QoSERKNS_29PublisherOptionsWithAllocatorIT0_EE
FN:94,_ZN6rclcpp16create_publisherIN13geometry_msgs3msg12PoseStamped_ISaIvEEES4_NS_9PublisherIS5_S4_EERNS_4NodeEEESt10shared_ptrIT1_EOT2_RKNSt7__cxx1112basic_stringIcSt11char_traitsIcESaIcEEERKNS_3QoSERKNS_29PublisherOptionsWithAllocatorIT0_EE
FNDA:0,_ZN6rclcpp6detail16create_publisherIN13geometry_msgs3msg6Twist_ISaIvEEES5_NS_9PublisherIS6_S5_EENS_4NodeES9_EESt10shared_ptrIT1_ERT2_RT3_RKNSt7__cxx1112basic_stringIcSt11char_traitsIcESaIcEEERKNS_3QoSERKNS_29PublisherOptionsWithAllocatorIT0_EE
FNDA:0,_ZN6rclcpp16create_publisherIN13geometry_msgs3msg12PoseStamped_ISaIvEEES4_NS_9PublisherIS5_S4_EERNS_4NodeEEESt10shared_ptrIT1_EOT2_RKNSt7__cxx1112basic_stringIcSt11char_traitsIcESaIcEEERKNS_3QoSERKNS_29PublisherOptionsWithAllocatorIT0_EE
FNDA:0,_ZN6rclcpp6detail16create_publisherIN13geometry_msgs3msg12PoseStamped_ISaIvEEES5_NS_9PublisherIS6_S5_EENS_4NodeES9_EESt10shared_ptrIT1_ERT2_RT3_RKNSt7__cxx1112basic_stringIcSt11char_traitsIcESaIcEEERKNS_3QoSERKNS_29PublisherOptionsWithAllocatorIT0_EE
FNDA:0,_ZN6rclcpp16create_publisherIN13geometry_msgs3msg6Twist_ISaIvEEES4_NS_9PublisherIS5_S4_EERNS_4NodeEEESt10shared_ptrIT1_EOT2_RKNSt7__cxx1112basic_stringIcSt11char_traitsIcESaIcEEERKNS_3QoSERKNS_29PublisherOptionsWithAllocatorIT0_EE
FNDA:0,_ZN6rclcpp6detail16create_publisherIN15statistics_msgs3msg15MetricsMessage_ISaIvEEES5_NS_9PublisherIS6_S5_EENS_4NodeESt10shared_ptrINS_15node_interfaces19NodeTopicsInterfaceEEEESA_IT1_ERT2_RT3_RKNSt7__cxx1112basic_stringIcSt11char_traitsIcESaIcEEERKNS_3QoSERKNS_29PublisherOptionsWithAllocatorIT0_EE
FNF:5
FNH:0
DA:46,0
DA:56,0
DA:57,0
DA:58,0
DA:59,0
DA:60,0
DA:65,0
DA:72,0
DA:74,0
DA:75,0
DA:94,0
DA:104,0
LF:12
LH:0
end_of_record
TN:
SF:/opt/ros/humble/include/rclcpp/rclcpp/create_subscription.hpp
FN:56,_ZN6rclcpp6detail19create_subscriptionIN8nav_msgs3msg9Odometry_ISaIvEEESt5_BindIFM12InspectorBotFvSt10shared_ptrIS6_EEPS8_St12_PlaceholderILi1EEEES5_NS_12SubscriptionIS6_S5_S6_S6_NS_23message_memory_strategy21MessageMemoryStrategyIS6_S5_EEEESL_NS_4NodeESN_S6_EES9_IT2_ERT4_RT5_RKNSt7__cxx1112basic_stringIcSt11char_traitsIcESaIcEEERKNS_3QoSEOT0_RKNS_32SubscriptionOptionsWithAllocatorIT1_EENT3_9SharedPtrE
FN:101,_ZZN6rclcpp6detail19create_subscriptionIN8nav_msgs3msg9Odometry_ISaIvEEESt5_BindIFM12InspectorBotFvSt10shared_ptrIS6_EEPS8_St12_PlaceholderILi1EEEES5_NS_12SubscriptionIS6_S5_S6_S6_NS_23message_memory_strategy21MessageMemoryStrategyIS6_S5_EEEESL_NS_4NodeESN_S6_EES9_IT2_ERT4_RT5_RKNSt7__cxx1112basic_stringIcSt11char_traitsIcESaIcEEERKNS_3QoSEOT0_RKNS_32SubscriptionOptionsWithAllocatorIT1_EENT3_9SharedPtrEENKUlvE_clEv
FN:177,_ZN6rclcpp19create_subscriptionIN8nav_msgs3msg9Odometry_ISaIvEEESt5_BindIFM12InspectorBotFvSt10shared_ptrIS5_EEPS7_St12_PlaceholderILi1EEEES4_NS_12SubscriptionIS5_S4_S5_S5_NS_23message_memory_strategy21MessageMemoryStrategyIS5_S4_EEEESK_NS_4NodeEEES8_IT2_ERT4_RKNSt7__cxx1112basic_stringIcSt11char_traitsIcESaIcEEERKNS_3QoSEOT0_RKNS_32SubscriptionOptionsWithAllocatorIT1_EENT3_9SharedPtrE
FNDA:0,_ZN6rclcpp6detail19create_subscriptionIN8nav_msgs3msg9Odometry_ISaIvEEESt5_BindIFM12InspectorBotFvSt10shared_ptrIS6_EEPS8_St12_PlaceholderILi1EEEES5_NS_12SubscriptionIS6_S5_S6_S6_NS_23message_memory_strategy21MessageMemoryStrategyIS6_S5_EEEESL_NS_4NodeESN_S6_EES9_IT2_ERT4_RT5_RKNSt7__cxx1112basic_stringIcSt11char_traitsIcESaIcEEERKNS_3QoSEOT0_RKNS_32SubscriptionOptionsWithAllocatorIT1_EENT3_9SharedPtrE
FNDA:0,_ZZN6rclcpp6detail19create_subscriptionIN8nav_msgs3msg9Odometry_ISaIvEEESt5_BindIFM12InspectorBotFvSt10shared_ptrIS6_EEPS8_St12_PlaceholderILi1EEEES5_NS_12SubscriptionIS6_S5_S6_S6_NS_23message_memory_strategy21MessageMemoryStrategyIS6_S5_EEEESL_NS_4NodeESN_S6_EES9_IT2_ERT4_RT5_RKNSt7__cxx1112basic_stringIcSt11char_traitsIcESaIcEEERKNS_3QoSEOT0_RKNS_32SubscriptionOptionsWithAllocatorIT1_EENT3_9SharedPtrEENKUlvE_clEv
FNDA:0,_ZN6rclcpp19create_subscriptionIN8nav_msgs3msg9Odometry_ISaIvEEESt5_BindIFM12InspectorBotFvSt10shared_ptrIS5_EEPS7_St12_PlaceholderILi1EEEES4_NS_12SubscriptionIS5_S4_S5_S5_NS_23message_memory_strategy21MessageMemoryStrategyIS5_S4_EEEESK_NS_4NodeEEES8_IT2_ERT4_RKNSt7__cxx1112basic_stringIcSt11char_traitsIcESaIcEEERKNS_3QoSEOT0_RKNS_32SubscriptionOptionsWithAllocatorIT1_EENT3_9SharedPtrE
FNF:3
FNH:0
DA:56,0
DA:71,0
DA:74,0
DA:76,0
DA:78,0
DA:80,0
DA:81,0
DA:88,0
DA:91,0
DA:94,0
DA:96,0
DA:100,0
DA:101,0
DA:102,0
DA:103,0
DA:104,0
DA:106,0
DA:108,0
DA:110,0
DA:112,0
DA:114,0
DA:115,0
DA:119,0
DA:120,0
DA:122,0
DA:129,0
DA:130,0
DA:131,0
DA:132,0
DA:136,0
DA:137,0
DA:139,0
DA:140,0
DA:177,0
DA:192,0
LF:35
LH:0
end_of_record
TN:
SF:/opt/ros/humble/include/rclcpp/rclcpp/create_timer.hpp
FN:90,_ZN6rclcpp17create_wall_timerIlSt5ratioILl1ELl1000000000EEZNS_6detail19create_subscriptionIN8nav_msgs3msg9Odometry_ISaIvEEESt5_BindIFM12InspectorBotFvSt10shared_ptrIS9_EEPSB_St12_PlaceholderILi1EEEES8_NS_12SubscriptionIS9_S8_S9_S9_NS_23message_memory_strategy21MessageMemoryStrategyIS9_S8_EEEESO_NS_4NodeESQ_S9_EESC_IT2_ERT4_RT5_RKNSt7__cxx1112basic_stringIcSt11char_traitsIcESaIcEEERKNS_3QoSEOT0_RKNS_32SubscriptionOptionsWithAllocatorIT1_EENT3_9SharedPtrEEUlvE_EENS_9WallTimerIS1B_XLDnEEE9SharedPtrENSt6chrono8durationIT_S18_EES1B_SC_INS_13CallbackGroupEEPNS_15node_interfaces17NodeBaseInterfaceEPNS1R_19NodeTimersInterfaceE
FNDA:0,_ZN6rclcpp17create_wall_timerIlSt5ratioILl1ELl1000000000EEZNS_6detail19create_subscriptionIN8nav_msgs3msg9Odometry_ISaIvEEESt5_BindIFM12InspectorBotFvSt10shared_ptrIS9_EEPSB_St12_PlaceholderILi1EEEES8_NS_12SubscriptionIS9_S8_S9_S9_NS_23message_memory_strategy21MessageMemoryStrategyIS9_S8_EEEESO_NS_4NodeESQ_S9_EESC_IT2_ERT4_RT5_RKNSt7__cxx1112basic_stringIcSt11char_traitsIcESaIcEEERKNS_3QoSEOT0_RKNS_32SubscriptionOptionsWithAllocatorIT1_EENT3_9SharedPtrEEUlvE_EENS_9WallTimerIS1B_XLDnEEE9SharedPtrENSt6chrono8durationIT_S18_EES1B_SC_INS_13CallbackGroupEEPNS_15node_interfaces17NodeBaseInterfaceEPNS1R_19NodeTimersInterfaceE
FNF:1
FNH:0
DA:90,0
DA:97,0
DA:98,0
DA:101,0
DA:102,0
DA:105,0
DA:106,0
DA:111,0
DA:121,0
DA:124,0
DA:125,0
DA:129,0
DA:130,0
DA:131,0
DA:135,0
DA:136,0
DA:137,0
DA:138,0
DA:139,0
LF:19
LH:0
end_of_record
TN:
SF:/opt/ros/humble/include/rclcpp/rclcpp/detail/cpp_callback_trampoline.hpp
FN:58,_ZN6rclcpp6detail23cpp_callback_trampolineIPKvJmEvEET1_T_DpT0_
FNDA:0,_ZN6rclcpp6detail23cpp_callback_trampolineIPKvJmEvEET1_T_DpT0_
FNF:1
FNH:0
DA:58,0
DA:60,0
DA:61,0
LF:3
LH:0
end_of_record
TN:
SF:/opt/ros/humble/include/rclcpp/rclcpp/detail/qos_parameters.hpp
FN:44,_ZN6rclcpp6detail28PublisherQosParametersTraits11entity_typeEv
FN:64,_ZN6rclcpp6detail31SubscriptionQosParametersTraits11entity_typeEv
FN:93,_ZN6rclcpp6detail24declare_parameter_or_getERNS_15node_interfaces23NodeParametersInterfaceERKNSt7__cxx1112basic_stringIcSt11char_traitsIcESaIcEEENS_14ParameterValueEN14rcl_interfaces3msg20ParameterDescriptor_ISaIvEEE
FN:138,_ZN6rclcpp6detail22declare_qos_parametersINS_4NodeENS0_28PublisherQosParametersTraitsEEENSt9enable_ifIXoosrNS_15node_interfaces29has_node_parameters_interfaceIDTcl7declvalIN9rcpputils14remove_pointerIT_E4typeEEEEvEE5valuesrSt7is_sameINSt5decayIS9_E4typeESt10shared_ptrINS5_23NodeParametersInterfaceEEE5valueENS_3QoSEE4typeERKNS_20QosOverridingOptionsERS9_RKNSt7__cxx1112basic_stringIcSt11char_traitsIcESaIcEEERKSM_T0_
FN:138,_ZN6rclcpp6detail22declare_qos_parametersINS_4NodeENS0_31SubscriptionQosParametersTraitsEEENSt9enable_ifIXoosrNS_15node_interfaces29has_node_parameters_interfaceIDTcl7declvalIN9rcpputils14remove_pointerIT_E4typeEEEEvEE5valuesrSt7is_sameINSt5decayIS9_E4typeESt10shared_ptrINS5_23NodeParametersInterfaceEEE5valueENS_3QoSEE4typeERKNS_20QosOverridingOptionsERS9_RKNSt7__cxx1112basic_stringIcSt11char_traitsIcESaIcEEERKSM_T0_
FN:235,_ZN6rclcpp6detail18apply_qos_overrideENS_13QosPolicyKindENS_14ParameterValueERNS_3QoSE
FN:278,_ZN6rclcpp6detail23rmw_duration_to_int64_tE10rmw_time_s
FN:289,_ZN6rclcpp6detail35check_if_stringified_policy_is_nullEPKcNS_13QosPolicyKindE
FN:301,_ZN6rclcpp6detail27get_default_qos_param_valueENS_13QosPolicyKindERKNS_3QoSE
FNDA:0,_ZN6rclcpp6detail31SubscriptionQosParametersTraits11entity_typeEv
FNDA:0,_ZN6rclcpp6detail18apply_qos_overrideENS_13QosPolicyKindENS_14ParameterValueERNS_3QoSE
FNDA:0,_ZN6rclcpp6detail27get_default_qos_param_valueENS_13QosPolicyKindERKNS_3QoSE
FNDA:0,_ZN6rclcpp6detail35check_if_stringified_policy_is_nullEPKcNS_13QosPolicyKindE
FNDA:0,_ZN6rclcpp6detail24declare_parameter_or_getERNS_15node_interfaces23NodeParametersInterfaceERKNSt7__cxx1112basic_stringIcSt11char_traitsIcESaIcEEENS_14ParameterValueEN14rcl_interfaces3msg20ParameterDescriptor_ISaIvEEE
FNDA:0,_ZN6rclcpp6detail23rmw_duration_to_int64_tE10rmw_time_s
FNDA:0,_ZN6rclcpp6detail22declare_qos_parametersINS_4NodeENS0_31SubscriptionQosParametersTraitsEEENSt9enable_ifIXoosrNS_15node_interfaces29has_node_parameters_interfaceIDTcl7declvalIN9rcpputils14remove_pointerIT_E4typeEEEEvEE5valuesrSt7is_sameINSt5decayIS9_E4typeESt10shared_ptrINS5_23NodeParametersInterfaceEEE5valueENS_3QoSEE4typeERKNS_20QosOverridingOptionsERS9_RKNSt7__cxx1112basic_stringIcSt11char_traitsIcESaIcEEERKSM_T0_
FNDA:0,_ZN6rclcpp6detail28PublisherQosParametersTraits11entity_typeEv
FNDA:0,_ZN6rclcpp6detail22declare_qos_parametersINS_4NodeENS0_28PublisherQosParametersTraitsEEENSt9enable_ifIXoosrNS_15node_interfaces29has_node_parameters_interfaceIDTcl7declvalIN9rcpputils14remove_pointerIT_E4typeEEEEvEE5valuesrSt7is_sameINSt5decayIS9_E4typeESt10shared_ptrINS5_23NodeParametersInterfaceEEE5valueENS_3QoSEE4typeERKNS_20QosOverridingOptionsERS9_RKNSt7__cxx1112basic_stringIcSt11char_traitsIcESaIcEEERKSM_T0_
FNF:9
FNH:0
DA:44,0
DA:64,0
DA:93,0
DA:100,0
DA:101,0
DA:102,0
DA:103,0
DA:104,0
DA:138,0
DA:145,0
DA:146,0
DA:147,0
DA:149,0
DA:150,0
DA:151,0
DA:152,0
DA:154,0
DA:155,0
DA:156,0
DA:157,0
DA:159,0
DA:160,0
DA:161,0
DA:162,0
DA:164,0
DA:165,0
DA:166,0
DA:167,0
DA:168,0
DA:169,0
DA:171,0
DA:172,0
DA:173,0
DA:174,0
DA:175,0
DA:176,0
DA:177,0
DA:178,0
DA:181,0
DA:182,0
DA:184,0
DA:185,0
DA:186,0
DA:187,0
DA:188,0
DA:191,0
DA:192,0
DA:193,0
DA:235,0
DA:238,0
DA:239,0
DA:240,0
DA:241,0
DA:242,0
DA:243,0
DA:244,0
DA:245,0
DA:246,0
DA:248,0
DA:249,0
DA:250,0
DA:252,0
DA:253,0
DA:254,0
DA:255,0
DA:256,0
DA:257,0
DA:258,0
DA:259,0
DA:260,0
DA:262,0
DA:263,0
DA:264,0
DA:265,0
DA:266,0
DA:267,0
DA:269,0
DA:270,0
DA:271,0
DA:273,0
DA:278,0
DA:280,0
DA:281,0
DA:282,0
DA:283,0
DA:289,0
DA:291,0
DA:292,0
DA:293,0
DA:294,0
DA:295,0
DA:296,0
DA:301,0
DA:304,0
DA:305,0
DA:306,0
DA:307,0
DA:308,0
DA:309,0
DA:310,0
DA:313,0
DA:314,0
DA:317,0
DA:318,0
DA:319,0
DA:320,0
DA:321,0
DA:322,0
DA:325,0
DA:326,0
DA:327,0
DA:328,0
DA:331,0
DA:332,0
DA:333,0
LF:115
LH:0
end_of_record
TN:
SF:/opt/ros/humble/include/rclcpp/rclcpp/detail/resolve_enable_topic_statistics.hpp
FN:30,_ZN6rclcpp6detail31resolve_enable_topic_statisticsINS_32SubscriptionOptionsWithAllocatorISaIvEEENS_15node_interfaces17NodeBaseInterfaceEEEbRKT_RKT0_
FNDA:0,_ZN6rclcpp6detail31resolve_enable_topic_statisticsINS_32SubscriptionOptionsWithAllocatorISaIvEEENS_15node_interfaces17NodeBaseInterfaceEEEbRKT_RKT0_
FNF:1
FNH:0
DA:30,0
DA:33,0
DA:34,0
DA:35,0
DA:36,0
DA:37,0
DA:38,0
DA:39,0
DA:40,0
DA:41,0
DA:42,0
DA:43,0
DA:44,0
DA:47,0
LF:14
LH:0
end_of_record
TN:
SF:/opt/ros/humble/include/rclcpp/rclcpp/detail/resolve_intra_process_buffer_type.hpp
FN:32,_ZN6rclcpp6detail33resolve_intra_process_buffer_typeIN8nav_msgs3msg9Odometry_ISaIvEEES5_EENS_22IntraProcessBufferTypeES7_RKNS_23AnySubscriptionCallbackIT_T0_EE
FNDA:0,_ZN6rclcpp6detail33resolve_intra_process_buffer_typeIN8nav_msgs3msg9Odometry_ISaIvEEES5_EENS_22IntraProcessBufferTypeES7_RKNS_23AnySubscriptionCallbackIT_T0_EE
FNF:1
FNH:0
DA:32,0
DA:36,0
DA:39,0
DA:40,0
DA:41,0
DA:43,0
DA:47,0
LF:7
LH:0
end_of_record
TN:
SF:/opt/ros/humble/include/rclcpp/rclcpp/detail/resolve_use_intra_process.hpp
FN:31,_ZN6rclcpp6detail25resolve_use_intra_processINS_32SubscriptionOptionsWithAllocatorISaIvEEENS_15node_interfaces17NodeBaseInterfaceEEEbRKT_RKT0_
FN:31,_ZN6rclcpp6detail25resolve_use_intra_processINS_29PublisherOptionsWithAllocatorISaIvEEENS_15node_interfaces17NodeBaseInterfaceEEEbRKT_RKT0_
FNDA:0,_ZN6rclcpp6detail25resolve_use_intra_processINS_29PublisherOptionsWithAllocatorISaIvEEENS_15node_interfaces17NodeBaseInterfaceEEEbRKT_RKT0_
FNDA:0,_ZN6rclcpp6detail25resolve_use_intra_processINS_32SubscriptionOptionsWithAllocatorISaIvEEENS_15node_interfaces17NodeBaseInterfaceEEEbRKT_RKT0_
FNF:2
FNH:0
DA:31,0
DA:34,0
DA:35,0
DA:36,0
DA:37,0
DA:38,0
DA:39,0
DA:40,0
DA:41,0
DA:42,0
DA:43,0
DA:44,0
DA:45,0
DA:49,0
LF:14
LH:0
end_of_record
TN:
SF:/opt/ros/humble/include/rclcpp/rclcpp/duration.hpp
FN:63,_ZN6rclcpp8DurationD0Ev
FN:63,_ZN6rclcpp8DurationD2Ev
FNDA:0,_ZN6rclcpp8DurationD0Ev
FNDA:0,_ZN6rclcpp8DurationD2Ev
FNF:2
FNH:0
DA:63,0
LF:1
LH:0
end_of_record
TN:
SF:/opt/ros/humble/include/rclcpp/rclcpp/exceptions/exceptions.hpp
FN:142,_ZN6rclcpp10exceptions12RCLErrorBaseD2Ev
FN:142,_ZN6rclcpp10exceptions12RCLErrorBaseD0Ev
FNDA:0,_ZN6rclcpp10exceptions12RCLErrorBaseD2Ev
FNDA:0,_ZN6rclcpp10exceptions12RCLErrorBaseD0Ev
FNF:2
FNH:0
DA:142,0
LF:1
LH:0
end_of_record
TN:
SF:/opt/ros/humble/include/rclcpp/rclcpp/experimental/buffers/buffer_implementation_base.hpp
FN:29,_ZN6rclcpp12experimental7buffers24BufferImplementationBaseISt10shared_ptrIKN8nav_msgs3msg9Odometry_ISaIvEEEEED0Ev
FN:29,_ZN6rclcpp12experimental7buffers24BufferImplementationBaseISt10unique_ptrIN8nav_msgs3msg9Odometry_ISaIvEEESt14default_deleteIS8_EEED0Ev
FN:29,_ZN6rclcpp12experimental7buffers24BufferImplementationBaseISt10shared_ptrIKN8nav_msgs3msg9Odometry_ISaIvEEEEED2Ev
FN:29,_ZN6rclcpp12experimental7buffers24BufferImplementationBaseISt10unique_ptrIN8nav_msgs3msg9Odometry_ISaIvEEESt14default_deleteIS8_EEED2Ev
FNDA:0,_ZN6rclcpp12experimental7buffers24BufferImplementationBaseISt10unique_ptrIN8nav_msgs3msg9Odometry_ISaIvEEESt14default_deleteIS8_EEED0Ev
FNDA:0,_ZN6rclcpp12experimental7buffers24BufferImplementationBaseISt10shared_ptrIKN8nav_msgs3msg9Odometry_ISaIvEEEEED0Ev
FNDA:0,_ZN6rclcpp12experimental7buffers24BufferImplementationBaseISt10shared_ptrIKN8nav_msgs3msg9Odometry_ISaIvEEEEED2Ev
FNDA:0,_ZN6rclcpp12experimental7buffers24BufferImplementationBaseISt10unique_ptrIN8nav_msgs3msg9Odometry_ISaIvEEESt14default_deleteIS8_EEED2Ev
FNF:4
FNH:0
DA:29,0
LF:1
LH:0
end_of_record
TN:
SF:/opt/ros/humble/include/rclcpp/rclcpp/experimental/buffers/intra_process_buffer.hpp
FN:40,_ZN6rclcpp12experimental7buffers22IntraProcessBufferBaseD0Ev
FN:40,_ZN6rclcpp12experimental7buffers22IntraProcessBufferBaseD2Ev
FN:57,_ZN6rclcpp12experimental7buffers18IntraProcessBufferIN8nav_msgs3msg9Odometry_ISaIvEEESaIS7_ESt14default_deleteIS7_EED2Ev
FN:57,_ZN6rclcpp12experimental7buffers18IntraProcessBufferIN8nav_msgs3msg9Odometry_ISaIvEEESaIS7_ESt14default_deleteIS7_EED0Ev
FN:85,_ZN6rclcpp12experimental7buffers23TypedIntraProcessBufferIN8nav_msgs3msg9Odometry_ISaIvEEESaIS7_ESt14default_deleteIS7_ESt10unique_ptrIS7_SA_EEC2ESB_INS1_24BufferImplementationBaseISC_EES9_ISF_EESt10shared_ptrIS8_E
FN:85,_ZN6rclcpp12experimental7buffers23TypedIntraProcessBufferIN8nav_msgs3msg9Odometry_ISaIvEEESaIS7_ESt14default_deleteIS7_ESt10shared_ptrIKS7_EEC2ESt10unique_ptrINS1_24BufferImplementationBaseISD_EES9_ISH_EESB_IS8_E
FN:104,_ZN6rclcpp12experimental7buffers23TypedIntraProcessBufferIN8nav_msgs3msg9Odometry_ISaIvEEESaIS7_ESt14default_deleteIS7_ESt10unique_ptrIS7_SA_EED2Ev
FN:104,_ZN6rclcpp12experimental7buffers23TypedIntraProcessBufferIN8nav_msgs3msg9Odometry_ISaIvEEESaIS7_ESt14default_deleteIS7_ESt10shared_ptrIKS7_EED0Ev
FN:104,_ZN6rclcpp12experimental7buffers23TypedIntraProcessBufferIN8nav_msgs3msg9Odometry_ISaIvEEESaIS7_ESt14default_deleteIS7_ESt10shared_ptrIKS7_EED2Ev
FN:104,_ZN6rclcpp12experimental7buffers23TypedIntraProcessBufferIN8nav_msgs3msg9Odometry_ISaIvEEESaIS7_ESt14default_deleteIS7_ESt10unique_ptrIS7_SA_EED0Ev
FN:106,_ZN6rclcpp12experimental7buffers23TypedIntraProcessBufferIN8nav_msgs3msg9Odometry_ISaIvEEESaIS7_ESt14default_deleteIS7_ESt10unique_ptrIS7_SA_EE10add_sharedESt10shared_ptrIKS7_E
FN:106,_ZN6rclcpp12experimental7buffers23TypedIntraProcessBufferIN8nav_msgs3msg9Odometry_ISaIvEEESaIS7_ESt14default_deleteIS7_ESt10shared_ptrIKS7_EE10add_sharedESD_
FN:111,_ZN6rclcpp12experimental7buffers23TypedIntraProcessBufferIN8nav_msgs3msg9Odometry_ISaIvEEESaIS7_ESt14default_deleteIS7_ESt10unique_ptrIS7_SA_EE10add_uniqueESC_
FN:111,_ZN6rclcpp12experimental7buffers23TypedIntraProcessBufferIN8nav_msgs3msg9Odometry_ISaIvEEESaIS7_ESt14default_deleteIS7_ESt10shared_ptrIKS7_EE10add_uniqueESt10unique_ptrIS7_SA_E
FN:116,_ZN6rclcpp12experimental7buffers23TypedIntraProcessBufferIN8nav_msgs3msg9Odometry_ISaIvEEESaIS7_ESt14default_deleteIS7_ESt10unique_ptrIS7_SA_EE14consume_sharedEv
FN:116,_ZN6rclcpp12experimental7buffers23TypedIntraProcessBufferIN8nav_msgs3msg9Odometry_ISaIvEEESaIS7_ESt14default_deleteIS7_ESt10shared_ptrIKS7_EE14consume_sharedEv
FN:121,_ZN6rclcpp12experimental7buffers23TypedIntraProcessBufferIN8nav_msgs3msg9Odometry_ISaIvEEESaIS7_ESt14default_deleteIS7_ESt10shared_ptrIKS7_EE14consume_uniqueEv
FN:121,_ZN6rclcpp12experimental7buffers23TypedIntraProcessBufferIN8nav_msgs3msg9Odometry_ISaIvEEESaIS7_ESt14default_deleteIS7_ESt10unique_ptrIS7_SA_EE14consume_uniqueEv
FN:126,_ZNK6rclcpp12experimental7buffers23TypedIntraProcessBufferIN8nav_msgs3msg9Odometry_ISaIvEEESaIS7_ESt14default_deleteIS7_ESt10shared_ptrIKS7_EE8has_dataEv
FN:126,_ZNK6rclcpp12experimental7buffers23TypedIntraProcessBufferIN8nav_msgs3msg9Odometry_ISaIvEEESaIS7_ESt14default_deleteIS7_ESt10unique_ptrIS7_SA_EE8has_dataEv
FN:131,_ZN6rclcpp12experimental7buffers23TypedIntraProcessBufferIN8nav_msgs3msg9Odometry_ISaIvEEESaIS7_ESt14default_deleteIS7_ESt10unique_ptrIS7_SA_EE5clearEv
FN:131,_ZN6rclcpp12experimental7buffers23TypedIntraProcessBufferIN8nav_msgs3msg9Odometry_ISaIvEEESaIS7_ESt14default_deleteIS7_ESt10shared_ptrIKS7_EE5clearEv
FN:136,_ZNK6rclcpp12experimental7buffers23TypedIntraProcessBufferIN8nav_msgs3msg9Odometry_ISaIvEEESaIS7_ESt14default_deleteIS7_ESt10shared_ptrIKS7_EE22use_take_shared_methodEv
FN:136,_ZNK6rclcpp12experimental7buffers23TypedIntraProcessBufferIN8nav_msgs3msg9Odometry_ISaIvEEESaIS7_ESt14default_deleteIS7_ESt10unique_ptrIS7_SA_EE22use_take_shared_methodEv
FN:151,_ZN6rclcpp12experimental7buffers23TypedIntraProcessBufferIN8nav_msgs3msg9Odometry_ISaIvEEESaIS7_ESt14default_deleteIS7_ESt10shared_ptrIKS7_EE15add_shared_implISD_EENSt9enable_ifIXsrSt7is_sameIT_SD_E5valueEvE4typeESD_
FN:161,_ZN6rclcpp12experimental7buffers23TypedIntraProcessBufferIN8nav_msgs3msg9Odometry_ISaIvEEESaIS7_ESt14default_deleteIS7_ESt10unique_ptrIS7_SA_EE15add_shared_implISC_EENSt9enable_ifIXsrSt7is_sameIT_SC_E5valueEvE4typeESt10shared_ptrIKS7_E
FN:185,_ZN6rclcpp12experimental7buffers23TypedIntraProcessBufferIN8nav_msgs3msg9Odometry_ISaIvEEESaIS7_ESt14default_deleteIS7_ESt10shared_ptrIKS7_EE19consume_shared_implISD_EENSt9enable_ifIXsrSt7is_sameIT_SD_E5valueESD_E4typeEv
FN:196,_ZN6rclcpp12experimental7buffers23TypedIntraProcessBufferIN8nav_msgs3msg9Odometry_ISaIvEEESaIS7_ESt14default_deleteIS7_ESt10unique_ptrIS7_SA_EE19consume_shared_implISC_EENSt9enable_ifIXsrSt7is_sameIT_SC_E5valueESt10shared_ptrIKS7_EE4typeEv
FN:208,_ZN6rclcpp12experimental7buffers23TypedIntraProcessBufferIN8nav_msgs3msg9Odometry_ISaIvEEESaIS7_ESt14default_deleteIS7_ESt10shared_ptrIKS7_EE19consume_unique_implISD_EENSt9enable_ifIXsrSt7is_sameIT_SD_E5valueESt10unique_ptrIS7_SA_EE4typeEv
FN:231,_ZN6rclcpp12experimental7buffers23TypedIntraProcessBufferIN8nav_msgs3msg9Odometry_ISaIvEEESaIS7_ESt14default_deleteIS7_ESt10unique_ptrIS7_SA_EE19consume_unique_implISC_EENSt9enable_ifIXsrSt7is_sameIT_SC_E5valueESC_E4typeEv
FNDA:0,_ZNK6rclcpp12experimental7buffers23TypedIntraProcessBufferIN8nav_msgs3msg9Odometry_ISaIvEEESaIS7_ESt14default_deleteIS7_ESt10shared_ptrIKS7_EE8has_dataEv
FNDA:0,_ZN6rclcpp12experimental7buffers23TypedIntraProcessBufferIN8nav_msgs3msg9Odometry_ISaIvEEESaIS7_ESt14default_deleteIS7_ESt10unique_ptrIS7_SA_EE10add_sharedESt10shared_ptrIKS7_E
FNDA:0,_ZN6rclcpp12experimental7buffers18IntraProcessBufferIN8nav_msgs3msg9Odometry_ISaIvEEESaIS7_ESt14default_deleteIS7_EED2Ev
FNDA:0,_ZN6rclcpp12experimental7buffers23TypedIntraProcessBufferIN8nav_msgs3msg9Odometry_ISaIvEEESaIS7_ESt14default_deleteIS7_ESt10shared_ptrIKS7_EED0Ev
FNDA:0,_ZN6rclcpp12experimental7buffers23TypedIntraProcessBufferIN8nav_msgs3msg9Odometry_ISaIvEEESaIS7_ESt14default_deleteIS7_ESt10unique_ptrIS7_SA_EEC2ESB_INS1_24BufferImplementationBaseISC_EES9_ISF_EESt10shared_ptrIS8_E
FNDA:0,_ZN6rclcpp12experimental7buffers22IntraProcessBufferBaseD0Ev
FNDA:0,_ZN6rclcpp12experimental7buffers23TypedIntraProcessBufferIN8nav_msgs3msg9Odometry_ISaIvEEESaIS7_ESt14default_deleteIS7_ESt10shared_ptrIKS7_EEC2ESt10unique_ptrINS1_24BufferImplementationBaseISD_EES9_ISH_EESB_IS8_E
FNDA:0,_ZN6rclcpp12experimental7buffers23TypedIntraProcessBufferIN8nav_msgs3msg9Odometry_ISaIvEEESaIS7_ESt14default_deleteIS7_ESt10shared_ptrIKS7_EE10add_sharedESD_
FNDA:0,_ZNK6rclcpp12experimental7buffers23TypedIntraProcessBufferIN8nav_msgs3msg9Odometry_ISaIvEEESaIS7_ESt14default_deleteIS7_ESt10shared_ptrIKS7_EE22use_take_shared_methodEv
FNDA:0,_ZN6rclcpp12experimental7buffers23TypedIntraProcessBufferIN8nav_msgs3msg9Odometry_ISaIvEEESaIS7_ESt14default_deleteIS7_ESt10shared_ptrIKS7_EE14consume_uniqueEv
FNDA:0,_ZN6rclcpp12experimental7buffers23TypedIntraProcessBufferIN8nav_msgs3msg9Odometry_ISaIvEEESaIS7_ESt14default_deleteIS7_ESt10unique_ptrIS7_SA_EE14consume_sharedEv
FNDA:0,_ZN6rclcpp12experimental7buffers23TypedIntraProcessBufferIN8nav_msgs3msg9Odometry_ISaIvEEESaIS7_ESt14default_deleteIS7_ESt10unique_ptrIS7_SA_EE5clearEv
FNDA:0,_ZN6rclcpp12experimental7buffers23TypedIntraProcessBufferIN8nav_msgs3msg9Odometry_ISaIvEEESaIS7_ESt14default_deleteIS7_ESt10unique_ptrIS7_SA_EE15add_shared_implISC_EENSt9enable_ifIXsrSt7is_sameIT_SC_E5valueEvE4typeESt10shared_ptrIKS7_E
FNDA:0,_ZN6rclcpp12experimental7buffers23TypedIntraProcessBufferIN8nav_msgs3msg9Odometry_ISaIvEEESaIS7_ESt14default_deleteIS7_ESt10unique_ptrIS7_SA_EE19consume_unique_implISC_EENSt9enable_ifIXsrSt7is_sameIT_SC_E5valueESC_E4typeEv
FNDA:0,_ZN6rclcpp12experimental7buffers23TypedIntraProcessBufferIN8nav_msgs3msg9Odometry_ISaIvEEESaIS7_ESt14default_deleteIS7_ESt10unique_ptrIS7_SA_EED2Ev
FNDA:0,_ZN6rclcpp12experimental7buffers18IntraProcessBufferIN8nav_msgs3msg9Odometry_ISaIvEEESaIS7_ESt14default_deleteIS7_EED0Ev
FNDA:0,_ZN6rclcpp12experimental7buffers23TypedIntraProcessBufferIN8nav_msgs3msg9Odometry_ISaIvEEESaIS7_ESt14default_deleteIS7_ESt10shared_ptrIKS7_EE19consume_shared_implISD_EENSt9enable_ifIXsrSt7is_sameIT_SD_E5valueESD_E4typeEv
FNDA:0,_ZN6rclcpp12experimental7buffers23TypedIntraProcessBufferIN8nav_msgs3msg9Odometry_ISaIvEEESaIS7_ESt14default_deleteIS7_ESt10shared_ptrIKS7_EE19consume_unique_implISD_EENSt9enable_ifIXsrSt7is_sameIT_SD_E5valueESt10unique_ptrIS7_SA_EE4typeEv
FNDA:0,_ZN6rclcpp12experimental7buffers23TypedIntraProcessBufferIN8nav_msgs3msg9Odometry_ISaIvEEESaIS7_ESt14default_deleteIS7_ESt10shared_ptrIKS7_EE15add_shared_implISD_EENSt9enable_ifIXsrSt7is_sameIT_SD_E5valueEvE4typeESD_
FNDA:0,_ZN6rclcpp12experimental7buffers23TypedIntraProcessBufferIN8nav_msgs3msg9Odometry_ISaIvEEESaIS7_ESt14default_deleteIS7_ESt10shared_ptrIKS7_EE14consume_sharedEv
FNDA:0,_ZN6rclcpp12experimental7buffers23TypedIntraProcessBufferIN8nav_msgs3msg9Odometry_ISaIvEEESaIS7_ESt14default_deleteIS7_ESt10shared_ptrIKS7_EE10add_uniqueESt10unique_ptrIS7_SA_E
FNDA:0,_ZN6rclcpp12experimental7buffers23TypedIntraProcessBufferIN8nav_msgs3msg9Odometry_ISaIvEEESaIS7_ESt14default_deleteIS7_ESt10unique_ptrIS7_SA_EED0Ev
FNDA:0,_ZNK6rclcpp12experimental7buffers23TypedIntraProcessBufferIN8nav_msgs3msg9Odometry_ISaIvEEESaIS7_ESt14default_deleteIS7_ESt10unique_ptrIS7_SA_EE22use_take_shared_methodEv
FNDA:0,_ZN6rclcpp12experimental7buffers23TypedIntraProcessBufferIN8nav_msgs3msg9Odometry_ISaIvEEESaIS7_ESt14default_deleteIS7_ESt10unique_ptrIS7_SA_EE19consume_shared_implISC_EENSt9enable_ifIXsrSt7is_sameIT_SC_E5valueESt10shared_ptrIKS7_EE4typeEv
FNDA:0,_ZN6rclcpp12experimental7buffers23TypedIntraProcessBufferIN8nav_msgs3msg9Odometry_ISaIvEEESaIS7_ESt14default_deleteIS7_ESt10shared_ptrIKS7_EED2Ev
FNDA:0,_ZN6rclcpp12experimental7buffers23TypedIntraProcessBufferIN8nav_msgs3msg9Odometry_ISaIvEEESaIS7_ESt14default_deleteIS7_ESt10shared_ptrIKS7_EE5clearEv
FNDA:0,_ZN6rclcpp12experimental7buffers23TypedIntraProcessBufferIN8nav_msgs3msg9Odometry_ISaIvEEESaIS7_ESt14default_deleteIS7_ESt10unique_ptrIS7_SA_EE14consume_uniqueEv
FNDA:0,_ZN6rclcpp12experimental7buffers23TypedIntraProcessBufferIN8nav_msgs3msg9Odometry_ISaIvEEESaIS7_ESt14default_deleteIS7_ESt10unique_ptrIS7_SA_EE10add_uniqueESC_
FNDA:0,_ZNK6rclcpp12experimental7buffers23TypedIntraProcessBufferIN8nav_msgs3msg9Odometry_ISaIvEEESaIS7_ESt14default_deleteIS7_ESt10unique_ptrIS7_SA_EE8has_dataEv
FNDA:0,_ZN6rclcpp12experimental7buffers22IntraProcessBufferBaseD2Ev
FNF:30
FNH:0
DA:40,0
DA:57,0
DA:85,0
DA:88,0
DA:89,0
DA:91,0
DA:92,0
DA:95,0
DA:97,0
DA:98,0
DA:100,0
DA:102,0
DA:104,0
DA:106,0
DA:108,0
DA:109,0
DA:111,0
DA:113,0
DA:114,0
DA:116,0
DA:118,0
DA:121,0
DA:123,0
DA:126,0
DA:128,0
DA:131,0
DA:133,0
DA:134,0
DA:136,0
DA:138,0
DA:151,0
DA:153,0
DA:154,0
DA:161,0
DA:166,0
DA:167,0
DA:168,0
DA:169,0
DA:170,0
DA:171,0
DA:173,0
DA:176,0
DA:177,0
DA:185,0
DA:187,0
DA:196,0
DA:199,0
DA:208,0
DA:210,0
DA:212,0
DA:213,0
DA:214,0
DA:215,0
DA:216,0
DA:217,0
DA:219,0
DA:222,0
DA:223,0
DA:231,0
DA:233,0
LF:60
LH:0
end_of_record
TN:
SF:/opt/ros/humble/include/rclcpp/rclcpp/experimental/buffers/ring_buffer_implementation.hpp
FN:44,_ZN6rclcpp12experimental7buffers24RingBufferImplementationISt10unique_ptrIN8nav_msgs3msg9Odometry_ISaIvEEESt14default_deleteIS8_EEEC2Em
FN:44,_ZN6rclcpp12experimental7buffers24RingBufferImplementationISt10shared_ptrIKN8nav_msgs3msg9Odometry_ISaIvEEEEEC2Em
FN:56,_ZN6rclcpp12experimental7buffers24RingBufferImplementationISt10unique_ptrIN8nav_msgs3msg9Odometry_ISaIvEEESt14default_deleteIS8_EEED2Ev
FN:56,_ZN6rclcpp12experimental7buffers24RingBufferImplementationISt10shared_ptrIKN8nav_msgs3msg9Odometry_ISaIvEEEEED0Ev
FN:56,_ZN6rclcpp12experimental7buffers24RingBufferImplementationISt10unique_ptrIN8nav_msgs3msg9Odometry_ISaIvEEESt14default_deleteIS8_EEED0Ev
FN:56,_ZN6rclcpp12experimental7buffers24RingBufferImplementationISt10shared_ptrIKN8nav_msgs3msg9Odometry_ISaIvEEEEED2Ev
FN:64,_ZN6rclcpp12experimental7buffers24RingBufferImplementationISt10unique_ptrIN8nav_msgs3msg9Odometry_ISaIvEEESt14default_deleteIS8_EEE7enqueueESB_
FN:64,_ZN6rclcpp12experimental7buffers24RingBufferImplementationISt10shared_ptrIKN8nav_msgs3msg9Odometry_ISaIvEEEEE7enqueueESA_
FN:84,_ZN6rclcpp12experimental7buffers24RingBufferImplementationISt10shared_ptrIKN8nav_msgs3msg9Odometry_ISaIvEEEEE7dequeueEv
FN:84,_ZN6rclcpp12experimental7buffers24RingBufferImplementationISt10unique_ptrIN8nav_msgs3msg9Odometry_ISaIvEEESt14default_deleteIS8_EEE7dequeueEv
FN:119,_ZNK6rclcpp12experimental7buffers24RingBufferImplementationISt10shared_ptrIKN8nav_msgs3msg9Odometry_ISaIvEEEEE8has_dataEv
FN:119,_ZNK6rclcpp12experimental7buffers24RingBufferImplementationISt10unique_ptrIN8nav_msgs3msg9Odometry_ISaIvEEESt14default_deleteIS8_EEE8has_dataEv
FN:138,_ZN6rclcpp12experimental7buffers24RingBufferImplementationISt10shared_ptrIKN8nav_msgs3msg9Odometry_ISaIvEEEEE5clearEv
FN:138,_ZN6rclcpp12experimental7buffers24RingBufferImplementationISt10unique_ptrIN8nav_msgs3msg9Odometry_ISaIvEEESt14default_deleteIS8_EEE5clearEv
FN:148,_ZN6rclcpp12experimental7buffers24RingBufferImplementationISt10unique_ptrIN8nav_msgs3msg9Odometry_ISaIvEEESt14default_deleteIS8_EEE5next_Em
FN:148,_ZN6rclcpp12experimental7buffers24RingBufferImplementationISt10shared_ptrIKN8nav_msgs3msg9Odometry_ISaIvEEEEE5next_Em
FN:159,_ZNK6rclcpp12experimental7buffers24RingBufferImplementationISt10shared_ptrIKN8nav_msgs3msg9Odometry_ISaIvEEEEE9has_data_Ev
FN:159,_ZNK6rclcpp12experimental7buffers24RingBufferImplementationISt10unique_ptrIN8nav_msgs3msg9Odometry_ISaIvEEESt14default_deleteIS8_EEE9has_data_Ev
FN:171,_ZNK6rclcpp12experimental7buffers24RingBufferImplementationISt10shared_ptrIKN8nav_msgs3msg9Odometry_ISaIvEEEEE8is_full_Ev
FN:171,_ZNK6rclcpp12experimental7buffers24RingBufferImplementationISt10unique_ptrIN8nav_msgs3msg9Odometry_ISaIvEEESt14default_deleteIS8_EEE8is_full_Ev
FNDA:0,_ZNK6rclcpp12experimental7buffers24RingBufferImplementationISt10shared_ptrIKN8nav_msgs3msg9Odometry_ISaIvEEEEE9has_data_Ev
FNDA:0,_ZN6rclcpp12experimental7buffers24RingBufferImplementationISt10unique_ptrIN8nav_msgs3msg9Odometry_ISaIvEEESt14default_deleteIS8_EEEC2Em
FNDA:0,_ZN6rclcpp12experimental7buffers24RingBufferImplementationISt10shared_ptrIKN8nav_msgs3msg9Odometry_ISaIvEEEEEC2Em
FNDA:0,_ZN6rclcpp12experimental7buffers24RingBufferImplementationISt10unique_ptrIN8nav_msgs3msg9Odometry_ISaIvEEESt14default_deleteIS8_EEED2Ev
FNDA:0,_ZN6rclcpp12experimental7buffers24RingBufferImplementationISt10unique_ptrIN8nav_msgs3msg9Odometry_ISaIvEEESt14default_deleteIS8_EEE7enqueueESB_
FNDA:0,_ZN6rclcpp12experimental7buffers24RingBufferImplementationISt10unique_ptrIN8nav_msgs3msg9Odometry_ISaIvEEESt14default_deleteIS8_EEED0Ev
FNDA:0,_ZN6rclcpp12experimental7buffers24RingBufferImplementationISt10shared_ptrIKN8nav_msgs3msg9Odometry_ISaIvEEEEE5clearEv
FNDA:0,_ZN6rclcpp12experimental7buffers24RingBufferImplementationISt10unique_ptrIN8nav_msgs3msg9Odometry_ISaIvEEESt14default_deleteIS8_EEE5next_Em
FNDA:0,_ZNK6rclcpp12experimental7buffers24RingBufferImplementationISt10unique_ptrIN8nav_msgs3msg9Odometry_ISaIvEEESt14default_deleteIS8_EEE8is_full_Ev
FNDA:0,_ZNK6rclcpp12experimental7buffers24RingBufferImplementationISt10shared_ptrIKN8nav_msgs3msg9Odometry_ISaIvEEEEE8is_full_Ev
FNDA:0,_ZN6rclcpp12experimental7buffers24RingBufferImplementationISt10shared_ptrIKN8nav_msgs3msg9Odometry_ISaIvEEEEED0Ev
FNDA:0,_ZN6rclcpp12experimental7buffers24RingBufferImplementationISt10shared_ptrIKN8nav_msgs3msg9Odometry_ISaIvEEEEE7dequeueEv
FNDA:0,_ZNK6rclcpp12experimental7buffers24RingBufferImplementationISt10shared_ptrIKN8nav_msgs3msg9Odometry_ISaIvEEEEE8has_dataEv
FNDA:0,_ZNK6rclcpp12experimental7buffers24RingBufferImplementationISt10unique_ptrIN8nav_msgs3msg9Odometry_ISaIvEEESt14default_deleteIS8_EEE9has_data_Ev
FNDA:0,_ZN6rclcpp12experimental7buffers24RingBufferImplementationISt10shared_ptrIKN8nav_msgs3msg9Odometry_ISaIvEEEEE7enqueueESA_
FNDA:0,_ZN6rclcpp12experimental7buffers24RingBufferImplementationISt10shared_ptrIKN8nav_msgs3msg9Odometry_ISaIvEEEEE5next_Em
FNDA:0,_ZN6rclcpp12experimental7buffers24RingBufferImplementationISt10unique_ptrIN8nav_msgs3msg9Odometry_ISaIvEEESt14default_deleteIS8_EEE5clearEv
FNDA:0,_ZNK6rclcpp12experimental7buffers24RingBufferImplementationISt10unique_ptrIN8nav_msgs3msg9Odometry_ISaIvEEESt14default_deleteIS8_EEE8has_dataEv
FNDA:0,_ZN6rclcpp12experimental7buffers24RingBufferImplementationISt10shared_ptrIKN8nav_msgs3msg9Odometry_ISaIvEEEEED2Ev
FNDA:0,_ZN6rclcpp12experimental7buffers24RingBufferImplementationISt10unique_ptrIN8nav_msgs3msg9Odometry_ISaIvEEESt14default_deleteIS8_EEE7dequeueEv
FNF:20
FNH:0
DA:44,0
DA:45,0
DA:46,0
DA:47,0
DA:48,0
DA:49,0
DA:51,0
DA:52,0
DA:54,0
DA:56,0
DA:64,0
DA:66,0
DA:68,0
DA:69,0
DA:71,0
DA:72,0
DA:74,0
DA:76,0
DA:84,0
DA:86,0
DA:88,0
DA:89,0
DA:92,0
DA:93,0
DA:95,0
DA:97,0
DA:98,0
DA:119,0
DA:121,0
DA:122,0
DA:123,0
DA:138,0
DA:148,0
DA:150,0
DA:159,0
DA:161,0
DA:171,0
DA:173,0
LF:38
LH:0
end_of_record
TN:
SF:/opt/ros/humble/include/rclcpp/rclcpp/experimental/create_intra_process_buffer.hpp
FN:37,_ZN6rclcpp12experimental27create_intra_process_bufferIN8nav_msgs3msg9Odometry_ISaIvEEESaIS6_ESt14default_deleteIS6_EEENS0_7buffers18IntraProcessBufferIT_T0_T1_E9UniquePtrENS_22IntraProcessBufferTypeERKNS_3QoSESt10shared_ptrISD_E
FNDA:0,_ZN6rclcpp12experimental27create_intra_process_bufferIN8nav_msgs3msg9Odometry_ISaIvEEESaIS6_ESt14default_deleteIS6_EEENS0_7buffers18IntraProcessBufferIT_T0_T1_E9UniquePtrENS_22IntraProcessBufferTypeERKNS_3QoSESt10shared_ptrISD_E
FNF:1
FNH:0
DA:37,0
DA:45,0
DA:48,0
DA:50,0
DA:51,0
DA:55,0
DA:60,0
DA:63,0
DA:66,0
DA:67,0
DA:68,0
DA:72,0
DA:77,0
DA:80,0
DA:83,0
DA:84,0
DA:85,0
DA:87,0
DA:92,0
DA:93,0
LF:20
LH:0
end_of_record
TN:
SF:/opt/ros/humble/include/rclcpp/rclcpp/experimental/intra_process_manager.hpp
FN:184,_ZN6rclcpp12experimental19IntraProcessManager24do_intra_process_publishIN15statistics_msgs3msg15MetricsMessage_ISaIvEEES7_S6_St14default_deleteIS7_EEEvmSt10unique_ptrIT_T2_ERNS_9allocator11AllocRebindISB_E14allocator_typeE
FN:184,_ZN6rclcpp12experimental19IntraProcessManager24do_intra_process_publishIN13geometry_msgs3msg6Twist_ISaIvEEES7_S6_St14default_deleteIS7_EEEvmSt10unique_ptrIT_T2_ERNS_9allocator11AllocRebindISB_E14allocator_typeE
FN:184,_ZN6rclcpp12experimental19IntraProcessManager24do_intra_process_publishIN13geometry_msgs3msg12PoseStamped_ISaIvEEES7_S6_St14default_deleteIS7_EEEvmSt10unique_ptrIT_T2_ERNS_9allocator11AllocRebindISB_E14allocator_typeE
FN:247,_ZN6rclcpp12experimental19IntraProcessManager42do_intra_process_publish_and_return_sharedIN13geometry_msgs3msg12PoseStamped_ISaIvEEES7_S6_St14default_deleteIS7_EEESt10shared_ptrIKT_EmSt10unique_ptrISB_T2_ERNS_9allocator11AllocRebindISB_E14allocator_typeE
FN:247,_ZN6rclcpp12experimental19IntraProcessManager42do_intra_process_publish_and_return_sharedIN15statistics_msgs3msg15MetricsMessage_ISaIvEEES7_S6_St14default_deleteIS7_EEESt10shared_ptrIKT_EmSt10unique_ptrISB_T2_ERNS_9allocator11AllocRebindISB_E14allocator_typeE
FN:247,_ZN6rclcpp12experimental19IntraProcessManager42do_intra_process_publish_and_return_sharedIN13geometry_msgs3msg6Twist_ISaIvEEES7_S6_St14default_deleteIS7_EEESt10shared_ptrIKT_EmSt10unique_ptrISB_T2_ERNS_9allocator11AllocRebindISB_E14allocator_typeE
FN:346,_ZN6rclcpp12experimental19IntraProcessManager25add_shared_msg_to_buffersIN15statistics_msgs3msg15MetricsMessage_ISaIvEEES6_St14default_deleteIS7_ES7_EEvSt10shared_ptrIKT_ESt6vectorImSaImEE
FN:346,_ZN6rclcpp12experimental19IntraProcessManager25add_shared_msg_to_buffersIN13geometry_msgs3msg12PoseStamped_ISaIvEEES6_St14default_deleteIS7_ES7_EEvSt10shared_ptrIKT_ESt6vectorImSaImEE
FN:346,_ZN6rclcpp12experimental19IntraProcessManager25add_shared_msg_to_buffersIN13geometry_msgs3msg6Twist_ISaIvEEES6_St14default_deleteIS7_ES7_EEvSt10shared_ptrIKT_ESt6vectorImSaImEE
FN:421,_ZN6rclcpp12experimental19IntraProcessManager24add_owned_msg_to_buffersIN13geometry_msgs3msg6Twist_ISaIvEEES6_St14default_deleteIS7_ES7_EEvSt10unique_ptrIT_T1_ESt6vectorImSaImEERNS_9allocator11AllocRebindISB_E14allocator_typeE
FN:421,_ZN6rclcpp12experimental19IntraProcessManager24add_owned_msg_to_buffersIN13geometry_msgs3msg12PoseStamped_ISaIvEEES6_St14default_deleteIS7_ES7_EEvSt10unique_ptrIT_T1_ESt6vectorImSaImEERNS_9allocator11AllocRebindISB_E14allocator_typeE
FN:421,_ZN6rclcpp12experimental19IntraProcessManager24add_owned_msg_to_buffersIN15statistics_msgs3msg15MetricsMessage_ISaIvEEES6_St14default_deleteIS7_ES7_EEvSt10unique_ptrIT_T1_ESt6vectorImSaImEERNS_9allocator11AllocRebindISB_E14allocator_typeE
FNDA:0,_ZN6rclcpp12experimental19IntraProcessManager42do_intra_process_publish_and_return_sharedIN15statistics_msgs3msg15MetricsMessage_ISaIvEEES7_S6_St14default_deleteIS7_EEESt10shared_ptrIKT_EmSt10unique_ptrISB_T2_ERNS_9allocator11AllocRebindISB_E14allocator_typeE
FNDA:0,_ZN6rclcpp12experimental19IntraProcessManager24do_intra_process_publishIN13geometry_msgs3msg6Twist_ISaIvEEES7_S6_St14default_deleteIS7_EEEvmSt10unique_ptrIT_T2_ERNS_9allocator11AllocRebindISB_E14allocator_typeE
FNDA:0,_ZN6rclcpp12experimental19IntraProcessManager42do_intra_process_publish_and_return_sharedIN13geometry_msgs3msg6Twist_ISaIvEEES7_S6_St14default_deleteIS7_EEESt10shared_ptrIKT_EmSt10unique_ptrISB_T2_ERNS_9allocator11AllocRebindISB_E14allocator_typeE
FNDA:0,_ZN6rclcpp12experimental19IntraProcessManager24add_owned_msg_to_buffersIN15statistics_msgs3msg15MetricsMessage_ISaIvEEES6_St14default_deleteIS7_ES7_EEvSt10unique_ptrIT_T1_ESt6vectorImSaImEERNS_9allocator11AllocRebindISB_E14allocator_typeE
FNDA:0,_ZN6rclcpp12experimental19IntraProcessManager24do_intra_process_publishIN13geometry_msgs3msg12PoseStamped_ISaIvEEES7_S6_St14default_deleteIS7_EEEvmSt10unique_ptrIT_T2_ERNS_9allocator11AllocRebindISB_E14allocator_typeE
FNDA:0,_ZN6rclcpp12experimental19IntraProcessManager24do_intra_process_publishIN15statistics_msgs3msg15MetricsMessage_ISaIvEEES7_S6_St14default_deleteIS7_EEEvmSt10unique_ptrIT_T2_ERNS_9allocator11AllocRebindISB_E14allocator_typeE
FNDA:0,_ZN6rclcpp12experimental19IntraProcessManager25add_shared_msg_to_buffersIN15statistics_msgs3msg15MetricsMessage_ISaIvEEES6_St14default_deleteIS7_ES7_EEvSt10shared_ptrIKT_ESt6vectorImSaImEE
FNDA:0,_ZN6rclcpp12experimental19IntraProcessManager25add_shared_msg_to_buffersIN13geometry_msgs3msg12PoseStamped_ISaIvEEES6_St14default_deleteIS7_ES7_EEvSt10shared_ptrIKT_ESt6vectorImSaImEE
FNDA:0,_ZN6rclcpp12experimental19IntraProcessManager25add_shared_msg_to_buffersIN13geometry_msgs3msg6Twist_ISaIvEEES6_St14default_deleteIS7_ES7_EEvSt10shared_ptrIKT_ESt6vectorImSaImEE
FNDA:0,_ZN6rclcpp12experimental19IntraProcessManager24add_owned_msg_to_buffersIN13geometry_msgs3msg12PoseStamped_ISaIvEEES6_St14default_deleteIS7_ES7_EEvSt10unique_ptrIT_T1_ESt6vectorImSaImEERNS_9allocator11AllocRebindISB_E14allocator_typeE
FNDA:0,_ZN6rclcpp12experimental19IntraProcessManager42do_intra_process_publish_and_return_sharedIN13geometry_msgs3msg12PoseStamped_ISaIvEEES7_S6_St14default_deleteIS7_EEESt10shared_ptrIKT_EmSt10unique_ptrISB_T2_ERNS_9allocator11AllocRebindISB_E14allocator_typeE
FNDA:0,_ZN6rclcpp12experimental19IntraProcessManager24add_owned_msg_to_buffersIN13geometry_msgs3msg6Twist_ISaIvEEES6_St14default_deleteIS7_ES7_EEvSt10unique_ptrIT_T1_ESt6vectorImSaImEERNS_9allocator11AllocRebindISB_E14allocator_typeE
FNF:12
FNH:0
DA:184,0
DA:192,0
DA:194,0
DA:195,0
DA:197,0
DA:200,0
DA:202,0
DA:204,0
DA:206,0
DA:208,0
DA:209,0
DA:210,0
DA:211,0
DA:217,0
DA:218,0
DA:219,0
DA:222,0
DA:223,0
DA:226,0
DA:227,0
DA:231,0
DA:233,0
DA:234,0
DA:235,0
DA:236,0
DA:237,0
DA:238,0
DA:247,0
DA:255,0
DA:257,0
DA:258,0
DA:260,0
DA:263,0
DA:265,0
DA:267,0
DA:269,0
DA:270,0
DA:271,0
DA:272,0
DA:274,0
DA:275,0
DA:278,0
DA:280,0
DA:281,0
DA:283,0
DA:285,0
DA:286,0
DA:287,0
DA:288,0
DA:291,0
DA:292,0
DA:293,0
DA:346,0
DA:359,0
DA:360,0
DA:361,0
DA:362,0
DA:364,0
DA:365,0
DA:366,0
DA:367,0
DA:370,0
DA:374,0
DA:375,0
DA:376,0
DA:379,0
DA:383,0
DA:384,0
DA:399,0
DA:413,0
DA:421,0
DA:438,0
DA:439,0
DA:440,0
DA:441,0
DA:443,0
DA:444,0
DA:445,0
DA:446,0
DA:449,0
DA:453,0
DA:454,0
DA:456,0
DA:459,0
DA:460,0
DA:461,0
DA:463,0
DA:466,0
DA:467,0
DA:469,0
DA:473,0
DA:474,0
DA:493,0
DA:495,0
DA:498,0
DA:499,0
DA:500,0
DA:501,0
DA:503,0
DA:504,0
DA:509,0
LF:101
LH:0
end_of_record
TN:
SF:/opt/ros/humble/include/rclcpp/rclcpp/experimental/ros_message_intra_process_buffer.hpp
FN:48,_ZN6rclcpp12experimental36SubscriptionROSMsgIntraProcessBufferIN8nav_msgs3msg9Odometry_ISaIvEEESaIS6_ESt14default_deleteIS6_EEC2ESt10shared_ptrINS_7ContextEERKNSt7__cxx1112basic_stringIcSt11char_traitsIcESaIcEEERKNS_3QoSE
FN:55,_ZN6rclcpp12experimental36SubscriptionROSMsgIntraProcessBufferIN8nav_msgs3msg9Odometry_ISaIvEEESaIS6_ESt14default_deleteIS6_EED2Ev
FN:55,_ZN6rclcpp12experimental36SubscriptionROSMsgIntraProcessBufferIN8nav_msgs3msg9Odometry_ISaIvEEESaIS6_ESt14default_deleteIS6_EED0Ev
FNDA:0,_ZN6rclcpp12experimental36SubscriptionROSMsgIntraProcessBufferIN8nav_msgs3msg9Odometry_ISaIvEEESaIS6_ESt14default_deleteIS6_EED2Ev
FNDA:0,_ZN6rclcpp12experimental36SubscriptionROSMsgIntraProcessBufferIN8nav_msgs3msg9Odometry_ISaIvEEESaIS6_ESt14default_deleteIS6_EEC2ESt10shared_ptrINS_7ContextEERKNSt7__cxx1112basic_stringIcSt11char_traitsIcESaIcEEERKNS_3QoSE
FNDA:0,_ZN6rclcpp12experimental36SubscriptionROSMsgIntraProcessBufferIN8nav_msgs3msg9Odometry_ISaIvEEESaIS6_ESt14default_deleteIS6_EED0Ev
FNF:3
FNH:0
DA:48,0
DA:52,0
DA:53,0
DA:55,0
DA:56,0
LF:5
LH:0
end_of_record
TN:
SF:/opt/ros/humble/include/rclcpp/rclcpp/experimental/subscription_intra_process.hpp
FN:74,_ZN6rclcpp12experimental24SubscriptionIntraProcessIN8nav_msgs3msg9Odometry_ISaIvEEES6_SaIS6_ESt14default_deleteIS6_ES6_S5_EC2ENS_23AnySubscriptionCallbackIS6_S5_EESt10shared_ptrIS5_ESD_INS_7ContextEERKNSt7__cxx1112basic_stringIcSt11char_traitsIcESaIcEEERKNS_3QoSENS_22IntraProcessBufferTypeE
FN:102,_ZN6rclcpp12experimental24SubscriptionIntraProcessIN8nav_msgs3msg9Odometry_ISaIvEEES6_SaIS6_ESt14default_deleteIS6_ES6_S5_ED0Ev
FN:102,_ZN6rclcpp12experimental24SubscriptionIntraProcessIN8nav_msgs3msg9Odometry_ISaIvEEES6_SaIS6_ESt14default_deleteIS6_ES6_S5_ED2Ev
FN:105,_ZN6rclcpp12experimental24SubscriptionIntraProcessIN8nav_msgs3msg9Odometry_ISaIvEEES6_SaIS6_ESt14default_deleteIS6_ES6_S5_E9take_dataEv
FN:135,_ZN6rclcpp12experimental24SubscriptionIntraProcessIN8nav_msgs3msg9Odometry_ISaIvEEES6_SaIS6_ESt14default_deleteIS6_ES6_S5_E7executeERSt10shared_ptrIvE
FN:151,_ZN6rclcpp12experimental24SubscriptionIntraProcessIN8nav_msgs3msg9Odometry_ISaIvEEES6_SaIS6_ESt14default_deleteIS6_ES6_S5_E12execute_implIS6_EENSt9enable_ifIXntsrSt7is_sameIT_21rcutils_uint8_array_sE5valueEvE4typeERSt10shared_ptrIvE
FNDA:0,_ZN6rclcpp12experimental24SubscriptionIntraProcessIN8nav_msgs3msg9Odometry_ISaIvEEES6_SaIS6_ESt14default_deleteIS6_ES6_S5_E12execute_implIS6_EENSt9enable_ifIXntsrSt7is_sameIT_21rcutils_uint8_array_sE5valueEvE4typeERSt10shared_ptrIvE
FNDA:0,_ZN6rclcpp12experimental24SubscriptionIntraProcessIN8nav_msgs3msg9Odometry_ISaIvEEES6_SaIS6_ESt14default_deleteIS6_ES6_S5_E9take_dataEv
FNDA:0,_ZN6rclcpp12experimental24SubscriptionIntraProcessIN8nav_msgs3msg9Odometry_ISaIvEEES6_SaIS6_ESt14default_deleteIS6_ES6_S5_ED2Ev
FNDA:0,_ZN6rclcpp12experimental24SubscriptionIntraProcessIN8nav_msgs3msg9Odometry_ISaIvEEES6_SaIS6_ESt14default_deleteIS6_ES6_S5_EC2ENS_23AnySubscriptionCallbackIS6_S5_EESt10shared_ptrIS5_ESD_INS_7ContextEERKNSt7__cxx1112basic_stringIcSt11char_traitsIcESaIcEEERKNS_3QoSENS_22IntraProcessBufferTypeE
FNDA:0,_ZN6rclcpp12experimental24SubscriptionIntraProcessIN8nav_msgs3msg9Odometry_ISaIvEEES6_SaIS6_ESt14default_deleteIS6_ES6_S5_E7executeERSt10shared_ptrIvE
FNDA:0,_ZN6rclcpp12experimental24SubscriptionIntraProcessIN8nav_msgs3msg9Odometry_ISaIvEEES6_SaIS6_ESt14default_deleteIS6_ES6_S5_ED0Ev
FNF:6
FNH:0
DA:74,0
DA:83,0
DA:88,0
DA:90,0
DA:98,0
DA:100,0
DA:102,0
DA:105,0
DA:107,0
DA:108,0
DA:110,0
DA:111,0
DA:112,0
DA:113,0
DA:116,0
DA:117,0
DA:118,0
DA:122,0
DA:125,0
DA:130,0
DA:131,0
DA:132,0
DA:133,0
DA:135,0
DA:137,0
DA:138,0
DA:151,0
DA:153,0
DA:154,0
DA:158,0
DA:159,0
DA:161,0
DA:164,0
DA:165,0
DA:166,0
DA:167,0
DA:168,0
DA:169,0
DA:170,0
DA:171,0
DA:172,0
LF:41
LH:0
end_of_record
TN:
SF:/opt/ros/humble/include/rclcpp/rclcpp/experimental/subscription_intra_process_base.hpp
FN:47,_ZN6rclcpp12experimental28SubscriptionIntraProcessBaseC2ESt10shared_ptrINS_7ContextEERKNSt7__cxx1112basic_stringIcSt11char_traitsIcESaIcEEERKNS_3QoSE
FN:59,_ZN6rclcpp12experimental28SubscriptionIntraProcessBase36get_number_of_ready_guard_conditionsEv
FN:72,_ZN6rclcpp12experimental28SubscriptionIntraProcessBase22take_data_by_entity_idEm
FN:122,_ZN6rclcpp12experimental28SubscriptionIntraProcessBase21set_on_ready_callbackESt8functionIFvmiEE
FN:132,_ZZN6rclcpp12experimental28SubscriptionIntraProcessBase21set_on_ready_callbackESt8functionIFvmiEEENKUlmE_clEm
FN:168,_ZN6rclcpp12experimental28SubscriptionIntraProcessBase23clear_on_ready_callbackEv
FN:184,_ZN6rclcpp12experimental28SubscriptionIntraProcessBase21invoke_on_new_messageEv
FNDA:0,_ZN6rclcpp12experimental28SubscriptionIntraProcessBase21set_on_ready_callbackESt8functionIFvmiEE
FNDA:0,_ZN6rclcpp12experimental28SubscriptionIntraProcessBase23clear_on_ready_callbackEv
FNDA:0,_ZZN6rclcpp12experimental28SubscriptionIntraProcessBase21set_on_ready_callbackESt8functionIFvmiEEENKUlmE_clEm
FNDA:0,_ZN6rclcpp12experimental28SubscriptionIntraProcessBase21invoke_on_new_messageEv
FNDA:0,_ZN6rclcpp12experimental28SubscriptionIntraProcessBaseC2ESt10shared_ptrINS_7ContextEERKNSt7__cxx1112basic_stringIcSt11char_traitsIcESaIcEEERKNS_3QoSE
FNDA:0,_ZN6rclcpp12experimental28SubscriptionIntraProcessBase22take_data_by_entity_idEm
FNDA:0,_ZN6rclcpp12experimental28SubscriptionIntraProcessBase36get_number_of_ready_guard_conditionsEv
FNF:7
FNH:0
DA:47,0
DA:51,0
DA:52,0
DA:59,0
DA:72,0
DA:75,0
DA:122,0
DA:124,0
DA:125,0
DA:127,0
DA:132,0
DA:134,0
DA:135,0
DA:136,0
DA:143,0
DA:144,0
DA:149,0
DA:150,0
DA:152,0
DA:153,0
DA:155,0
DA:156,0
DA:157,0
DA:160,0
DA:162,0
DA:164,0
DA:168,0
DA:170,0
DA:171,0
DA:172,0
DA:184,0
DA:186,0
DA:187,0
DA:188,0
DA:190,0
DA:192,0
LF:36
LH:0
end_of_record
TN:
SF:/opt/ros/humble/include/rclcpp/rclcpp/experimental/subscription_intra_process_buffer.hpp
FN:75,_ZN6rclcpp12experimental30SubscriptionIntraProcessBufferIN8nav_msgs3msg9Odometry_ISaIvEEESaIS6_ESt14default_deleteIS6_ES6_EC2ESt10shared_ptrIS7_ESB_INS_7ContextEERKNSt7__cxx1112basic_stringIcSt11char_traitsIcESaIcEEERKNS_3QoSENS_22IntraProcessBufferTypeE
FN:97,_ZN6rclcpp12experimental30SubscriptionIntraProcessBufferIN8nav_msgs3msg9Odometry_ISaIvEEESaIS6_ESt14default_deleteIS6_ES6_E8is_readyEP14rcl_wait_set_s
FN:119,_ZN6rclcpp12experimental30SubscriptionIntraProcessBufferIN8nav_msgs3msg9Odometry_ISaIvEEESaIS6_ESt14default_deleteIS6_ES6_E29provide_intra_process_messageESt10shared_ptrIKS6_E
FN:132,_ZN6rclcpp12experimental30SubscriptionIntraProcessBufferIN8nav_msgs3msg9Odometry_ISaIvEEESaIS6_ESt14default_deleteIS6_ES6_E29provide_intra_process_messageESt10unique_ptrIS6_S9_E
FN:145,_ZN6rclcpp12experimental30SubscriptionIntraProcessBufferIN15statistics_msgs3msg15MetricsMessage_ISaIvEEESaIS6_ESt14default_deleteIS6_ES6_E26provide_intra_process_dataESt10shared_ptrIKS6_E
FN:145,_ZN6rclcpp12experimental30SubscriptionIntraProcessBufferIN13geometry_msgs3msg12PoseStamped_ISaIvEEESaIS6_ESt14default_deleteIS6_ES6_E26provide_intra_process_dataESt10shared_ptrIKS6_E
FN:145,_ZN6rclcpp12experimental30SubscriptionIntraProcessBufferIN13geometry_msgs3msg6Twist_ISaIvEEESaIS6_ESt14default_deleteIS6_ES6_E26provide_intra_process_dataESt10shared_ptrIKS6_E
FN:153,_ZN6rclcpp12experimental30SubscriptionIntraProcessBufferIN13geometry_msgs3msg6Twist_ISaIvEEESaIS6_ESt14default_deleteIS6_ES6_E26provide_intra_process_dataESt10unique_ptrIS6_S9_E
FN:153,_ZN6rclcpp12experimental30SubscriptionIntraProcessBufferIN15statistics_msgs3msg15MetricsMessage_ISaIvEEESaIS6_ESt14default_deleteIS6_ES6_E26provide_intra_process_dataESt10unique_ptrIS6_S9_E
FN:153,_ZN6rclcpp12experimental30SubscriptionIntraProcessBufferIN13geometry_msgs3msg12PoseStamped_ISaIvEEESaIS6_ESt14default_deleteIS6_ES6_E26provide_intra_process_dataESt10unique_ptrIS6_S9_E
FN:161,_ZNK6rclcpp12experimental30SubscriptionIntraProcessBufferIN8nav_msgs3msg9Odometry_ISaIvEEESaIS6_ESt14default_deleteIS6_ES6_E22use_take_shared_methodEv
FN:168,_ZN6rclcpp12experimental30SubscriptionIntraProcessBufferIN8nav_msgs3msg9Odometry_ISaIvEEESaIS6_ESt14default_deleteIS6_ES6_E23trigger_guard_conditionEv
FNDA:0,_ZN6rclcpp12experimental30SubscriptionIntraProcessBufferIN13geometry_msgs3msg6Twist_ISaIvEEESaIS6_ESt14default_deleteIS6_ES6_E26provide_intra_process_dataESt10unique_ptrIS6_S9_E
FNDA:0,_ZN6rclcpp12experimental30SubscriptionIntraProcessBufferIN8nav_msgs3msg9Odometry_ISaIvEEESaIS6_ESt14default_deleteIS6_ES6_E29provide_intra_process_messageESt10unique_ptrIS6_S9_E
FNDA:0,_ZN6rclcpp12experimental30SubscriptionIntraProcessBufferIN8nav_msgs3msg9Odometry_ISaIvEEESaIS6_ESt14default_deleteIS6_ES6_E8is_readyEP14rcl_wait_set_s
FNDA:0,_ZN6rclcpp12experimental30SubscriptionIntraProcessBufferIN8nav_msgs3msg9Odometry_ISaIvEEESaIS6_ESt14default_deleteIS6_ES6_E29provide_intra_process_messageESt10shared_ptrIKS6_E
FNDA:0,_ZN6rclcpp12experimental30SubscriptionIntraProcessBufferIN15statistics_msgs3msg15MetricsMessage_ISaIvEEESaIS6_ESt14default_deleteIS6_ES6_E26provide_intra_process_dataESt10shared_ptrIKS6_E
FNDA:0,_ZN6rclcpp12experimental30SubscriptionIntraProcessBufferIN13geometry_msgs3msg12PoseStamped_ISaIvEEESaIS6_ESt14default_deleteIS6_ES6_E26provide_intra_process_dataESt10shared_ptrIKS6_E
FNDA:0,_ZN6rclcpp12experimental30SubscriptionIntraProcessBufferIN8nav_msgs3msg9Odometry_ISaIvEEESaIS6_ESt14default_deleteIS6_ES6_E23trigger_guard_conditionEv
FNDA:0,_ZN6rclcpp12experimental30SubscriptionIntraProcessBufferIN8nav_msgs3msg9Odometry_ISaIvEEESaIS6_ESt14default_deleteIS6_ES6_EC2ESt10shared_ptrIS7_ESB_INS_7ContextEERKNSt7__cxx1112basic_stringIcSt11char_traitsIcESaIcEEERKNS_3QoSENS_22IntraProcessBufferTypeE
FNDA:0,_ZN6rclcpp12experimental30SubscriptionIntraProcessBufferIN13geometry_msgs3msg6Twist_ISaIvEEESaIS6_ESt14default_deleteIS6_ES6_E26provide_intra_process_dataESt10shared_ptrIKS6_E
FNDA:0,_ZN6rclcpp12experimental30SubscriptionIntraProcessBufferIN15statistics_msgs3msg15MetricsMessage_ISaIvEEESaIS6_ESt14default_deleteIS6_ES6_E26provide_intra_process_dataESt10unique_ptrIS6_S9_E
FNDA:0,_ZN6rclcpp12experimental30SubscriptionIntraProcessBufferIN13geometry_msgs3msg12PoseStamped_ISaIvEEESaIS6_ESt14default_deleteIS6_ES6_E26provide_intra_process_dataESt10unique_ptrIS6_S9_E
FNDA:0,_ZNK6rclcpp12experimental30SubscriptionIntraProcessBufferIN8nav_msgs3msg9Odometry_ISaIvEEESaIS6_ESt14default_deleteIS6_ES6_E22use_take_shared_methodEv
FNF:12
FNH:0
DA:75,0
DA:84,0
DA:86,0
DA:89,0
DA:93,0
DA:94,0
DA:97,0
DA:100,0
DA:119,0
DA:122,0
DA:123,0
DA:128,0
DA:129,0
DA:132,0
DA:135,0
DA:136,0
DA:141,0
DA:142,0
DA:145,0
DA:147,0
DA:148,0
DA:149,0
DA:150,0
DA:153,0
DA:155,0
DA:156,0
DA:157,0
DA:158,0
DA:161,0
DA:163,0
DA:168,0
DA:170,0
DA:171,0
LF:33
LH:0
end_of_record
TN:
SF:/opt/ros/humble/include/rclcpp/rclcpp/get_message_type_support_handle.hpp
FN:48,_ZN6rclcpp31get_message_type_support_handleIN15statistics_msgs3msg15MetricsMessage_ISaIvEEEEENSt9enable_ifIXsrN23rosidl_generator_traits10is_messageIT_EE5valueERK29rosidl_message_type_support_tE4typeEv
FN:48,_ZN6rclcpp31get_message_type_support_handleIN13geometry_msgs3msg12PoseStamped_ISaIvEEEEENSt9enable_ifIXsrN23rosidl_generator_traits10is_messageIT_EE5valueERK29rosidl_message_type_support_tE4typeEv
FN:48,_ZN6rclcpp31get_message_type_support_handleIN8nav_msgs3msg9Odometry_ISaIvEEEEENSt9enable_ifIXsrN23rosidl_generator_traits10is_messageIT_EE5valueERK29rosidl_message_type_support_tE4typeEv
FN:48,_ZN6rclcpp31get_message_type_support_handleIN13geometry_msgs3msg6Twist_ISaIvEEEEENSt9enable_ifIXsrN23rosidl_generator_traits10is_messageIT_EE5valueERK29rosidl_message_type_support_tE4typeEv
FNDA:0,_ZN6rclcpp31get_message_type_support_handleIN13geometry_msgs3msg12PoseStamped_ISaIvEEEEENSt9enable_ifIXsrN23rosidl_generator_traits10is_messageIT_EE5valueERK29rosidl_message_type_support_tE4typeEv
FNDA:0,_ZN6rclcpp31get_message_type_support_handleIN15statistics_msgs3msg15MetricsMessage_ISaIvEEEEENSt9enable_ifIXsrN23rosidl_generator_traits10is_messageIT_EE5valueERK29rosidl_message_type_support_tE4typeEv
FNDA:0,_ZN6rclcpp31get_message_type_support_handleIN13geometry_msgs3msg6Twist_ISaIvEEEEENSt9enable_ifIXsrN23rosidl_generator_traits10is_messageIT_EE5valueERK29rosidl_message_type_support_tE4typeEv
FNDA:0,_ZN6rclcpp31get_message_type_support_handleIN8nav_msgs3msg9Odometry_ISaIvEEEEENSt9enable_ifIXsrN23rosidl_generator_traits10is_messageIT_EE5valueERK29rosidl_message_type_support_tE4typeEv
FNF:4
FNH:0
DA:48,0
DA:50,0
DA:51,0
DA:52,0
DA:54,0
LF:5
LH:0
end_of_record
TN:
SF:/opt/ros/humble/include/rclcpp/rclcpp/logger.hpp
FN:138,_ZNK6rclcpp6Logger8get_nameEv
FNDA:0,_ZNK6rclcpp6Logger8get_nameEv
FNF:1
FNH:0
DA:138,0
DA:140,0
DA:141,0
DA:143,0
LF:4
LH:0
end_of_record
TN:
SF:/opt/ros/humble/include/rclcpp/rclcpp/message_memory_strategy.hpp
FN:67,_ZN6rclcpp23message_memory_strategy21MessageMemoryStrategyIN8nav_msgs3msg9Odometry_ISaIvEEES5_EC2ESt10shared_ptrIS5_E
FN:75,_ZN6rclcpp23message_memory_strategy21MessageMemoryStrategyIN8nav_msgs3msg9Odometry_ISaIvEEES5_ED2Ev
FN:75,_ZN6rclcpp23message_memory_strategy21MessageMemoryStrategyIN8nav_msgs3msg9Odometry_ISaIvEEES5_ED0Ev
FN:78,_ZN6rclcpp23message_memory_strategy21MessageMemoryStrategyIN8nav_msgs3msg9Odometry_ISaIvEEES5_E14create_defaultEv
FN:85,_ZN6rclcpp23message_memory_strategy21MessageMemoryStrategyIN8nav_msgs3msg9Odometry_ISaIvEEES5_E14borrow_messageEv
FN:90,_ZN6rclcpp23message_memory_strategy21MessageMemoryStrategyIN8nav_msgs3msg9Odometry_ISaIvEEES5_E25borrow_serialized_messageEm
FN:95,_ZN6rclcpp23message_memory_strategy21MessageMemoryStrategyIN8nav_msgs3msg9Odometry_ISaIvEEES5_E25borrow_serialized_messageEv
FN:100,_ZN6rclcpp23message_memory_strategy21MessageMemoryStrategyIN8nav_msgs3msg9Odometry_ISaIvEEES5_E27set_default_buffer_capacityEm
FN:107,_ZN6rclcpp23message_memory_strategy21MessageMemoryStrategyIN8nav_msgs3msg9Odometry_ISaIvEEES5_E14return_messageERSt10shared_ptrIS6_E
FN:112,_ZN6rclcpp23message_memory_strategy21MessageMemoryStrategyIN8nav_msgs3msg9Odometry_ISaIvEEES5_E25return_serialized_messageERSt10shared_ptrINS_17SerializedMessageEE
FNDA:0,_ZN6rclcpp23message_memory_strategy21MessageMemoryStrategyIN8nav_msgs3msg9Odometry_ISaIvEEES5_E25borrow_serialized_messageEm
FNDA:0,_ZN6rclcpp23message_memory_strategy21MessageMemoryStrategyIN8nav_msgs3msg9Odometry_ISaIvEEES5_E25borrow_serialized_messageEv
FNDA:0,_ZN6rclcpp23message_memory_strategy21MessageMemoryStrategyIN8nav_msgs3msg9Odometry_ISaIvEEES5_E25return_serialized_messageERSt10shared_ptrINS_17SerializedMessageEE
FNDA:0,_ZN6rclcpp23message_memory_strategy21MessageMemoryStrategyIN8nav_msgs3msg9Odometry_ISaIvEEES5_EC2ESt10shared_ptrIS5_E
FNDA:0,_ZN6rclcpp23message_memory_strategy21MessageMemoryStrategyIN8nav_msgs3msg9Odometry_ISaIvEEES5_ED2Ev
FNDA:0,_ZN6rclcpp23message_memory_strategy21MessageMemoryStrategyIN8nav_msgs3msg9Odometry_ISaIvEEES5_E14borrow_messageEv
FNDA:0,_ZN6rclcpp23message_memory_strategy21MessageMemoryStrategyIN8nav_msgs3msg9Odometry_ISaIvEEES5_E14create_defaultEv
FNDA:0,_ZN6rclcpp23message_memory_strategy21MessageMemoryStrategyIN8nav_msgs3msg9Odometry_ISaIvEEES5_ED0Ev
FNDA:0,_ZN6rclcpp23message_memory_strategy21MessageMemoryStrategyIN8nav_msgs3msg9Odometry_ISaIvEEES5_E14return_messageERSt10shared_ptrIS6_E
FNDA:0,_ZN6rclcpp23message_memory_strategy21MessageMemoryStrategyIN8nav_msgs3msg9Odometry_ISaIvEEES5_E27set_default_buffer_capacityEm
FNF:10
FNH:0
DA:67,0
DA:68,0
DA:69,0
DA:70,0
DA:71,0
DA:72,0
DA:73,0
DA:75,0
DA:78,0
DA:80,0
DA:85,0
DA:87,0
DA:90,0
DA:92,0
DA:95,0
DA:97,0
DA:100,0
DA:102,0
DA:103,0
DA:107,0
DA:109,0
DA:110,0
DA:112,0
DA:115,0
DA:116,0
LF:25
LH:0
end_of_record
TN:
SF:/opt/ros/humble/include/rclcpp/rclcpp/node.hpp
FN:80,_ZN6rclcpp4Node11make_sharedIJRA16_KcEEESt10shared_ptrIS0_EDpOT_
FN:80,_ZN6rclcpp4Node11make_sharedIJRA12_KcEEESt10shared_ptrIS0_EDpOT_
FN:80,_ZN6rclcpp4Node11make_sharedIJRA10_KcEEESt10shared_ptrIS0_EDpOT_
FNDA:0,_ZN6rclcpp4Node11make_sharedIJRA10_KcEEESt10shared_ptrIS0_EDpOT_
FNDA:0,_ZN6rclcpp4Node11make_sharedIJRA12_KcEEESt10shared_ptrIS0_EDpOT_
FNDA:0,_ZN6rclcpp4Node11make_sharedIJRA16_KcEEESt10shared_ptrIS0_EDpOT_
FNF:3
FNH:0
DA:80,0
LF:1
LH:0
end_of_record
TN:
SF:/opt/ros/humble/include/rclcpp/rclcpp/node_impl.hpp
FN:62,_ZN6rclcpp30extend_name_with_sub_namespaceERKNSt7__cxx1112basic_stringIcSt11char_traitsIcESaIcEEES7_
FN:73,_ZN6rclcpp4Node16create_publisherIN13geometry_msgs3msg6Twist_ISaIvEEES5_NS_9PublisherIS6_S5_EEEESt10shared_ptrIT1_ERKNSt7__cxx1112basic_stringIcSt11char_traitsIcESaIcEEERKNS_3QoSERKNS_29PublisherOptionsWithAllocatorIT0_EE
FN:73,_ZN6rclcpp4Node16create_publisherIN13geometry_msgs3msg12PoseStamped_ISaIvEEES5_NS_9PublisherIS6_S5_EEEESt10shared_ptrIT1_ERKNSt7__cxx1112basic_stringIcSt11char_traitsIcESaIcEEERKNS_3QoSERKNS_29PublisherOptionsWithAllocatorIT0_EE
FN:92,_ZN6rclcpp4Node19create_subscriptionIN8nav_msgs3msg9Odometry_ISaIvEEESt5_BindIFM12InspectorBotFvSt10shared_ptrIS6_EEPS8_St12_PlaceholderILi1EEEES5_NS_12SubscriptionIS6_S5_S6_S6_NS_23message_memory_strategy21MessageMemoryStrategyIS6_S5_EEEESL_EES9_IT2_ERKNSt7__cxx1112basic_stringIcSt11char_traitsIcESaIcEEERKNS_3QoSEOT0_RKNS_32SubscriptionOptionsWithAllocatorIT1_EENT3_9SharedPtrE
FNDA:0,_ZN6rclcpp4Node16create_publisherIN13geometry_msgs3msg12PoseStamped_ISaIvEEES5_NS_9PublisherIS6_S5_EEEESt10shared_ptrIT1_ERKNSt7__cxx1112basic_stringIcSt11char_traitsIcESaIcEEERKNS_3QoSERKNS_29PublisherOptionsWithAllocatorIT0_EE
FNDA:0,_ZN6rclcpp30extend_name_with_sub_namespaceERKNSt7__cxx1112basic_stringIcSt11char_traitsIcESaIcEEES7_
FNDA:0,_ZN6rclcpp4Node16create_publisherIN13geometry_msgs3msg6Twist_ISaIvEEES5_NS_9PublisherIS6_S5_EEEESt10shared_ptrIT1_ERKNSt7__cxx1112basic_stringIcSt11char_traitsIcESaIcEEERKNS_3QoSERKNS_29PublisherOptionsWithAllocatorIT0_EE
FNDA:0,_ZN6rclcpp4Node19create_subscriptionIN8nav_msgs3msg9Odometry_ISaIvEEESt5_BindIFM12InspectorBotFvSt10shared_ptrIS6_EEPS8_St12_PlaceholderILi1EEEES5_NS_12SubscriptionIS6_S5_S6_S6_NS_23message_memory_strategy21MessageMemoryStrategyIS6_S5_EEEESL_EES9_IT2_ERKNSt7__cxx1112basic_stringIcSt11char_traitsIcESaIcEEERKNS_3QoSEOT0_RKNS_32SubscriptionOptionsWithAllocatorIT1_EENT3_9SharedPtrE
FNF:4
FNH:0
DA:62,0
DA:64,0
DA:65,0
DA:66,0
DA:68,0
DA:69,0
DA:73,0
DA:82,0
DA:92,0
DA:105,0
LF:10
LH:0
end_of_record
TN:
SF:/opt/ros/humble/include/rclcpp/rclcpp/node_interfaces/get_node_parameters_interface.hpp
FN:53,_ZN6rclcpp15node_interfaces6detail42get_node_parameters_interface_from_pointerIPNS_4NodeELi0EEESt10shared_ptrINS0_23NodeParametersInterfaceEET_
FN:87,_ZN6rclcpp15node_interfaces29get_node_parameters_interfaceIRNS_4NodeELi0EEESt10shared_ptrINS0_23NodeParametersInterfaceEEOT_
FNDA:0,_ZN6rclcpp15node_interfaces29get_node_parameters_interfaceIRNS_4NodeELi0EEESt10shared_ptrINS0_23NodeParametersInterfaceEEOT_
FNDA:0,_ZN6rclcpp15node_interfaces6detail42get_node_parameters_interface_from_pointerIPNS_4NodeELi0EEESt10shared_ptrINS0_23NodeParametersInterfaceEET_
FNF:2
FNH:0
DA:53,0
DA:55,0
DA:56,0
DA:58,0
DA:87,0
DA:90,0
LF:6
LH:0
end_of_record
TN:
SF:/opt/ros/humble/include/rclcpp/rclcpp/node_interfaces/get_node_topics_interface.hpp
FN:53,_ZN6rclcpp15node_interfaces6detail38get_node_topics_interface_from_pointerIPNS_4NodeELi0EEESt10shared_ptrINS0_19NodeTopicsInterfaceEET_
FN:87,_ZN6rclcpp15node_interfaces25get_node_topics_interfaceIRNS_4NodeELi0EEESt10shared_ptrINS0_19NodeTopicsInterfaceEEOT_
FN:96,_ZN6rclcpp15node_interfaces25get_node_topics_interfaceERSt10shared_ptrINS0_19NodeTopicsInterfaceEE
FNDA:0,_ZN6rclcpp15node_interfaces25get_node_topics_interfaceERSt10shared_ptrINS0_19NodeTopicsInterfaceEE
FNDA:0,_ZN6rclcpp15node_interfaces25get_node_topics_interfaceIRNS_4NodeELi0EEESt10shared_ptrINS0_19NodeTopicsInterfaceEEOT_
FNDA:0,_ZN6rclcpp15node_interfaces6detail38get_node_topics_interface_from_pointerIPNS_4NodeELi0EEESt10shared_ptrINS0_19NodeTopicsInterfaceEET_
FNF:3
FNH:0
DA:53,0
DA:55,0
DA:56,0
DA:58,0
DA:87,0
DA:90,0
DA:96,0
DA:99,0
LF:8
LH:0
end_of_record
TN:
SF:/opt/ros/humble/include/rclcpp/rclcpp/node_options.hpp
FN:68,_ZN6rclcpp11NodeOptionsD2Ev
FN:68,_ZN6rclcpp11NodeOptionsD0Ev
FNDA:0,_ZN6rclcpp11NodeOptionsD0Ev
FNDA:0,_ZN6rclcpp11NodeOptionsD2Ev
FNF:2
FNH:0
DA:68,0
LF:1
LH:0
end_of_record
TN:
SF:/opt/ros/humble/include/rclcpp/rclcpp/parameter_value.hpp
FN:65,_ZN6rclcpp22ParameterTypeExceptionC2ENS_13ParameterTypeES1_
FN:148,_ZNK6rclcpp14ParameterValue3getILNS_13ParameterTypeE1EEENSt9enable_ifIXeqT_LS2_1EERKbE4typeEv
FN:159,_ZNK6rclcpp14ParameterValue3getILNS_13ParameterTypeE2EEENSt9enable_ifIXeqT_LS2_2EERKlE4typeEv
FN:181,_ZNK6rclcpp14ParameterValue3getILNS_13ParameterTypeE4EEENSt9enable_ifIXeqT_LS2_4EERKNSt7__cxx1112basic_stringIcSt11char_traitsIcESaIcEEEE4typeEv
FN:254,_ZNK6rclcpp14ParameterValue3getIbEENSt9enable_ifIXsrSt7is_sameIT_bE5valueERKbE4typeEv
FN:263,_ZNK6rclcpp14ParameterValue3getIlEENSt9enable_ifIXaasrSt11is_integralIT_E5valuentsrSt7is_sameIS4_bE5valueERKlE4typeEv
FN:279,_ZNK6rclcpp14ParameterValue3getINSt7__cxx1112basic_stringIcSt11char_traitsIcESaIcEEEEENSt9enable_ifIXsrSt14is_convertibleIT_S7_E5valueERKS7_E4typeEv
FNDA:0,_ZNK6rclcpp14ParameterValue3getINSt7__cxx1112basic_stringIcSt11char_traitsIcESaIcEEEEENSt9enable_ifIXsrSt14is_convertibleIT_S7_E5valueERKS7_E4typeEv
FNDA:0,_ZNK6rclcpp14ParameterValue3getIlEENSt9enable_ifIXaasrSt11is_integralIT_E5valuentsrSt7is_sameIS4_bE5valueERKlE4typeEv
FNDA:0,_ZNK6rclcpp14ParameterValue3getILNS_13ParameterTypeE1EEENSt9enable_ifIXeqT_LS2_1EERKbE4typeEv
FNDA:0,_ZN6rclcpp22ParameterTypeExceptionC2ENS_13ParameterTypeES1_
FNDA:0,_ZNK6rclcpp14ParameterValue3getILNS_13ParameterTypeE2EEENSt9enable_ifIXeqT_LS2_2EERKlE4typeEv
FNDA:0,_ZNK6rclcpp14ParameterValue3getILNS_13ParameterTypeE4EEENSt9enable_ifIXeqT_LS2_4EERKNSt7__cxx1112basic_stringIcSt11char_traitsIcESaIcEEEE4typeEv
FNDA:0,_ZNK6rclcpp14ParameterValue3getIbEENSt9enable_ifIXsrSt7is_sameIT_bE5valueERKbE4typeEv
FNF:7
FNH:0
DA:65,0
DA:66,0
DA:67,0
DA:148,0
DA:150,0
DA:151,0
DA:153,0
DA:159,0
DA:161,0
DA:162,0
DA:164,0
DA:181,0
DA:183,0
DA:184,0
DA:186,0
DA:254,0
DA:256,0
DA:263,0
DA:265,0
DA:279,0
DA:281,0
LF:21
LH:0
end_of_record
TN:
SF:/opt/ros/humble/include/rclcpp/rclcpp/publisher.hpp
FN:125,_ZN6rclcpp9PublisherIN15statistics_msgs3msg15MetricsMessage_ISaIvEEES4_EC2EPNS_15node_interfaces17NodeBaseInterfaceERKNSt7__cxx1112basic_stringIcSt11char_traitsIcESaIcEEERKNS_3QoSERKNS_29PublisherOptionsWithAllocatorIS4_EE
FN:125,_ZN6rclcpp9PublisherIN13geometry_msgs3msg6Twist_ISaIvEEES4_EC2EPNS_15node_interfaces17NodeBaseInterfaceERKNSt7__cxx1112basic_stringIcSt11char_traitsIcESaIcEEERKNS_3QoSERKNS_29PublisherOptionsWithAllocatorIS4_EE
FN:125,_ZN6rclcpp9PublisherIN13geometry_msgs3msg12PoseStamped_ISaIvEEES4_EC2EPNS_15node_interfaces17NodeBaseInterfaceERKNSt7__cxx1112basic_stringIcSt11char_traitsIcESaIcEEERKNS_3QoSERKNS_29PublisherOptionsWithAllocatorIS4_EE
FN:160,_ZZN6rclcpp9PublisherIN15statistics_msgs3msg15MetricsMessage_ISaIvEEES4_EC4EPNS_15node_interfaces17NodeBaseInterfaceERKNSt7__cxx1112basic_stringIcSt11char_traitsIcESaIcEEERKNS_3QoSERKNS_29PublisherOptionsWithAllocatorIS4_EEENKUlR35rmw_qos_incompatible_event_status_sE_clESQ_
FN:160,_ZZN6rclcpp9PublisherIN13geometry_msgs3msg6Twist_ISaIvEEES4_EC4EPNS_15node_interfaces17NodeBaseInterfaceERKNSt7__cxx1112basic_stringIcSt11char_traitsIcESaIcEEERKNS_3QoSERKNS_29PublisherOptionsWithAllocatorIS4_EEENKUlR35rmw_qos_incompatible_event_status_sE_clESQ_
FN:160,_ZZN6rclcpp9PublisherIN13geometry_msgs3msg12PoseStamped_ISaIvEEES4_EC4EPNS_15node_interfaces17NodeBaseInterfaceERKNSt7__cxx1112basic_stringIcSt11char_traitsIcESaIcEEERKNS_3QoSERKNS_29PublisherOptionsWithAllocatorIS4_EEENKUlR35rmw_qos_incompatible_event_status_sE_clESQ_
FN:174,_ZN6rclcpp9PublisherIN13geometry_msgs3msg6Twist_ISaIvEEES4_E15post_init_setupEPNS_15node_interfaces17NodeBaseInterfaceERKNSt7__cxx1112basic_stringIcSt11char_traitsIcESaIcEEERKNS_3QoSERKNS_29PublisherOptionsWithAllocatorIS4_EE
FN:174,_ZN6rclcpp9PublisherIN13geometry_msgs3msg12PoseStamped_ISaIvEEES4_E15post_init_setupEPNS_15node_interfaces17NodeBaseInterfaceERKNSt7__cxx1112basic_stringIcSt11char_traitsIcESaIcEEERKNS_3QoSERKNS_29PublisherOptionsWithAllocatorIS4_EE
FN:174,_ZN6rclcpp9PublisherIN15statistics_msgs3msg15MetricsMessage_ISaIvEEES4_E15post_init_setupEPNS_15node_interfaces17NodeBaseInterfaceERKNSt7__cxx1112basic_stringIcSt11char_traitsIcESaIcEEERKNS_3QoSERKNS_29PublisherOptionsWithAllocatorIS4_EE
FN:209,_ZN6rclcpp9PublisherIN15statistics_msgs3msg15MetricsMessage_ISaIvEEES4_ED0Ev
FN:209,_ZN6rclcpp9PublisherIN13geometry_msgs3msg12PoseStamped_ISaIvEEES4_ED2Ev
FN:209,_ZN6rclcpp9PublisherIN13geometry_msgs3msg12PoseStamped_ISaIvEEES4_ED0Ev
FN:209,_ZN6rclcpp9PublisherIN13geometry_msgs3msg6Twist_ISaIvEEES4_ED2Ev
FN:209,_ZN6rclcpp9PublisherIN13geometry_msgs3msg6Twist_ISaIvEEES4_ED0Ev
FN:209,_ZN6rclcpp9PublisherIN15statistics_msgs3msg15MetricsMessage_ISaIvEEES4_ED2Ev
FN:251,_ZN6rclcpp9PublisherIN13geometry_msgs3msg12PoseStamped_ISaIvEEES4_E7publishIS5_EENSt9enable_ifIXaasrN23rosidl_generator_traits10is_messageIT_EE5valuesrSt7is_sameISB_S5_E5valueEvE4typeESt10unique_ptrISB_St14default_deleteIS5_EE
FN:251,_ZN6rclcpp9PublisherIN15statistics_msgs3msg15MetricsMessage_ISaIvEEES4_E7publishIS5_EENSt9enable_ifIXaasrN23rosidl_generator_traits10is_messageIT_EE5valuesrSt7is_sameISB_S5_E5valueEvE4typeESt10unique_ptrISB_St14default_deleteIS5_EE
FN:251,_ZN6rclcpp9PublisherIN13geometry_msgs3msg6Twist_ISaIvEEES4_E7publishIS5_EENSt9enable_ifIXaasrN23rosidl_generator_traits10is_messageIT_EE5valuesrSt7is_sameISB_S5_E5valueEvE4typeESt10unique_ptrISB_St14default_deleteIS5_EE
FN:292,_ZN6rclcpp9PublisherIN13geometry_msgs3msg6Twist_ISaIvEEES4_E7publishIS5_EENSt9enable_ifIXaasrN23rosidl_generator_traits10is_messageIT_EE5valuesrSt7is_sameISB_S5_E5valueEvE4typeERKSB_
FN:292,_ZN6rclcpp9PublisherIN15statistics_msgs3msg15MetricsMessage_ISaIvEEES4_E7publishIS5_EENSt9enable_ifIXaasrN23rosidl_generator_traits10is_messageIT_EE5valuesrSt7is_sameISB_S5_E5valueEvE4typeERKSB_
FN:292,_ZN6rclcpp9PublisherIN13geometry_msgs3msg12PoseStamped_ISaIvEEES4_E7publishIS5_EENSt9enable_ifIXaasrN23rosidl_generator_traits10is_messageIT_EE5valuesrSt7is_sameISB_S5_E5valueEvE4typeERKSB_
FN:450,_ZN6rclcpp9PublisherIN13geometry_msgs3msg6Twist_ISaIvEEES4_E24do_inter_process_publishERKS5_
FN:450,_ZN6rclcpp9PublisherIN15statistics_msgs3msg15MetricsMessage_ISaIvEEES4_E24do_inter_process_publishERKS5_
FN:450,_ZN6rclcpp9PublisherIN13geometry_msgs3msg12PoseStamped_ISaIvEEES4_E24do_inter_process_publishERKS5_
FN:523,_ZN6rclcpp9PublisherIN13geometry_msgs3msg6Twist_ISaIvEEES4_E36do_intra_process_ros_message_publishESt10unique_ptrIS5_St14default_deleteIS5_EE
FN:523,_ZN6rclcpp9PublisherIN15statistics_msgs3msg15MetricsMessage_ISaIvEEES4_E36do_intra_process_ros_message_publishESt10unique_ptrIS5_St14default_deleteIS5_EE
FN:523,_ZN6rclcpp9PublisherIN13geometry_msgs3msg12PoseStamped_ISaIvEEES4_E36do_intra_process_ros_message_publishESt10unique_ptrIS5_St14default_deleteIS5_EE
FN:541,_ZN6rclcpp9PublisherIN15statistics_msgs3msg15MetricsMessage_ISaIvEEES4_E54do_intra_process_ros_message_publish_and_return_sharedESt10unique_ptrIS5_St14default_deleteIS5_EE
FN:541,_ZN6rclcpp9PublisherIN13geometry_msgs3msg6Twist_ISaIvEEES4_E54do_intra_process_ros_message_publish_and_return_sharedESt10unique_ptrIS5_St14default_deleteIS5_EE
FN:541,_ZN6rclcpp9PublisherIN13geometry_msgs3msg12PoseStamped_ISaIvEEES4_E54do_intra_process_ros_message_publish_and_return_sharedESt10unique_ptrIS5_St14default_deleteIS5_EE
FN:572,_ZN6rclcpp9PublisherIN13geometry_msgs3msg12PoseStamped_ISaIvEEES4_E35duplicate_ros_message_as_unique_ptrERKS5_
FN:572,_ZN6rclcpp9PublisherIN15statistics_msgs3msg15MetricsMessage_ISaIvEEES4_E35duplicate_ros_message_as_unique_ptrERKS5_
FN:572,_ZN6rclcpp9PublisherIN13geometry_msgs3msg6Twist_ISaIvEEES4_E35duplicate_ros_message_as_unique_ptrERKS5_
FNDA:0,_ZN6rclcpp9PublisherIN15statistics_msgs3msg15MetricsMessage_ISaIvEEES4_E54do_intra_process_ros_message_publish_and_return_sharedESt10unique_ptrIS5_St14default_deleteIS5_EE
FNDA:0,_ZN6rclcpp9PublisherIN15statistics_msgs3msg15MetricsMessage_ISaIvEEES4_EC2EPNS_15node_interfaces17NodeBaseInterfaceERKNSt7__cxx1112basic_stringIcSt11char_traitsIcESaIcEEERKNS_3QoSERKNS_29PublisherOptionsWithAllocatorIS4_EE
FNDA:0,_ZN6rclcpp9PublisherIN13geometry_msgs3msg6Twist_ISaIvEEES4_E36do_intra_process_ros_message_publishESt10unique_ptrIS5_St14default_deleteIS5_EE
FNDA:0,_ZN6rclcpp9PublisherIN13geometry_msgs3msg6Twist_ISaIvEEES4_E7publishIS5_EENSt9enable_ifIXaasrN23rosidl_generator_traits10is_messageIT_EE5valuesrSt7is_sameISB_S5_E5valueEvE4typeERKSB_
FNDA:0,_ZN6rclcpp9PublisherIN15statistics_msgs3msg15MetricsMessage_ISaIvEEES4_ED0Ev
FNDA:0,_ZN6rclcpp9PublisherIN13geometry_msgs3msg12PoseStamped_ISaIvEEES4_E15post_init_setupEPNS_15node_interfaces17NodeBaseInterfaceERKNSt7__cxx1112basic_stringIcSt11char_traitsIcESaIcEEERKNS_3QoSERKNS_29PublisherOptionsWithAllocatorIS4_EE
FNDA:0,_ZZN6rclcpp9PublisherIN15statistics_msgs3msg15MetricsMessage_ISaIvEEES4_EC4EPNS_15node_interfaces17NodeBaseInterfaceERKNSt7__cxx1112basic_stringIcSt11char_traitsIcESaIcEEERKNS_3QoSERKNS_29PublisherOptionsWithAllocatorIS4_EEENKUlR35rmw_qos_incompatible_event_status_sE_clESQ_
FNDA:0,_ZN6rclcpp9PublisherIN13geometry_msgs3msg12PoseStamped_ISaIvEEES4_EC2EPNS_15node_interfaces17NodeBaseInterfaceERKNSt7__cxx1112basic_stringIcSt11char_traitsIcESaIcEEERKNS_3QoSERKNS_29PublisherOptionsWithAllocatorIS4_EE
FNDA:0,_ZN6rclcpp9PublisherIN13geometry_msgs3msg6Twist_ISaIvEEES4_E15post_init_setupEPNS_15node_interfaces17NodeBaseInterfaceERKNSt7__cxx1112basic_stringIcSt11char_traitsIcESaIcEEERKNS_3QoSERKNS_29PublisherOptionsWithAllocatorIS4_EE
FNDA:0,_ZN6rclcpp9PublisherIN13geometry_msgs3msg6Twist_ISaIvEEES4_E24do_inter_process_publishERKS5_
FNDA:0,_ZN6rclcpp9PublisherIN13geometry_msgs3msg6Twist_ISaIvEEES4_EC2EPNS_15node_interfaces17NodeBaseInterfaceERKNSt7__cxx1112basic_stringIcSt11char_traitsIcESaIcEEERKNS_3QoSERKNS_29PublisherOptionsWithAllocatorIS4_EE
FNDA:0,_ZN6rclcpp9PublisherIN15statistics_msgs3msg15MetricsMessage_ISaIvEEES4_E7publishIS5_EENSt9enable_ifIXaasrN23rosidl_generator_traits10is_messageIT_EE5valuesrSt7is_sameISB_S5_E5valueEvE4typeERKSB_
FNDA:0,_ZN6rclcpp9PublisherIN13geometry_msgs3msg12PoseStamped_ISaIvEEES4_E7publishIS5_EENSt9enable_ifIXaasrN23rosidl_generator_traits10is_messageIT_EE5valuesrSt7is_sameISB_S5_E5valueEvE4typeESt10unique_ptrISB_St14default_deleteIS5_EE
FNDA:0,_ZZN6rclcpp9PublisherIN13geometry_msgs3msg6Twist_ISaIvEEES4_EC4EPNS_15node_interfaces17NodeBaseInterfaceERKNSt7__cxx1112basic_stringIcSt11char_traitsIcESaIcEEERKNS_3QoSERKNS_29PublisherOptionsWithAllocatorIS4_EEENKUlR35rmw_qos_incompatible_event_status_sE_clESQ_
FNDA:0,_ZN6rclcpp9PublisherIN13geometry_msgs3msg12PoseStamped_ISaIvEEES4_E36do_intra_process_ros_message_publishESt10unique_ptrIS5_St14default_deleteIS5_EE
FNDA:0,_ZN6rclcpp9PublisherIN13geometry_msgs3msg6Twist_ISaIvEEES4_E54do_intra_process_ros_message_publish_and_return_sharedESt10unique_ptrIS5_St14default_deleteIS5_EE
FNDA:0,_ZN6rclcpp9PublisherIN15statistics_msgs3msg15MetricsMessage_ISaIvEEES4_E7publishIS5_EENSt9enable_ifIXaasrN23rosidl_generator_traits10is_messageIT_EE5valuesrSt7is_sameISB_S5_E5valueEvE4typeESt10unique_ptrISB_St14default_deleteIS5_EE
FNDA:0,_ZN6rclcpp9PublisherIN13geometry_msgs3msg12PoseStamped_ISaIvEEES4_E7publishIS5_EENSt9enable_ifIXaasrN23rosidl_generator_traits10is_messageIT_EE5valuesrSt7is_sameISB_S5_E5valueEvE4typeERKSB_
FNDA:0,_ZN6rclcpp9PublisherIN13geometry_msgs3msg12PoseStamped_ISaIvEEES4_ED0Ev
FNDA:0,_ZN6rclcpp9PublisherIN15statistics_msgs3msg15MetricsMessage_ISaIvEEES4_E36do_intra_process_ros_message_publishESt10unique_ptrIS5_St14default_deleteIS5_EE
FNDA:0,_ZN6rclcpp9PublisherIN13geometry_msgs3msg12PoseStamped_ISaIvEEES4_ED2Ev
FNDA:0,_ZZN6rclcpp9PublisherIN13geometry_msgs3msg12PoseStamped_ISaIvEEES4_EC4EPNS_15node_interfaces17NodeBaseInterfaceERKNSt7__cxx1112basic_stringIcSt11char_traitsIcESaIcEEERKNS_3QoSERKNS_29PublisherOptionsWithAllocatorIS4_EEENKUlR35rmw_qos_incompatible_event_status_sE_clESQ_
FNDA:0,_ZN6rclcpp9PublisherIN15statistics_msgs3msg15MetricsMessage_ISaIvEEES4_ED2Ev
FNDA:0,_ZN6rclcpp9PublisherIN13geometry_msgs3msg6Twist_ISaIvEEES4_E35duplicate_ros_message_as_unique_ptrERKS5_
FNDA:0,_ZN6rclcpp9PublisherIN15statistics_msgs3msg15MetricsMessage_ISaIvEEES4_E35duplicate_ros_message_as_unique_ptrERKS5_
FNDA:0,_ZN6rclcpp9PublisherIN13geometry_msgs3msg6Twist_ISaIvEEES4_ED0Ev
FNDA:0,_ZN6rclcpp9PublisherIN13geometry_msgs3msg12PoseStamped_ISaIvEEES4_E54do_intra_process_ros_message_publish_and_return_sharedESt10unique_ptrIS5_St14default_deleteIS5_EE
FNDA:0,_ZN6rclcpp9PublisherIN13geometry_msgs3msg6Twist_ISaIvEEES4_ED2Ev
FNDA:0,_ZN6rclcpp9PublisherIN13geometry_msgs3msg12PoseStamped_ISaIvEEES4_E35duplicate_ros_message_as_unique_ptrERKS5_
FNDA:0,_ZN6rclcpp9PublisherIN13geometry_msgs3msg12PoseStamped_ISaIvEEES4_E24do_inter_process_publishERKS5_
FNDA:0,_ZN6rclcpp9PublisherIN15statistics_msgs3msg15MetricsMessage_ISaIvEEES4_E24do_inter_process_publishERKS5_
FNDA:0,_ZN6rclcpp9PublisherIN13geometry_msgs3msg6Twist_ISaIvEEES4_E7publishIS5_EENSt9enable_ifIXaasrN23rosidl_generator_traits10is_messageIT_EE5valuesrSt7is_sameISB_S5_E5valueEvE4typeESt10unique_ptrISB_St14default_deleteIS5_EE
FNDA:0,_ZN6rclcpp9PublisherIN15statistics_msgs3msg15MetricsMessage_ISaIvEEES4_E15post_init_setupEPNS_15node_interfaces17NodeBaseInterfaceERKNSt7__cxx1112basic_stringIcSt11char_traitsIcESaIcEEERKNS_3QoSERKNS_29PublisherOptionsWithAllocatorIS4_EE
FNF:33
FNH:0
DA:125,0
DA:133,0
DA:134,0
DA:135,0
DA:136,0
DA:137,0
DA:139,0
DA:140,0
DA:142,0
DA:143,0
DA:144,0
DA:147,0
DA:148,0
DA:149,0
DA:152,0
DA:153,0
DA:154,0
DA:156,0
DA:159,0
DA:160,0
DA:161,0
DA:164,0
DA:169,0
DA:174,0
DA:185,0
DA:186,0
DA:188,0
DA:190,0
DA:191,0
DA:194,0
DA:195,0
DA:198,0
DA:199,0
DA:202,0
DA:203,0
DA:206,0
DA:207,0
DA:209,0
DA:210,0
DA:251,0
DA:253,0
DA:254,0
DA:255,0
DA:263,0
DA:264,0
DA:266,0
DA:267,0
DA:268,0
DA:269,0
DA:270,0
DA:271,0
DA:292,0
DA:295,0
DA:297,0
DA:302,0
DA:303,0
DA:304,0
DA:450,0
DA:452,0
DA:453,0
DA:455,0
DA:456,0
DA:457,0
DA:458,0
DA:459,0
DA:461,0
DA:465,0
DA:466,0
DA:523,0
DA:525,0
DA:526,0
DA:527,0
DA:530,0
DA:531,0
DA:534,0
DA:536,0
DA:537,0
DA:538,0
DA:541,0
DA:544,0
DA:545,0
DA:546,0
DA:549,0
DA:550,0
DA:556,0
DA:557,0
DA:558,0
DA:572,0
DA:574,0
DA:575,0
DA:576,0
LF:91
LH:0
end_of_record
TN:
SF:/opt/ros/humble/include/rclcpp/rclcpp/publisher_base.hpp
FN:319,_ZN6rclcpp13PublisherBase17add_event_handlerISt8functionIFvR35rmw_qos_incompatible_event_status_sEEEEvRKT_26rcl_publisher_event_type_e
FN:319,_ZN6rclcpp13PublisherBase17add_event_handlerISt8functionIFvR28rmw_liveliness_lost_status_sEEEEvRKT_26rcl_publisher_event_type_e
FN:319,_ZN6rclcpp13PublisherBase17add_event_handlerIZNS_9PublisherIN13geometry_msgs3msg12PoseStamped_ISaIvEEES6_EC4EPNS_15node_interfaces17NodeBaseInterfaceERKNSt7__cxx1112basic_stringIcSt11char_traitsIcESaIcEEERKNS_3QoSERKNS_29PublisherOptionsWithAllocatorIS6_EEEUlR35rmw_qos_incompatible_event_status_sE_EEvRKT_26rcl_publisher_event_type_e
FN:319,_ZN6rclcpp13PublisherBase17add_event_handlerIZNS_9PublisherIN13geometry_msgs3msg6Twist_ISaIvEEES6_EC4EPNS_15node_interfaces17NodeBaseInterfaceERKNSt7__cxx1112basic_stringIcSt11char_traitsIcESaIcEEERKNS_3QoSERKNS_29PublisherOptionsWithAllocatorIS6_EEEUlR35rmw_qos_incompatible_event_status_sE_EEvRKT_26rcl_publisher_event_type_e
FN:319,_ZN6rclcpp13PublisherBase17add_event_handlerISt8functionIFvR36rmw_offered_deadline_missed_status_sEEEEvRKT_26rcl_publisher_event_type_e
FN:319,_ZN6rclcpp13PublisherBase17add_event_handlerIZNS_9PublisherIN15statistics_msgs3msg15MetricsMessage_ISaIvEEES6_EC4EPNS_15node_interfaces17NodeBaseInterfaceERKNSt7__cxx1112basic_stringIcSt11char_traitsIcESaIcEEERKNS_3QoSERKNS_29PublisherOptionsWithAllocatorIS6_EEEUlR35rmw_qos_incompatible_event_status_sE_EEvRKT_26rcl_publisher_event_type_e
FNDA:0,_ZN6rclcpp13PublisherBase17add_event_handlerIZNS_9PublisherIN13geometry_msgs3msg12PoseStamped_ISaIvEEES6_EC4EPNS_15node_interfaces17NodeBaseInterfaceERKNSt7__cxx1112basic_stringIcSt11char_traitsIcESaIcEEERKNS_3QoSERKNS_29PublisherOptionsWithAllocatorIS6_EEEUlR35rmw_qos_incompatible_event_status_sE_EEvRKT_26rcl_publisher_event_type_e
FNDA:0,_ZN6rclcpp13PublisherBase17add_event_handlerIZNS_9PublisherIN13geometry_msgs3msg6Twist_ISaIvEEES6_EC4EPNS_15node_interfaces17NodeBaseInterfaceERKNSt7__cxx1112basic_stringIcSt11char_traitsIcESaIcEEERKNS_3QoSERKNS_29PublisherOptionsWithAllocatorIS6_EEEUlR35rmw_qos_incompatible_event_status_sE_EEvRKT_26rcl_publisher_event_type_e
FNDA:0,_ZN6rclcpp13PublisherBase17add_event_handlerISt8functionIFvR36rmw_offered_deadline_missed_status_sEEEEvRKT_26rcl_publisher_event_type_e
FNDA:0,_ZN6rclcpp13PublisherBase17add_event_handlerIZNS_9PublisherIN15statistics_msgs3msg15MetricsMessage_ISaIvEEES6_EC4EPNS_15node_interfaces17NodeBaseInterfaceERKNSt7__cxx1112basic_stringIcSt11char_traitsIcESaIcEEERKNS_3QoSERKNS_29PublisherOptionsWithAllocatorIS6_EEEUlR35rmw_qos_incompatible_event_status_sE_EEvRKT_26rcl_publisher_event_type_e
FNDA:0,_ZN6rclcpp13PublisherBase17add_event_handlerISt8functionIFvR35rmw_qos_incompatible_event_status_sEEEEvRKT_26rcl_publisher_event_type_e
FNDA:0,_ZN6rclcpp13PublisherBase17add_event_handlerISt8functionIFvR28rmw_liveliness_lost_status_sEEEEvRKT_26rcl_publisher_event_type_e
FNF:6
FNH:0
DA:319,0
DA:323,0
DA:327,0
DA:329,0
DA:330,0
LF:5
LH:0
end_of_record
TN:
SF:/opt/ros/humble/include/rclcpp/rclcpp/publisher_factory.hpp
FN:66,_ZN6rclcpp24create_publisher_factoryIN13geometry_msgs3msg12PoseStamped_ISaIvEEES4_NS_9PublisherIS5_S4_EEEENS_16PublisherFactoryERKNS_29PublisherOptionsWithAllocatorIT0_EE
FN:66,_ZN6rclcpp24create_publisher_factoryIN13geometry_msgs3msg6Twist_ISaIvEEES4_NS_9PublisherIS5_S4_EEEENS_16PublisherFactoryERKNS_29PublisherOptionsWithAllocatorIT0_EE
FN:66,_ZN6rclcpp24create_publisher_factoryIN15statistics_msgs3msg15MetricsMessage_ISaIvEEES4_NS_9PublisherIS5_S4_EEEENS_16PublisherFactoryERKNS_29PublisherOptionsWithAllocatorIT0_EE
FN:70,_ZZN6rclcpp24create_publisher_factoryIN15statistics_msgs3msg15MetricsMessage_ISaIvEEES4_NS_9PublisherIS5_S4_EEEENS_16PublisherFactoryERKNS_29PublisherOptionsWithAllocatorIT0_EEENKUlPNS_15node_interfaces17NodeBaseInterfaceERKNSt7__cxx1112basic_stringIcSt11char_traitsIcESaIcEEERKNS_3QoSEE_clESG_SO_SR_
FN:70,_ZZN6rclcpp24create_publisher_factoryIN13geometry_msgs3msg6Twist_ISaIvEEES4_NS_9PublisherIS5_S4_EEEENS_16PublisherFactoryERKNS_29PublisherOptionsWithAllocatorIT0_EEENKUlPNS_15node_interfaces17NodeBaseInterfaceERKNSt7__cxx1112basic_stringIcSt11char_traitsIcESaIcEEERKNS_3QoSEE_clESG_SO_SR_
FN:70,_ZZN6rclcpp24create_publisher_factoryIN13geometry_msgs3msg12PoseStamped_ISaIvEEES4_NS_9PublisherIS5_S4_EEEENS_16PublisherFactoryERKNS_29PublisherOptionsWithAllocatorIT0_EEENKUlPNS_15node_interfaces17NodeBaseInterfaceERKNSt7__cxx1112basic_stringIcSt11char_traitsIcESaIcEEERKNS_3QoSEE_clESG_SO_SR_
FNDA:0,_ZZN6rclcpp24create_publisher_factoryIN13geometry_msgs3msg6Twist_ISaIvEEES4_NS_9PublisherIS5_S4_EEEENS_16PublisherFactoryERKNS_29PublisherOptionsWithAllocatorIT0_EEENKUlPNS_15node_interfaces17NodeBaseInterfaceERKNSt7__cxx1112basic_stringIcSt11char_traitsIcESaIcEEERKNS_3QoSEE_clESG_SO_SR_
FNDA:0,_ZZN6rclcpp24create_publisher_factoryIN13geometry_msgs3msg12PoseStamped_ISaIvEEES4_NS_9PublisherIS5_S4_EEEENS_16PublisherFactoryERKNS_29PublisherOptionsWithAllocatorIT0_EEENKUlPNS_15node_interfaces17NodeBaseInterfaceERKNSt7__cxx1112basic_stringIcSt11char_traitsIcESaIcEEERKNS_3QoSEE_clESG_SO_SR_
FNDA:0,_ZZN6rclcpp24create_publisher_factoryIN15statistics_msgs3msg15MetricsMessage_ISaIvEEES4_NS_9PublisherIS5_S4_EEEENS_16PublisherFactoryERKNS_29PublisherOptionsWithAllocatorIT0_EEENKUlPNS_15node_interfaces17NodeBaseInterfaceERKNSt7__cxx1112basic_stringIcSt11char_traitsIcESaIcEEERKNS_3QoSEE_clESG_SO_SR_
FNDA:0,_ZN6rclcpp24create_publisher_factoryIN13geometry_msgs3msg12PoseStamped_ISaIvEEES4_NS_9PublisherIS5_S4_EEEENS_16PublisherFactoryERKNS_29PublisherOptionsWithAllocatorIT0_EE
FNDA:0,_ZN6rclcpp24create_publisher_factoryIN15statistics_msgs3msg15MetricsMessage_ISaIvEEES4_NS_9PublisherIS5_S4_EEEENS_16PublisherFactoryERKNS_29PublisherOptionsWithAllocatorIT0_EE
FNDA:0,_ZN6rclcpp24create_publisher_factoryIN13geometry_msgs3msg6Twist_ISaIvEEES4_NS_9PublisherIS5_S4_EEEENS_16PublisherFactoryERKNS_29PublisherOptionsWithAllocatorIT0_EE
FNF:6
FNH:0
DA:66,0
DA:68,0
DA:70,0
DA:76,0
DA:80,0
DA:81,0
DA:82,0
DA:86,0
LF:8
LH:0
end_of_record
TN:
SF:/opt/ros/humble/include/rclcpp/rclcpp/publisher_options.hpp
FN:75,_ZN6rclcpp29PublisherOptionsWithAllocatorISaIvEEC2Ev
FN:85,_ZNK6rclcpp29PublisherOptionsWithAllocatorISaIvEE24to_rcl_publisher_optionsIN13geometry_msgs3msg6Twist_IS1_EEEE23rcl_publisher_options_sRKNS_3QoSE
FN:85,_ZNK6rclcpp29PublisherOptionsWithAllocatorISaIvEE24to_rcl_publisher_optionsIN15statistics_msgs3msg15MetricsMessage_IS1_EEEE23rcl_publisher_options_sRKNS_3QoSE
FN:85,_ZNK6rclcpp29PublisherOptionsWithAllocatorISaIvEE24to_rcl_publisher_optionsIN13geometry_msgs3msg12PoseStamped_IS1_EEEE23rcl_publisher_options_sRKNS_3QoSE
FN:104,_ZNK6rclcpp29PublisherOptionsWithAllocatorISaIvEE13get_allocatorEv
FN:120,_ZNK6rclcpp29PublisherOptionsWithAllocatorISaIvEE17get_rcl_allocatorEv
FNDA:0,_ZNK6rclcpp29PublisherOptionsWithAllocatorISaIvEE13get_allocatorEv
FNDA:0,_ZNK6rclcpp29PublisherOptionsWithAllocatorISaIvEE17get_rcl_allocatorEv
FNDA:0,_ZN6rclcpp29PublisherOptionsWithAllocatorISaIvEEC2Ev
FNDA:0,_ZNK6rclcpp29PublisherOptionsWithAllocatorISaIvEE24to_rcl_publisher_optionsIN13geometry_msgs3msg12PoseStamped_IS1_EEEE23rcl_publisher_options_sRKNS_3QoSE
FNDA:0,_ZNK6rclcpp29PublisherOptionsWithAllocatorISaIvEE24to_rcl_publisher_optionsIN15statistics_msgs3msg15MetricsMessage_IS1_EEEE23rcl_publisher_options_sRKNS_3QoSE
FNDA:0,_ZNK6rclcpp29PublisherOptionsWithAllocatorISaIvEE24to_rcl_publisher_optionsIN13geometry_msgs3msg6Twist_IS1_EEEE23rcl_publisher_options_sRKNS_3QoSE
FNF:6
FNH:0
DA:75,0
DA:85,0
DA:87,0
DA:88,0
DA:89,0
DA:90,0
DA:91,0
DA:94,0
DA:95,0
DA:98,0
DA:104,0
DA:106,0
DA:107,0
DA:108,0
DA:110,0
DA:112,0
DA:120,0
DA:122,0
DA:123,0
DA:124,0
DA:126,0
LF:21
LH:0
end_of_record
TN:
SF:/opt/ros/humble/include/rclcpp/rclcpp/qos_event.hpp
FN:152,_ZN6rclcpp19QOSEventHandlerBase21set_on_ready_callbackESt8functionIFvmiEE
FN:162,_ZZN6rclcpp19QOSEventHandlerBase21set_on_ready_callbackESt8functionIFvmiEEENKUlmE_clEm
FN:202,_ZN6rclcpp19QOSEventHandlerBase23clear_on_ready_callbackEv
FN:227,_ZN6rclcpp15QOSEventHandlerISt8functionIFvR36rmw_offered_deadline_missed_status_sEESt10shared_ptrI15rcl_publisher_sEEC2IPFiP11rcl_event_sPKS7_26rcl_publisher_event_type_eESF_EERKS5_T_S8_T0_
FN:227,_ZN6rclcpp15QOSEventHandlerIZNS_9PublisherIN13geometry_msgs3msg6Twist_ISaIvEEES5_EC4EPNS_15node_interfaces17NodeBaseInterfaceERKNSt7__cxx1112basic_stringIcSt11char_traitsIcESaIcEEERKNS_3QoSERKNS_29PublisherOptionsWithAllocatorIS5_EEEUlR35rmw_qos_incompatible_event_status_sE_St10shared_ptrI15rcl_publisher_sEEC2IPFiP11rcl_event_sPKSU_26rcl_publisher_event_type_eES12_EERKSS_T_SV_T0_
FN:227,_ZN6rclcpp15QOSEventHandlerISt8functionIFvR35rmw_qos_incompatible_event_status_sEESt10shared_ptrI15rcl_publisher_sEEC2IPFiP11rcl_event_sPKS7_26rcl_publisher_event_type_eESF_EERKS5_T_S8_T0_
FN:227,_ZN6rclcpp15QOSEventHandlerISt8functionIFvR25rmw_message_lost_status_sEESt10shared_ptrI18rcl_subscription_sEEC2IPFiP11rcl_event_sPKS7_29rcl_subscription_event_type_eESF_EERKS5_T_S8_T0_
FN:227,_ZN6rclcpp15QOSEventHandlerISt8functionIFvR31rmw_liveliness_changed_status_sEESt10shared_ptrI18rcl_subscription_sEEC2IPFiP11rcl_event_sPKS7_29rcl_subscription_event_type_eESF_EERKS5_T_S8_T0_
FN:227,_ZN6rclcpp15QOSEventHandlerISt8functionIFvR35rmw_qos_incompatible_event_status_sEESt10shared_ptrI18rcl_subscription_sEEC2IPFiP11rcl_event_sPKS7_29rcl_subscription_event_type_eESF_EERKS5_T_S8_T0_
FN:227,_ZN6rclcpp15QOSEventHandlerIZNS_9PublisherIN15statistics_msgs3msg15MetricsMessage_ISaIvEEES5_EC4EPNS_15node_interfaces17NodeBaseInterfaceERKNSt7__cxx1112basic_stringIcSt11char_traitsIcESaIcEEERKNS_3QoSERKNS_29PublisherOptionsWithAllocatorIS5_EEEUlR35rmw_qos_incompatible_event_status_sE_St10shared_ptrI15rcl_publisher_sEEC2IPFiP11rcl_event_sPKSU_26rcl_publisher_event_type_eES12_EERKSS_T_SV_T0_
FN:227,_ZN6rclcpp15QOSEventHandlerIZNS_9PublisherIN13geometry_msgs3msg12PoseStamped_ISaIvEEES5_EC4EPNS_15node_interfaces17NodeBaseInterfaceERKNSt7__cxx1112basic_stringIcSt11char_traitsIcESaIcEEERKNS_3QoSERKNS_29PublisherOptionsWithAllocatorIS5_EEEUlR35rmw_qos_incompatible_event_status_sE_St10shared_ptrI15rcl_publisher_sEEC2IPFiP11rcl_event_sPKSU_26rcl_publisher_event_type_eES12_EERKSS_T_SV_T0_
FN:227,_ZN6rclcpp15QOSEventHandlerIZNS_12SubscriptionIN8nav_msgs3msg9Odometry_ISaIvEEES5_S6_S6_NS_23message_memory_strategy21MessageMemoryStrategyIS6_S5_EEEC4EPNS_15node_interfaces17NodeBaseInterfaceERK29rosidl_message_type_support_tRKNSt7__cxx1112basic_stringIcSt11char_traitsIcESaIcEEERKNS_3QoSENS_23AnySubscriptionCallbackIS6_S5_EERKNS_32SubscriptionOptionsWithAllocatorIS5_EESt10shared_ptrIS9_ESY_INS_16topic_statistics27SubscriptionTopicStatisticsIS6_EEEEUlR35rmw_qos_incompatible_event_status_sE_SY_I18rcl_subscription_sEEC2IPFiP11rcl_event_sPKS17_29rcl_subscription_event_type_eES1F_EERKS16_T_S18_T0_
FN:227,_ZN6rclcpp15QOSEventHandlerISt8functionIFvR28rmw_liveliness_lost_status_sEESt10shared_ptrI15rcl_publisher_sEEC2IPFiP11rcl_event_sPKS7_26rcl_publisher_event_type_eESF_EERKS5_T_S8_T0_
FN:227,_ZN6rclcpp15QOSEventHandlerISt8functionIFvR38rmw_requested_deadline_missed_status_sEESt10shared_ptrI18rcl_subscription_sEEC2IPFiP11rcl_event_sPKS7_29rcl_subscription_event_type_eESF_EERKS5_T_S8_T0_
FN:249,_ZN6rclcpp15QOSEventHandlerISt8functionIFvR31rmw_liveliness_changed_status_sEESt10shared_ptrI18rcl_subscription_sEE9take_dataEv
FN:249,_ZN6rclcpp15QOSEventHandlerISt8functionIFvR28rmw_liveliness_lost_status_sEESt10shared_ptrI15rcl_publisher_sEE9take_dataEv
FN:249,_ZN6rclcpp15QOSEventHandlerISt8functionIFvR36rmw_offered_deadline_missed_status_sEESt10shared_ptrI15rcl_publisher_sEE9take_dataEv
FN:249,_ZN6rclcpp15QOSEventHandlerIZNS_9PublisherIN15statistics_msgs3msg15MetricsMessage_ISaIvEEES5_EC4EPNS_15node_interfaces17NodeBaseInterfaceERKNSt7__cxx1112basic_stringIcSt11char_traitsIcESaIcEEERKNS_3QoSERKNS_29PublisherOptionsWithAllocatorIS5_EEEUlR35rmw_qos_incompatible_event_status_sE_St10shared_ptrI15rcl_publisher_sEE9take_dataEv
FN:249,_ZN6rclcpp15QOSEventHandlerISt8functionIFvR35rmw_qos_incompatible_event_status_sEESt10shared_ptrI15rcl_publisher_sEE9take_dataEv
FN:249,_ZN6rclcpp15QOSEventHandlerISt8functionIFvR25rmw_message_lost_status_sEESt10shared_ptrI18rcl_subscription_sEE9take_dataEv
FN:249,_ZN6rclcpp15QOSEventHandlerIZNS_12SubscriptionIN8nav_msgs3msg9Odometry_ISaIvEEES5_S6_S6_NS_23message_memory_strategy21MessageMemoryStrategyIS6_S5_EEEC4EPNS_15node_interfaces17NodeBaseInterfaceERK29rosidl_message_type_support_tRKNSt7__cxx1112basic_stringIcSt11char_traitsIcESaIcEEERKNS_3QoSENS_23AnySubscriptionCallbackIS6_S5_EERKNS_32SubscriptionOptionsWithAllocatorIS5_EESt10shared_ptrIS9_ESY_INS_16topic_statistics27SubscriptionTopicStatisticsIS6_EEEEUlR35rmw_qos_incompatible_event_status_sE_SY_I18rcl_subscription_sEE9take_dataEv
FN:249,_ZN6rclcpp15QOSEventHandlerIZNS_9PublisherIN13geometry_msgs3msg12PoseStamped_ISaIvEEES5_EC4EPNS_15node_interfaces17NodeBaseInterfaceERKNSt7__cxx1112basic_stringIcSt11char_traitsIcESaIcEEERKNS_3QoSERKNS_29PublisherOptionsWithAllocatorIS5_EEEUlR35rmw_qos_incompatible_event_status_sE_St10shared_ptrI15rcl_publisher_sEE9take_dataEv
FN:249,_ZN6rclcpp15QOSEventHandlerIZNS_9PublisherIN13geometry_msgs3msg6Twist_ISaIvEEES5_EC4EPNS_15node_interfaces17NodeBaseInterfaceERKNSt7__cxx1112basic_stringIcSt11char_traitsIcESaIcEEERKNS_3QoSERKNS_29PublisherOptionsWithAllocatorIS5_EEEUlR35rmw_qos_incompatible_event_status_sE_St10shared_ptrI15rcl_publisher_sEE9take_dataEv
FN:249,_ZN6rclcpp15QOSEventHandlerISt8functionIFvR35rmw_qos_incompatible_event_status_sEESt10shared_ptrI18rcl_subscription_sEE9take_dataEv
FN:249,_ZN6rclcpp15QOSEventHandlerISt8functionIFvR38rmw_requested_deadline_missed_status_sEESt10shared_ptrI18rcl_subscription_sEE9take_dataEv
FN:263,_ZN6rclcpp15QOSEventHandlerIZNS_9PublisherIN13geometry_msgs3msg12PoseStamped_ISaIvEEES5_EC4EPNS_15node_interfaces17NodeBaseInterfaceERKNSt7__cxx1112basic_stringIcSt11char_traitsIcESaIcEEERKNS_3QoSERKNS_29PublisherOptionsWithAllocatorIS5_EEEUlR35rmw_qos_incompatible_event_status_sE_St10shared_ptrI15rcl_publisher_sEE22take_data_by_entity_idEm
FN:263,_ZN6rclcpp15QOSEventHandlerISt8functionIFvR25rmw_message_lost_status_sEESt10shared_ptrI18rcl_subscription_sEE22take_data_by_entity_idEm
FN:263,_ZN6rclcpp15QOSEventHandlerISt8functionIFvR28rmw_liveliness_lost_status_sEESt10shared_ptrI15rcl_publisher_sEE22take_data_by_entity_idEm
FN:263,_ZN6rclcpp15QOSEventHandlerISt8functionIFvR31rmw_liveliness_changed_status_sEESt10shared_ptrI18rcl_subscription_sEE22take_data_by_entity_idEm
FN:263,_ZN6rclcpp15QOSEventHandlerISt8functionIFvR36rmw_offered_deadline_missed_status_sEESt10shared_ptrI15rcl_publisher_sEE22take_data_by_entity_idEm
FN:263,_ZN6rclcpp15QOSEventHandlerIZNS_9PublisherIN15statistics_msgs3msg15MetricsMessage_ISaIvEEES5_EC4EPNS_15node_interfaces17NodeBaseInterfaceERKNSt7__cxx1112basic_stringIcSt11char_traitsIcESaIcEEERKNS_3QoSERKNS_29PublisherOptionsWithAllocatorIS5_EEEUlR35rmw_qos_incompatible_event_status_sE_St10shared_ptrI15rcl_publisher_sEE22take_data_by_entity_idEm
FN:263,_ZN6rclcpp15QOSEventHandlerIZNS_12SubscriptionIN8nav_msgs3msg9Odometry_ISaIvEEES5_S6_S6_NS_23message_memory_strategy21MessageMemoryStrategyIS6_S5_EEEC4EPNS_15node_interfaces17NodeBaseInterfaceERK29rosidl_message_type_support_tRKNSt7__cxx1112basic_stringIcSt11char_traitsIcESaIcEEERKNS_3QoSENS_23AnySubscriptionCallbackIS6_S5_EERKNS_32SubscriptionOptionsWithAllocatorIS5_EESt10shared_ptrIS9_ESY_INS_16topic_statistics27SubscriptionTopicStatisticsIS6_EEEEUlR35rmw_qos_incompatible_event_status_sE_SY_I18rcl_subscription_sEE22take_data_by_entity_idEm
FN:263,_ZN6rclcpp15QOSEventHandlerISt8functionIFvR35rmw_qos_incompatible_event_status_sEESt10shared_ptrI18rcl_subscription_sEE22take_data_by_entity_idEm
FN:263,_ZN6rclcpp15QOSEventHandlerIZNS_9PublisherIN13geometry_msgs3msg6Twist_ISaIvEEES5_EC4EPNS_15node_interfaces17NodeBaseInterfaceERKNSt7__cxx1112basic_stringIcSt11char_traitsIcESaIcEEERKNS_3QoSERKNS_29PublisherOptionsWithAllocatorIS5_EEEUlR35rmw_qos_incompatible_event_status_sE_St10shared_ptrI15rcl_publisher_sEE22take_data_by_entity_idEm
FN:263,_ZN6rclcpp15QOSEventHandlerISt8functionIFvR38rmw_requested_deadline_missed_status_sEESt10shared_ptrI18rcl_subscription_sEE22take_data_by_entity_idEm
FN:263,_ZN6rclcpp15QOSEventHandlerISt8functionIFvR35rmw_qos_incompatible_event_status_sEESt10shared_ptrI15rcl_publisher_sEE22take_data_by_entity_idEm
FN:271,_ZN6rclcpp15QOSEventHandlerIZNS_12SubscriptionIN8nav_msgs3msg9Odometry_ISaIvEEES5_S6_S6_NS_23message_memory_strategy21MessageMemoryStrategyIS6_S5_EEEC4EPNS_15node_interfaces17NodeBaseInterfaceERK29rosidl_message_type_support_tRKNSt7__cxx1112basic_stringIcSt11char_traitsIcESaIcEEERKNS_3QoSENS_23AnySubscriptionCallbackIS6_S5_EERKNS_32SubscriptionOptionsWithAllocatorIS5_EESt10shared_ptrIS9_ESY_INS_16topic_statistics27SubscriptionTopicStatisticsIS6_EEEEUlR35rmw_qos_incompatible_event_status_sE_SY_I18rcl_subscription_sEE7executeERSY_IvE
FN:271,_ZN6rclcpp15QOSEventHandlerISt8functionIFvR31rmw_liveliness_changed_status_sEESt10shared_ptrI18rcl_subscription_sEE7executeERS6_IvE
FN:271,_ZN6rclcpp15QOSEventHandlerIZNS_9PublisherIN15statistics_msgs3msg15MetricsMessage_ISaIvEEES5_EC4EPNS_15node_interfaces17NodeBaseInterfaceERKNSt7__cxx1112basic_stringIcSt11char_traitsIcESaIcEEERKNS_3QoSERKNS_29PublisherOptionsWithAllocatorIS5_EEEUlR35rmw_qos_incompatible_event_status_sE_St10shared_ptrI15rcl_publisher_sEE7executeERST_IvE
FN:271,_ZN6rclcpp15QOSEventHandlerISt8functionIFvR38rmw_requested_deadline_missed_status_sEESt10shared_ptrI18rcl_subscription_sEE7executeERS6_IvE
FN:271,_ZN6rclcpp15QOSEventHandlerISt8functionIFvR35rmw_qos_incompatible_event_status_sEESt10shared_ptrI18rcl_subscription_sEE7executeERS6_IvE
FN:271,_ZN6rclcpp15QOSEventHandlerISt8functionIFvR36rmw_offered_deadline_missed_status_sEESt10shared_ptrI15rcl_publisher_sEE7executeERS6_IvE
FN:271,_ZN6rclcpp15QOSEventHandlerIZNS_9PublisherIN13geometry_msgs3msg6Twist_ISaIvEEES5_EC4EPNS_15node_interfaces17NodeBaseInterfaceERKNSt7__cxx1112basic_stringIcSt11char_traitsIcESaIcEEERKNS_3QoSERKNS_29PublisherOptionsWithAllocatorIS5_EEEUlR35rmw_qos_incompatible_event_status_sE_St10shared_ptrI15rcl_publisher_sEE7executeERST_IvE
FN:271,_ZN6rclcpp15QOSEventHandlerISt8functionIFvR25rmw_message_lost_status_sEESt10shared_ptrI18rcl_subscription_sEE7executeERS6_IvE
FN:271,_ZN6rclcpp15QOSEventHandlerISt8functionIFvR35rmw_qos_incompatible_event_status_sEESt10shared_ptrI15rcl_publisher_sEE7executeERS6_IvE
FN:271,_ZN6rclcpp15QOSEventHandlerISt8functionIFvR28rmw_liveliness_lost_status_sEESt10shared_ptrI15rcl_publisher_sEE7executeERS6_IvE
FN:271,_ZN6rclcpp15QOSEventHandlerIZNS_9PublisherIN13geometry_msgs3msg12PoseStamped_ISaIvEEES5_EC4EPNS_15node_interfaces17NodeBaseInterfaceERKNSt7__cxx1112basic_stringIcSt11char_traitsIcESaIcEEERKNS_3QoSERKNS_29PublisherOptionsWithAllocatorIS5_EEEUlR35rmw_qos_incompatible_event_status_sE_St10shared_ptrI15rcl_publisher_sEE7executeERST_IvE
FNDA:0,_ZN6rclcpp15QOSEventHandlerISt8functionIFvR35rmw_qos_incompatible_event_status_sEESt10shared_ptrI18rcl_subscription_sEE7executeERS6_IvE
FNDA:0,_ZN6rclcpp15QOSEventHandlerISt8functionIFvR25rmw_message_lost_status_sEESt10shared_ptrI18rcl_subscription_sEE9take_dataEv
FNDA:0,_ZN6rclcpp15QOSEventHandlerISt8functionIFvR36rmw_offered_deadline_missed_status_sEESt10shared_ptrI15rcl_publisher_sEE22take_data_by_entity_idEm
FNDA:0,_ZN6rclcpp15QOSEventHandlerIZNS_12SubscriptionIN8nav_msgs3msg9Odometry_ISaIvEEES5_S6_S6_NS_23message_memory_strategy21MessageMemoryStrategyIS6_S5_EEEC4EPNS_15node_interfaces17NodeBaseInterfaceERK29rosidl_message_type_support_tRKNSt7__cxx1112basic_stringIcSt11char_traitsIcESaIcEEERKNS_3QoSENS_23AnySubscriptionCallbackIS6_S5_EERKNS_32SubscriptionOptionsWithAllocatorIS5_EESt10shared_ptrIS9_ESY_INS_16topic_statistics27SubscriptionTopicStatisticsIS6_EEEEUlR35rmw_qos_incompatible_event_status_sE_SY_I18rcl_subscription_sEEC2IPFiP11rcl_event_sPKS17_29rcl_subscription_event_type_eES1F_EERKS16_T_S18_T0_
FNDA:0,_ZN6rclcpp15QOSEventHandlerISt8functionIFvR36rmw_offered_deadline_missed_status_sEESt10shared_ptrI15rcl_publisher_sEE7executeERS6_IvE
FNDA:0,_ZN6rclcpp15QOSEventHandlerIZNS_9PublisherIN13geometry_msgs3msg6Twist_ISaIvEEES5_EC4EPNS_15node_interfaces17NodeBaseInterfaceERKNSt7__cxx1112basic_stringIcSt11char_traitsIcESaIcEEERKNS_3QoSERKNS_29PublisherOptionsWithAllocatorIS5_EEEUlR35rmw_qos_incompatible_event_status_sE_St10shared_ptrI15rcl_publisher_sEE7executeERST_IvE
FNDA:0,_ZN6rclcpp15QOSEventHandlerISt8functionIFvR25rmw_message_lost_status_sEESt10shared_ptrI18rcl_subscription_sEE7executeERS6_IvE
FNDA:0,_ZN6rclcpp15QOSEventHandlerISt8functionIFvR28rmw_liveliness_lost_status_sEESt10shared_ptrI15rcl_publisher_sEEC2IPFiP11rcl_event_sPKS7_26rcl_publisher_event_type_eESF_EERKS5_T_S8_T0_
FNDA:0,_ZN6rclcpp15QOSEventHandlerIZNS_9PublisherIN15statistics_msgs3msg15MetricsMessage_ISaIvEEES5_EC4EPNS_15node_interfaces17NodeBaseInterfaceERKNSt7__cxx1112basic_stringIcSt11char_traitsIcESaIcEEERKNS_3QoSERKNS_29PublisherOptionsWithAllocatorIS5_EEEUlR35rmw_qos_incompatible_event_status_sE_St10shared_ptrI15rcl_publisher_sEE22take_data_by_entity_idEm
FNDA:0,_ZN6rclcpp15QOSEventHandlerIZNS_12SubscriptionIN8nav_msgs3msg9Odometry_ISaIvEEES5_S6_S6_NS_23message_memory_strategy21MessageMemoryStrategyIS6_S5_EEEC4EPNS_15node_interfaces17NodeBaseInterfaceERK29rosidl_message_type_support_tRKNSt7__cxx1112basic_stringIcSt11char_traitsIcESaIcEEERKNS_3QoSENS_23AnySubscriptionCallbackIS6_S5_EERKNS_32SubscriptionOptionsWithAllocatorIS5_EESt10shared_ptrIS9_ESY_INS_16topic_statistics27SubscriptionTopicStatisticsIS6_EEEEUlR35rmw_qos_incompatible_event_status_sE_SY_I18rcl_subscription_sEE9take_dataEv
FNDA:0,_ZN6rclcpp15QOSEventHandlerIZNS_9PublisherIN13geometry_msgs3msg6Twist_ISaIvEEES5_EC4EPNS_15node_interfaces17NodeBaseInterfaceERKNSt7__cxx1112basic_stringIcSt11char_traitsIcESaIcEEERKNS_3QoSERKNS_29PublisherOptionsWithAllocatorIS5_EEEUlR35rmw_qos_incompatible_event_status_sE_St10shared_ptrI15rcl_publisher_sEE9take_dataEv
FNDA:0,_ZN6rclcpp15QOSEventHandlerIZNS_9PublisherIN13geometry_msgs3msg12PoseStamped_ISaIvEEES5_EC4EPNS_15node_interfaces17NodeBaseInterfaceERKNSt7__cxx1112basic_stringIcSt11char_traitsIcESaIcEEERKNS_3QoSERKNS_29PublisherOptionsWithAllocatorIS5_EEEUlR35rmw_qos_incompatible_event_status_sE_St10shared_ptrI15rcl_publisher_sEE9take_dataEv
FNDA:0,_ZN6rclcpp15QOSEventHandlerIZNS_12SubscriptionIN8nav_msgs3msg9Odometry_ISaIvEEES5_S6_S6_NS_23message_memory_strategy21MessageMemoryStrategyIS6_S5_EEEC4EPNS_15node_interfaces17NodeBaseInterfaceERK29rosidl_message_type_support_tRKNSt7__cxx1112basic_stringIcSt11char_traitsIcESaIcEEERKNS_3QoSENS_23AnySubscriptionCallbackIS6_S5_EERKNS_32SubscriptionOptionsWithAllocatorIS5_EESt10shared_ptrIS9_ESY_INS_16topic_statistics27SubscriptionTopicStatisticsIS6_EEEEUlR35rmw_qos_incompatible_event_status_sE_SY_I18rcl_subscription_sEE22take_data_by_entity_idEm
FNDA:0,_ZN6rclcpp15QOSEventHandlerISt8functionIFvR35rmw_qos_incompatible_event_status_sEESt10shared_ptrI18rcl_subscription_sEE9take_dataEv
FNDA:0,_ZN6rclcpp15QOSEventHandlerISt8functionIFvR35rmw_qos_incompatible_event_status_sEESt10shared_ptrI15rcl_publisher_sEE7executeERS6_IvE
FNDA:0,_ZN6rclcpp15QOSEventHandlerISt8functionIFvR35rmw_qos_incompatible_event_status_sEESt10shared_ptrI18rcl_subscription_sEE22take_data_by_entity_idEm
FNDA:0,_ZN6rclcpp15QOSEventHandlerISt8functionIFvR28rmw_liveliness_lost_status_sEESt10shared_ptrI15rcl_publisher_sEE7executeERS6_IvE
FNDA:0,_ZN6rclcpp15QOSEventHandlerISt8functionIFvR38rmw_requested_deadline_missed_status_sEESt10shared_ptrI18rcl_subscription_sEE9take_dataEv
FNDA:0,_ZN6rclcpp15QOSEventHandlerIZNS_9PublisherIN13geometry_msgs3msg6Twist_ISaIvEEES5_EC4EPNS_15node_interfaces17NodeBaseInterfaceERKNSt7__cxx1112basic_stringIcSt11char_traitsIcESaIcEEERKNS_3QoSERKNS_29PublisherOptionsWithAllocatorIS5_EEEUlR35rmw_qos_incompatible_event_status_sE_St10shared_ptrI15rcl_publisher_sEE22take_data_by_entity_idEm
FNDA:0,_ZN6rclcpp15QOSEventHandlerISt8functionIFvR38rmw_requested_deadline_missed_status_sEESt10shared_ptrI18rcl_subscription_sEEC2IPFiP11rcl_event_sPKS7_29rcl_subscription_event_type_eESF_EERKS5_T_S8_T0_
FNDA:0,_ZN6rclcpp19QOSEventHandlerBase21set_on_ready_callbackESt8functionIFvmiEE
FNDA:0,_ZN6rclcpp15QOSEventHandlerISt8functionIFvR38rmw_requested_deadline_missed_status_sEESt10shared_ptrI18rcl_subscription_sEE22take_data_by_entity_idEm
FNDA:0,_ZN6rclcpp15QOSEventHandlerISt8functionIFvR35rmw_qos_incompatible_event_status_sEESt10shared_ptrI15rcl_publisher_sEE22take_data_by_entity_idEm
FNDA:0,_ZN6rclcpp15QOSEventHandlerIZNS_9PublisherIN13geometry_msgs3msg12PoseStamped_ISaIvEEES5_EC4EPNS_15node_interfaces17NodeBaseInterfaceERKNSt7__cxx1112basic_stringIcSt11char_traitsIcESaIcEEERKNS_3QoSERKNS_29PublisherOptionsWithAllocatorIS5_EEEUlR35rmw_qos_incompatible_event_status_sE_St10shared_ptrI15rcl_publisher_sEE7executeERST_IvE
FNDA:0,_ZN6rclcpp15QOSEventHandlerISt8functionIFvR36rmw_offered_deadline_missed_status_sEESt10shared_ptrI15rcl_publisher_sEEC2IPFiP11rcl_event_sPKS7_26rcl_publisher_event_type_eESF_EERKS5_T_S8_T0_
FNDA:0,_ZN6rclcpp15QOSEventHandlerIZNS_9PublisherIN13geometry_msgs3msg12PoseStamped_ISaIvEEES5_EC4EPNS_15node_interfaces17NodeBaseInterfaceERKNSt7__cxx1112basic_stringIcSt11char_traitsIcESaIcEEERKNS_3QoSERKNS_29PublisherOptionsWithAllocatorIS5_EEEUlR35rmw_qos_incompatible_event_status_sE_St10shared_ptrI15rcl_publisher_sEE22take_data_by_entity_idEm
FNDA:0,_ZN6rclcpp15QOSEventHandlerIZNS_9PublisherIN13geometry_msgs3msg6Twist_ISaIvEEES5_EC4EPNS_15node_interfaces17NodeBaseInterfaceERKNSt7__cxx1112basic_stringIcSt11char_traitsIcESaIcEEERKNS_3QoSERKNS_29PublisherOptionsWithAllocatorIS5_EEEUlR35rmw_qos_incompatible_event_status_sE_St10shared_ptrI15rcl_publisher_sEEC2IPFiP11rcl_event_sPKSU_26rcl_publisher_event_type_eES12_EERKSS_T_SV_T0_
FNDA:0,_ZN6rclcpp15QOSEventHandlerISt8functionIFvR35rmw_qos_incompatible_event_status_sEESt10shared_ptrI15rcl_publisher_sEEC2IPFiP11rcl_event_sPKS7_26rcl_publisher_event_type_eESF_EERKS5_T_S8_T0_
FNDA:0,_ZN6rclcpp15QOSEventHandlerISt8functionIFvR25rmw_message_lost_status_sEESt10shared_ptrI18rcl_subscription_sEE22take_data_by_entity_idEm
FNDA:0,_ZN6rclcpp15QOSEventHandlerIZNS_12SubscriptionIN8nav_msgs3msg9Odometry_ISaIvEEES5_S6_S6_NS_23message_memory_strategy21MessageMemoryStrategyIS6_S5_EEEC4EPNS_15node_interfaces17NodeBaseInterfaceERK29rosidl_message_type_support_tRKNSt7__cxx1112basic_stringIcSt11char_traitsIcESaIcEEERKNS_3QoSENS_23AnySubscriptionCallbackIS6_S5_EERKNS_32SubscriptionOptionsWithAllocatorIS5_EESt10shared_ptrIS9_ESY_INS_16topic_statistics27SubscriptionTopicStatisticsIS6_EEEEUlR35rmw_qos_incompatible_event_status_sE_SY_I18rcl_subscription_sEE7executeERSY_IvE
FNDA:0,_ZN6rclcpp15QOSEventHandlerISt8functionIFvR31rmw_liveliness_changed_status_sEESt10shared_ptrI18rcl_subscription_sEE9take_dataEv
FNDA:0,_ZN6rclcpp15QOSEventHandlerISt8functionIFvR28rmw_liveliness_lost_status_sEESt10shared_ptrI15rcl_publisher_sEE9take_dataEv
FNDA:0,_ZN6rclcpp15QOSEventHandlerISt8functionIFvR31rmw_liveliness_changed_status_sEESt10shared_ptrI18rcl_subscription_sEE7executeERS6_IvE
FNDA:0,_ZN6rclcpp15QOSEventHandlerISt8functionIFvR36rmw_offered_deadline_missed_status_sEESt10shared_ptrI15rcl_publisher_sEE9take_dataEv
FNDA:0,_ZN6rclcpp19QOSEventHandlerBase23clear_on_ready_callbackEv
FNDA:0,_ZN6rclcpp15QOSEventHandlerISt8functionIFvR25rmw_message_lost_status_sEESt10shared_ptrI18rcl_subscription_sEEC2IPFiP11rcl_event_sPKS7_29rcl_subscription_event_type_eESF_EERKS5_T_S8_T0_
FNDA:0,_ZN6rclcpp15QOSEventHandlerISt8functionIFvR31rmw_liveliness_changed_status_sEESt10shared_ptrI18rcl_subscription_sEEC2IPFiP11rcl_event_sPKS7_29rcl_subscription_event_type_eESF_EERKS5_T_S8_T0_
FNDA:0,_ZN6rclcpp15QOSEventHandlerIZNS_9PublisherIN15statistics_msgs3msg15MetricsMessage_ISaIvEEES5_EC4EPNS_15node_interfaces17NodeBaseInterfaceERKNSt7__cxx1112basic_stringIcSt11char_traitsIcESaIcEEERKNS_3QoSERKNS_29PublisherOptionsWithAllocatorIS5_EEEUlR35rmw_qos_incompatible_event_status_sE_St10shared_ptrI15rcl_publisher_sEE9take_dataEv
FNDA:0,_ZN6rclcpp15QOSEventHandlerISt8functionIFvR35rmw_qos_incompatible_event_status_sEESt10shared_ptrI18rcl_subscription_sEEC2IPFiP11rcl_event_sPKS7_29rcl_subscription_event_type_eESF_EERKS5_T_S8_T0_
FNDA:0,_ZZN6rclcpp19QOSEventHandlerBase21set_on_ready_callbackESt8functionIFvmiEEENKUlmE_clEm
FNDA:0,_ZN6rclcpp15QOSEventHandlerISt8functionIFvR28rmw_liveliness_lost_status_sEESt10shared_ptrI15rcl_publisher_sEE22take_data_by_entity_idEm
FNDA:0,_ZN6rclcpp15QOSEventHandlerIZNS_9PublisherIN15statistics_msgs3msg15MetricsMessage_ISaIvEEES5_EC4EPNS_15node_interfaces17NodeBaseInterfaceERKNSt7__cxx1112basic_stringIcSt11char_traitsIcESaIcEEERKNS_3QoSERKNS_29PublisherOptionsWithAllocatorIS5_EEEUlR35rmw_qos_incompatible_event_status_sE_St10shared_ptrI15rcl_publisher_sEE7executeERST_IvE
FNDA:0,_ZN6rclcpp15QOSEventHandlerIZNS_9PublisherIN15statistics_msgs3msg15MetricsMessage_ISaIvEEES5_EC4EPNS_15node_interfaces17NodeBaseInterfaceERKNSt7__cxx1112basic_stringIcSt11char_traitsIcESaIcEEERKNS_3QoSERKNS_29PublisherOptionsWithAllocatorIS5_EEEUlR35rmw_qos_incompatible_event_status_sE_St10shared_ptrI15rcl_publisher_sEEC2IPFiP11rcl_event_sPKSU_26rcl_publisher_event_type_eES12_EERKSS_T_SV_T0_
FNDA:0,_ZN6rclcpp15QOSEventHandlerISt8functionIFvR38rmw_requested_deadline_missed_status_sEESt10shared_ptrI18rcl_subscription_sEE7executeERS6_IvE
FNDA:0,_ZN6rclcpp15QOSEventHandlerISt8functionIFvR31rmw_liveliness_changed_status_sEESt10shared_ptrI18rcl_subscription_sEE22take_data_by_entity_idEm
FNDA:0,_ZN6rclcpp15QOSEventHandlerISt8functionIFvR35rmw_qos_incompatible_event_status_sEESt10shared_ptrI15rcl_publisher_sEE9take_dataEv
FNDA:0,_ZN6rclcpp15QOSEventHandlerIZNS_9PublisherIN13geometry_msgs3msg12PoseStamped_ISaIvEEES5_EC4EPNS_15node_interfaces17NodeBaseInterfaceERKNSt7__cxx1112basic_stringIcSt11char_traitsIcESaIcEEERKNS_3QoSERKNS_29PublisherOptionsWithAllocatorIS5_EEEUlR35rmw_qos_incompatible_event_status_sE_St10shared_ptrI15rcl_publisher_sEEC2IPFiP11rcl_event_sPKSU_26rcl_publisher_event_type_eES12_EERKSS_T_SV_T0_
FNF:47
FNH:0
DA:152,0
DA:154,0
DA:155,0
DA:157,0
DA:162,0
DA:164,0
DA:165,0
DA:166,0
DA:173,0
DA:174,0
DA:179,0
DA:180,0
DA:182,0
DA:187,0
DA:192,0
DA:195,0
DA:197,0
DA:198,0
DA:202,0
DA:204,0
DA:205,0
DA:206,0
DA:207,0
DA:209,0
DA:227,0
DA:232,0
DA:234,0
DA:235,0
DA:236,0
DA:237,0
DA:238,0
DA:239,0
DA:240,0
DA:241,0
DA:242,0
DA:245,0
DA:249,0
DA:252,0
DA:253,0
DA:254,0
DA:257,0
DA:259,0
DA:263,0
DA:266,0
DA:271,0
DA:273,0
DA:274,0
DA:276,0
DA:277,0
DA:278,0
DA:279,0
LF:51
LH:0
end_of_record
TN:
SF:/opt/ros/humble/include/rclcpp/rclcpp/qos_overriding_options.hpp
FN:94,_ZN6rclcpp20QosOverridingOptionsC2Ev
FNDA:0,_ZN6rclcpp20QosOverridingOptionsC2Ev
FNF:1
FNH:0
DA:94,0
LF:1
LH:0
end_of_record
TN:
SF:/opt/ros/humble/include/rclcpp/rclcpp/serialized_message.hpp
FNF:0
FNH:0
DA:52,0
LF:1
LH:0
end_of_record
TN:
SF:/opt/ros/humble/include/rclcpp/rclcpp/subscription.hpp
FN:110,_ZN6rclcpp12SubscriptionIN8nav_msgs3msg9Odometry_ISaIvEEES4_S5_S5_NS_23message_memory_strategy21MessageMemoryStrategyIS5_S4_EEE11make_sharedIJRPNS_15node_interfaces17NodeBaseInterfaceERK29rosidl_message_type_support_tRKNSt7__cxx1112basic_stringIcSt11char_traitsIcESaIcEEERKNS_3QoSERKNS_23AnySubscriptionCallbackIS5_S4_EERKNS_32SubscriptionOptionsWithAllocatorIS4_EERKSt10shared_ptrIS8_ERKS11_INS_16topic_statistics27SubscriptionTopicStatisticsIS5_EEEEEES11_IS9_EDpOT_
FN:130,_ZN6rclcpp12SubscriptionIN8nav_msgs3msg9Odometry_ISaIvEEES4_S5_S5_NS_23message_memory_strategy21MessageMemoryStrategyIS5_S4_EEEC2EPNS_15node_interfaces17NodeBaseInterfaceERK29rosidl_message_type_support_tRKNSt7__cxx1112basic_stringIcSt11char_traitsIcESaIcEEERKNS_3QoSENS_23AnySubscriptionCallbackIS5_S4_EERKNS_32SubscriptionOptionsWithAllocatorIS4_EESt10shared_ptrIS8_ESX_INS_16topic_statistics27SubscriptionTopicStatisticsIS5_EEE
FN:167,_ZZN6rclcpp12SubscriptionIN8nav_msgs3msg9Odometry_ISaIvEEES4_S5_S5_NS_23message_memory_strategy21MessageMemoryStrategyIS5_S4_EEEC4EPNS_15node_interfaces17NodeBaseInterfaceERK29rosidl_message_type_support_tRKNSt7__cxx1112basic_stringIcSt11char_traitsIcESaIcEEERKNS_3QoSENS_23AnySubscriptionCallbackIS5_S4_EERKNS_32SubscriptionOptionsWithAllocatorIS4_EESt10shared_ptrIS8_ESX_INS_16topic_statistics27SubscriptionTopicStatisticsIS5_EEEENKUlR35rmw_qos_incompatible_event_status_sE_clES14_
FN:251,_ZN6rclcpp12SubscriptionIN8nav_msgs3msg9Odometry_ISaIvEEES4_S5_S5_NS_23message_memory_strategy21MessageMemoryStrategyIS5_S4_EEE15post_init_setupEPNS_15node_interfaces17NodeBaseInterfaceERKNS_3QoSERKNS_32SubscriptionOptionsWithAllocatorIS4_EE
FN:309,_ZN6rclcpp12SubscriptionIN8nav_msgs3msg9Odometry_ISaIvEEES4_S5_S5_NS_23message_memory_strategy21MessageMemoryStrategyIS5_S4_EEE14create_messageEv
FN:319,_ZN6rclcpp12SubscriptionIN8nav_msgs3msg9Odometry_ISaIvEEES4_S5_S5_NS_23message_memory_strategy21MessageMemoryStrategyIS5_S4_EEE25create_serialized_messageEv
FN:325,_ZN6rclcpp12SubscriptionIN8nav_msgs3msg9Odometry_ISaIvEEES4_S5_S5_NS_23message_memory_strategy21MessageMemoryStrategyIS5_S4_EEE14handle_messageERSt10shared_ptrIvERKNS_11MessageInfoE
FN:353,_ZN6rclcpp12SubscriptionIN8nav_msgs3msg9Odometry_ISaIvEEES4_S5_S5_NS_23message_memory_strategy21MessageMemoryStrategyIS5_S4_EEE25handle_serialized_messageERKSt10shared_ptrINS_17SerializedMessageEERKNS_11MessageInfoE
FN:362,_ZN6rclcpp12SubscriptionIN8nav_msgs3msg9Odometry_ISaIvEEES4_S5_S5_NS_23message_memory_strategy21MessageMemoryStrategyIS5_S4_EEE21handle_loaned_messageEPvRKNS_11MessageInfoE
FN:375,_ZZN6rclcpp12SubscriptionIN8nav_msgs3msg9Odometry_ISaIvEEES4_S5_S5_NS_23message_memory_strategy21MessageMemoryStrategyIS5_S4_EEE21handle_loaned_messageEPvRKNS_11MessageInfoEENKUlPS5_E_clESE_
FN:398,_ZN6rclcpp12SubscriptionIN8nav_msgs3msg9Odometry_ISaIvEEES4_S5_S5_NS_23message_memory_strategy21MessageMemoryStrategyIS5_S4_EEE14return_messageERSt10shared_ptrIvE
FN:409,_ZN6rclcpp12SubscriptionIN8nav_msgs3msg9Odometry_ISaIvEEES4_S5_S5_NS_23message_memory_strategy21MessageMemoryStrategyIS5_S4_EEE25return_serialized_messageERSt10shared_ptrINS_17SerializedMessageEE
FNDA:0,_ZN6rclcpp12SubscriptionIN8nav_msgs3msg9Odometry_ISaIvEEES4_S5_S5_NS_23message_memory_strategy21MessageMemoryStrategyIS5_S4_EEE21handle_loaned_messageEPvRKNS_11MessageInfoE
FNDA:0,_ZN6rclcpp12SubscriptionIN8nav_msgs3msg9Odometry_ISaIvEEES4_S5_S5_NS_23message_memory_strategy21MessageMemoryStrategyIS5_S4_EEEC2EPNS_15node_interfaces17NodeBaseInterfaceERK29rosidl_message_type_support_tRKNSt7__cxx1112basic_stringIcSt11char_traitsIcESaIcEEERKNS_3QoSENS_23AnySubscriptionCallbackIS5_S4_EERKNS_32SubscriptionOptionsWithAllocatorIS4_EESt10shared_ptrIS8_ESX_INS_16topic_statistics27SubscriptionTopicStatisticsIS5_EEE
FNDA:0,_ZN6rclcpp12SubscriptionIN8nav_msgs3msg9Odometry_ISaIvEEES4_S5_S5_NS_23message_memory_strategy21MessageMemoryStrategyIS5_S4_EEE25handle_serialized_messageERKSt10shared_ptrINS_17SerializedMessageEERKNS_11MessageInfoE
FNDA:0,_ZZN6rclcpp12SubscriptionIN8nav_msgs3msg9Odometry_ISaIvEEES4_S5_S5_NS_23message_memory_strategy21MessageMemoryStrategyIS5_S4_EEE21handle_loaned_messageEPvRKNS_11MessageInfoEENKUlPS5_E_clESE_
FNDA:0,_ZZN6rclcpp12SubscriptionIN8nav_msgs3msg9Odometry_ISaIvEEES4_S5_S5_NS_23message_memory_strategy21MessageMemoryStrategyIS5_S4_EEEC4EPNS_15node_interfaces17NodeBaseInterfaceERK29rosidl_message_type_support_tRKNSt7__cxx1112basic_stringIcSt11char_traitsIcESaIcEEERKNS_3QoSENS_23AnySubscriptionCallbackIS5_S4_EERKNS_32SubscriptionOptionsWithAllocatorIS4_EESt10shared_ptrIS8_ESX_INS_16topic_statistics27SubscriptionTopicStatisticsIS5_EEEENKUlR35rmw_qos_incompatible_event_status_sE_clES14_
FNDA:0,_ZN6rclcpp12SubscriptionIN8nav_msgs3msg9Odometry_ISaIvEEES4_S5_S5_NS_23message_memory_strategy21MessageMemoryStrategyIS5_S4_EEE14handle_messageERSt10shared_ptrIvERKNS_11MessageInfoE
FNDA:0,_ZN6rclcpp12SubscriptionIN8nav_msgs3msg9Odometry_ISaIvEEES4_S5_S5_NS_23message_memory_strategy21MessageMemoryStrategyIS5_S4_EEE15post_init_setupEPNS_15node_interfaces17NodeBaseInterfaceERKNS_3QoSERKNS_32SubscriptionOptionsWithAllocatorIS4_EE
FNDA:0,_ZN6rclcpp12SubscriptionIN8nav_msgs3msg9Odometry_ISaIvEEES4_S5_S5_NS_23message_memory_strategy21MessageMemoryStrategyIS5_S4_EEE25create_serialized_messageEv
FNDA:0,_ZN6rclcpp12SubscriptionIN8nav_msgs3msg9Odometry_ISaIvEEES4_S5_S5_NS_23message_memory_strategy21MessageMemoryStrategyIS5_S4_EEE14create_messageEv
FNDA:0,_ZN6rclcpp12SubscriptionIN8nav_msgs3msg9Odometry_ISaIvEEES4_S5_S5_NS_23message_memory_strategy21MessageMemoryStrategyIS5_S4_EEE14return_messageERSt10shared_ptrIvE
FNDA:0,_ZN6rclcpp12SubscriptionIN8nav_msgs3msg9Odometry_ISaIvEEES4_S5_S5_NS_23message_memory_strategy21MessageMemoryStrategyIS5_S4_EEE11make_sharedIJRPNS_15node_interfaces17NodeBaseInterfaceERK29rosidl_message_type_support_tRKNSt7__cxx1112basic_stringIcSt11char_traitsIcESaIcEEERKNS_3QoSERKNS_23AnySubscriptionCallbackIS5_S4_EERKNS_32SubscriptionOptionsWithAllocatorIS4_EERKSt10shared_ptrIS8_ERKS11_INS_16topic_statistics27SubscriptionTopicStatisticsIS5_EEEEEES11_IS9_EDpOT_
FNDA:0,_ZN6rclcpp12SubscriptionIN8nav_msgs3msg9Odometry_ISaIvEEES4_S5_S5_NS_23message_memory_strategy21MessageMemoryStrategyIS5_S4_EEE25return_serialized_messageERSt10shared_ptrINS_17SerializedMessageEE
FNF:12
FNH:0
DA:110,0
DA:130,0
DA:143,0
DA:144,0
DA:145,0
DA:146,0
DA:147,0
DA:149,0
DA:150,0
DA:151,0
DA:154,0
DA:155,0
DA:156,0
DA:159,0
DA:160,0
DA:161,0
DA:163,0
DA:166,0
DA:167,0
DA:168,0
DA:171,0
DA:175,0
DA:176,0
DA:177,0
DA:182,0
DA:186,0
DA:187,0
DA:188,0
DA:191,0
DA:192,0
DA:195,0
DA:196,0
DA:209,0
DA:210,0
DA:214,0
DA:216,0
DA:217,0
DA:224,0
DA:225,0
DA:226,0
DA:227,0
DA:229,0
DA:230,0
DA:233,0
DA:237,0
DA:245,0
DA:247,0
DA:251,0
DA:259,0
DA:309,0
DA:315,0
DA:319,0
DA:321,0
DA:325,0
DA:329,0
DA:332,0
DA:334,0
DA:336,0
DA:337,0
DA:340,0
DA:343,0
DA:345,0
DA:346,0
DA:347,0
DA:348,0
DA:349,0
DA:350,0
DA:353,0
DA:358,0
DA:359,0
DA:362,0
DA:366,0
DA:369,0
DA:372,0
DA:374,0
DA:375,0
DA:377,0
DA:378,0
DA:381,0
DA:384,0
DA:386,0
DA:387,0
DA:388,0
DA:389,0
DA:390,0
DA:391,0
DA:398,0
DA:400,0
DA:401,0
DA:402,0
DA:409,0
DA:411,0
DA:412,0
LF:93
LH:0
end_of_record
TN:
SF:/opt/ros/humble/include/rclcpp/rclcpp/subscription_base.hpp
FN:532,_ZN6rclcpp16SubscriptionBase17add_event_handlerIZNS_12SubscriptionIN8nav_msgs3msg9Odometry_ISaIvEEES6_S7_S7_NS_23message_memory_strategy21MessageMemoryStrategyIS7_S6_EEEC4EPNS_15node_interfaces17NodeBaseInterfaceERK29rosidl_message_type_support_tRKNSt7__cxx1112basic_stringIcSt11char_traitsIcESaIcEEERKNS_3QoSENS_23AnySubscriptionCallbackIS7_S6_EERKNS_32SubscriptionOptionsWithAllocatorIS6_EESt10shared_ptrISA_ESZ_INS_16topic_statistics27SubscriptionTopicStatisticsIS7_EEEEUlR35rmw_qos_incompatible_event_status_sE_EEvRKT_29rcl_subscription_event_type_e
FN:532,_ZN6rclcpp16SubscriptionBase17add_event_handlerISt8functionIFvR31rmw_liveliness_changed_status_sEEEEvRKT_29rcl_subscription_event_type_e
FN:532,_ZN6rclcpp16SubscriptionBase17add_event_handlerISt8functionIFvR35rmw_qos_incompatible_event_status_sEEEEvRKT_29rcl_subscription_event_type_e
FN:532,_ZN6rclcpp16SubscriptionBase17add_event_handlerISt8functionIFvR38rmw_requested_deadline_missed_status_sEEEEvRKT_29rcl_subscription_event_type_e
FN:532,_ZN6rclcpp16SubscriptionBase17add_event_handlerISt8functionIFvR25rmw_message_lost_status_sEEEEvRKT_29rcl_subscription_event_type_e
FNDA:0,_ZN6rclcpp16SubscriptionBase17add_event_handlerISt8functionIFvR25rmw_message_lost_status_sEEEEvRKT_29rcl_subscription_event_type_e
FNDA:0,_ZN6rclcpp16SubscriptionBase17add_event_handlerISt8functionIFvR38rmw_requested_deadline_missed_status_sEEEEvRKT_29rcl_subscription_event_type_e
FNDA:0,_ZN6rclcpp16SubscriptionBase17add_event_handlerISt8functionIFvR35rmw_qos_incompatible_event_status_sEEEEvRKT_29rcl_subscription_event_type_e
FNDA:0,_ZN6rclcpp16SubscriptionBase17add_event_handlerISt8functionIFvR31rmw_liveliness_changed_status_sEEEEvRKT_29rcl_subscription_event_type_e
FNDA:0,_ZN6rclcpp16SubscriptionBase17add_event_handlerIZNS_12SubscriptionIN8nav_msgs3msg9Odometry_ISaIvEEES6_S7_S7_NS_23message_memory_strategy21MessageMemoryStrategyIS7_S6_EEEC4EPNS_15node_interfaces17NodeBaseInterfaceERK29rosidl_message_type_support_tRKNSt7__cxx1112basic_stringIcSt11char_traitsIcESaIcEEERKNS_3QoSENS_23AnySubscriptionCallbackIS7_S6_EERKNS_32SubscriptionOptionsWithAllocatorIS6_EESt10shared_ptrISA_ESZ_INS_16topic_statistics27SubscriptionTopicStatisticsIS7_EEEEUlR35rmw_qos_incompatible_event_status_sE_EEvRKT_29rcl_subscription_event_type_e
FNF:5
FNH:0
DA:532,0
DA:536,0
DA:542,0
DA:543,0
DA:544,0
LF:5
LH:0
end_of_record
TN:
SF:/opt/ros/humble/include/rclcpp/rclcpp/subscription_factory.hpp
FN:82,_ZN6rclcpp27create_subscription_factoryIN8nav_msgs3msg9Odometry_ISaIvEEESt5_BindIFM12InspectorBotFvSt10shared_ptrIS5_EEPS7_St12_PlaceholderILi1EEEES4_NS_12SubscriptionIS5_S4_S5_S5_NS_23message_memory_strategy21MessageMemoryStrategyIS5_S4_EEEESK_S5_EENS_19SubscriptionFactoryEOT0_RKNS_32SubscriptionOptionsWithAllocatorIT1_EENT3_9SharedPtrES8_INS_16topic_statistics27SubscriptionTopicStatisticsIT4_EEE
FN:98,_ZZN6rclcpp27create_subscription_factoryIN8nav_msgs3msg9Odometry_ISaIvEEESt5_BindIFM12InspectorBotFvSt10shared_ptrIS5_EEPS7_St12_PlaceholderILi1EEEES4_NS_12SubscriptionIS5_S4_S5_S5_NS_23message_memory_strategy21MessageMemoryStrategyIS5_S4_EEEESK_S5_EENS_19SubscriptionFactoryEOT0_RKNS_32SubscriptionOptionsWithAllocatorIT1_EENT3_9SharedPtrES8_INS_16topic_statistics27SubscriptionTopicStatisticsIT4_EEEENKUlPNS_15node_interfaces17NodeBaseInterfaceERKNSt7__cxx1112basic_stringIcSt11char_traitsIcESaIcEEERKNS_3QoSEE_clES13_S1B_S1E_
FNDA:0,_ZN6rclcpp27create_subscription_factoryIN8nav_msgs3msg9Odometry_ISaIvEEESt5_BindIFM12InspectorBotFvSt10shared_ptrIS5_EEPS7_St12_PlaceholderILi1EEEES4_NS_12SubscriptionIS5_S4_S5_S5_NS_23message_memory_strategy21MessageMemoryStrategyIS5_S4_EEEESK_S5_EENS_19SubscriptionFactoryEOT0_RKNS_32SubscriptionOptionsWithAllocatorIT1_EENT3_9SharedPtrES8_INS_16topic_statistics27SubscriptionTopicStatisticsIT4_EEE
FNDA:0,_ZZN6rclcpp27create_subscription_factoryIN8nav_msgs3msg9Odometry_ISaIvEEESt5_BindIFM12InspectorBotFvSt10shared_ptrIS5_EEPS7_St12_PlaceholderILi1EEEES4_NS_12SubscriptionIS5_S4_S5_S5_NS_23message_memory_strategy21MessageMemoryStrategyIS5_S4_EEEESK_S5_EENS_19SubscriptionFactoryEOT0_RKNS_32SubscriptionOptionsWithAllocatorIT1_EENT3_9SharedPtrES8_INS_16topic_statistics27SubscriptionTopicStatisticsIT4_EEEENKUlPNS_15node_interfaces17NodeBaseInterfaceERKNSt7__cxx1112basic_stringIcSt11char_traitsIcESaIcEEERKNS_3QoSEE_clES13_S1B_S1E_
FNF:2
FNH:0
DA:82,0
DA:90,0
DA:93,0
DA:94,0
DA:96,0
DA:98,0
DA:107,0
DA:109,0
DA:112,0
DA:113,0
DA:114,0
DA:115,0
DA:119,0
DA:120,0
DA:121,0
DA:122,0
DA:126,0
DA:127,0
LF:18
LH:0
end_of_record
TN:
SF:/opt/ros/humble/include/rclcpp/rclcpp/subscription_options.hpp
FN:100,_ZN6rclcpp32SubscriptionOptionsWithAllocatorISaIvEEC2Ev
FN:115,_ZNK6rclcpp32SubscriptionOptionsWithAllocatorISaIvEE27to_rcl_subscription_optionsIN8nav_msgs3msg9Odometry_IS1_EEEE26rcl_subscription_options_sRKNS_3QoSE
FN:148,_ZNK6rclcpp32SubscriptionOptionsWithAllocatorISaIvEE13get_allocatorEv
FN:164,_ZNK6rclcpp32SubscriptionOptionsWithAllocatorISaIvEE17get_rcl_allocatorEv
FNDA:0,_ZNK6rclcpp32SubscriptionOptionsWithAllocatorISaIvEE17get_rcl_allocatorEv
FNDA:0,_ZN6rclcpp32SubscriptionOptionsWithAllocatorISaIvEEC2Ev
FNDA:0,_ZNK6rclcpp32SubscriptionOptionsWithAllocatorISaIvEE13get_allocatorEv
FNDA:0,_ZNK6rclcpp32SubscriptionOptionsWithAllocatorISaIvEE27to_rcl_subscription_optionsIN8nav_msgs3msg9Odometry_IS1_EEEE26rcl_subscription_options_sRKNS_3QoSE
FNF:4
FNH:0
DA:100,0
DA:115,0
DA:117,0
DA:118,0
DA:119,0
DA:120,0
DA:121,0
DA:122,0
DA:125,0
DA:126,0
DA:130,0
DA:131,0
DA:132,0
DA:133,0
DA:134,0
DA:138,0
DA:139,0
DA:142,0
DA:144,0
DA:148,0
DA:150,0
DA:151,0
DA:152,0
DA:154,0
DA:156,0
DA:164,0
DA:166,0
DA:167,0
DA:168,0
DA:170,0
LF:30
LH:0
end_of_record
TN:
SF:/opt/ros/humble/include/rclcpp/rclcpp/timer.hpp
FN:183,_ZN6rclcpp12GenericTimerIZNS_6detail19create_subscriptionIN8nav_msgs3msg9Odometry_ISaIvEEESt5_BindIFM12InspectorBotFvSt10shared_ptrIS7_EEPS9_St12_PlaceholderILi1EEEES6_NS_12SubscriptionIS7_S6_S7_S7_NS_23message_memory_strategy21MessageMemoryStrategyIS7_S6_EEEESM_NS_4NodeESO_S7_EESA_IT2_ERT4_RT5_RKNSt7__cxx1112basic_stringIcSt11char_traitsIcESaIcEEERKNS_3QoSEOT0_RKNS_32SubscriptionOptionsWithAllocatorIT1_EENT3_9SharedPtrEEUlvE_LPv0EEC2ESA_INS_5ClockEENSt6chrono8durationIlSt5ratioILl1ELl1000000000EEEEOS1F_SA_INS_7ContextEE
FN:200,_ZN6rclcpp12GenericTimerIZNS_6detail19create_subscriptionIN8nav_msgs3msg9Odometry_ISaIvEEESt5_BindIFM12InspectorBotFvSt10shared_ptrIS7_EEPS9_St12_PlaceholderILi1EEEES6_NS_12SubscriptionIS7_S6_S7_S7_NS_23message_memory_strategy21MessageMemoryStrategyIS7_S6_EEEESM_NS_4NodeESO_S7_EESA_IT2_ERT4_RT5_RKNSt7__cxx1112basic_stringIcSt11char_traitsIcESaIcEEERKNS_3QoSEOT0_RKNS_32SubscriptionOptionsWithAllocatorIT1_EENT3_9SharedPtrEEUlvE_LPv0EED2Ev
FN:200,_ZN6rclcpp12GenericTimerIZNS_6detail19create_subscriptionIN8nav_msgs3msg9Odometry_ISaIvEEESt5_BindIFM12InspectorBotFvSt10shared_ptrIS7_EEPS9_St12_PlaceholderILi1EEEES6_NS_12SubscriptionIS7_S6_S7_S7_NS_23message_memory_strategy21MessageMemoryStrategyIS7_S6_EEEESM_NS_4NodeESO_S7_EESA_IT2_ERT4_RT5_RKNSt7__cxx1112basic_stringIcSt11char_traitsIcESaIcEEERKNS_3QoSEOT0_RKNS_32SubscriptionOptionsWithAllocatorIT1_EENT3_9SharedPtrEEUlvE_LPv0EED0Ev
FN:211,_ZN6rclcpp12GenericTimerIZNS_6detail19create_subscriptionIN8nav_msgs3msg9Odometry_ISaIvEEESt5_BindIFM12InspectorBotFvSt10shared_ptrIS7_EEPS9_St12_PlaceholderILi1EEEES6_NS_12SubscriptionIS7_S6_S7_S7_NS_23message_memory_strategy21MessageMemoryStrategyIS7_S6_EEEESM_NS_4NodeESO_S7_EESA_IT2_ERT4_RT5_RKNSt7__cxx1112basic_stringIcSt11char_traitsIcESaIcEEERKNS_3QoSEOT0_RKNS_32SubscriptionOptionsWithAllocatorIT1_EENT3_9SharedPtrEEUlvE_LPv0EE4callEv
FN:227,_ZN6rclcpp12GenericTimerIZNS_6detail19create_subscriptionIN8nav_msgs3msg9Odometry_ISaIvEEESt5_BindIFM12InspectorBotFvSt10shared_ptrIS7_EEPS9_St12_PlaceholderILi1EEEES6_NS_12SubscriptionIS7_S6_S7_S7_NS_23message_memory_strategy21MessageMemoryStrategyIS7_S6_EEEESM_NS_4NodeESO_S7_EESA_IT2_ERT4_RT5_RKNSt7__cxx1112basic_stringIcSt11char_traitsIcESaIcEEERKNS_3QoSEOT0_RKNS_32SubscriptionOptionsWithAllocatorIT1_EENT3_9SharedPtrEEUlvE_LPv0EE16execute_callbackEv
FN:242,_ZN6rclcpp12GenericTimerIZNS_6detail19create_subscriptionIN8nav_msgs3msg9Odometry_ISaIvEEESt5_BindIFM12InspectorBotFvSt10shared_ptrIS7_EEPS9_St12_PlaceholderILi1EEEES6_NS_12SubscriptionIS7_S6_S7_S7_NS_23message_memory_strategy21MessageMemoryStrategyIS7_S6_EEEESM_NS_4NodeESO_S7_EESA_IT2_ERT4_RT5_RKNSt7__cxx1112basic_stringIcSt11char_traitsIcESaIcEEERKNS_3QoSEOT0_RKNS_32SubscriptionOptionsWithAllocatorIT1_EENT3_9SharedPtrEEUlvE_LPv0EE25execute_callback_delegateIS1F_LS1G_0EEEvv
FN:262,_ZN6rclcpp12GenericTimerIZNS_6detail19create_subscriptionIN8nav_msgs3msg9Odometry_ISaIvEEESt5_BindIFM12InspectorBotFvSt10shared_ptrIS7_EEPS9_St12_PlaceholderILi1EEEES6_NS_12SubscriptionIS7_S6_S7_S7_NS_23message_memory_strategy21MessageMemoryStrategyIS7_S6_EEEESM_NS_4NodeESO_S7_EESA_IT2_ERT4_RT5_RKNSt7__cxx1112basic_stringIcSt11char_traitsIcESaIcEEERKNS_3QoSEOT0_RKNS_32SubscriptionOptionsWithAllocatorIT1_EENT3_9SharedPtrEEUlvE_LPv0EE9is_steadyEv
FN:283,_ZN6rclcpp9WallTimerIZNS_6detail19create_subscriptionIN8nav_msgs3msg9Odometry_ISaIvEEESt5_BindIFM12InspectorBotFvSt10shared_ptrIS7_EEPS9_St12_PlaceholderILi1EEEES6_NS_12SubscriptionIS7_S6_S7_S7_NS_23message_memory_strategy21MessageMemoryStrategyIS7_S6_EEEESM_NS_4NodeESO_S7_EESA_IT2_ERT4_RT5_RKNSt7__cxx1112basic_stringIcSt11char_traitsIcESaIcEEERKNS_3QoSEOT0_RKNS_32SubscriptionOptionsWithAllocatorIT1_EENT3_9SharedPtrEEUlvE_LPv0EE11make_sharedIJRKNSt6chrono8durationIlSt5ratioILl1ELl1000000000EEEES1F_SA_INS_7ContextEEEEESA_IS1H_EDpOT_
FN:291,_ZN6rclcpp9WallTimerIZNS_6detail19create_subscriptionIN8nav_msgs3msg9Odometry_ISaIvEEESt5_BindIFM12InspectorBotFvSt10shared_ptrIS7_EEPS9_St12_PlaceholderILi1EEEES6_NS_12SubscriptionIS7_S6_S7_S7_NS_23message_memory_strategy21MessageMemoryStrategyIS7_S6_EEEESM_NS_4NodeESO_S7_EESA_IT2_ERT4_RT5_RKNSt7__cxx1112basic_stringIcSt11char_traitsIcESaIcEEERKNS_3QoSEOT0_RKNS_32SubscriptionOptionsWithAllocatorIT1_EENT3_9SharedPtrEEUlvE_LPv0EEC2ENSt6chrono8durationIlSt5ratioILl1ELl1000000000EEEEOS1F_SA_INS_7ContextEE
FNDA:0,_ZN6rclcpp9WallTimerIZNS_6detail19create_subscriptionIN8nav_msgs3msg9Odometry_ISaIvEEESt5_BindIFM12InspectorBotFvSt10shared_ptrIS7_EEPS9_St12_PlaceholderILi1EEEES6_NS_12SubscriptionIS7_S6_S7_S7_NS_23message_memory_strategy21MessageMemoryStrategyIS7_S6_EEEESM_NS_4NodeESO_S7_EESA_IT2_ERT4_RT5_RKNSt7__cxx1112basic_stringIcSt11char_traitsIcESaIcEEERKNS_3QoSEOT0_RKNS_32SubscriptionOptionsWithAllocatorIT1_EENT3_9SharedPtrEEUlvE_LPv0EEC2ENSt6chrono8durationIlSt5ratioILl1ELl1000000000EEEEOS1F_SA_INS_7ContextEE
FNDA:0,_ZN6rclcpp12GenericTimerIZNS_6detail19create_subscriptionIN8nav_msgs3msg9Odometry_ISaIvEEESt5_BindIFM12InspectorBotFvSt10shared_ptrIS7_EEPS9_St12_PlaceholderILi1EEEES6_NS_12SubscriptionIS7_S6_S7_S7_NS_23message_memory_strategy21MessageMemoryStrategyIS7_S6_EEEESM_NS_4NodeESO_S7_EESA_IT2_ERT4_RT5_RKNSt7__cxx1112basic_stringIcSt11char_traitsIcESaIcEEERKNS_3QoSEOT0_RKNS_32SubscriptionOptionsWithAllocatorIT1_EENT3_9SharedPtrEEUlvE_LPv0EE4callEv
FNDA:0,_ZN6rclcpp12GenericTimerIZNS_6detail19create_subscriptionIN8nav_msgs3msg9Odometry_ISaIvEEESt5_BindIFM12InspectorBotFvSt10shared_ptrIS7_EEPS9_St12_PlaceholderILi1EEEES6_NS_12SubscriptionIS7_S6_S7_S7_NS_23message_memory_strategy21MessageMemoryStrategyIS7_S6_EEEESM_NS_4NodeESO_S7_EESA_IT2_ERT4_RT5_RKNSt7__cxx1112basic_stringIcSt11char_traitsIcESaIcEEERKNS_3QoSEOT0_RKNS_32SubscriptionOptionsWithAllocatorIT1_EENT3_9SharedPtrEEUlvE_LPv0EE9is_steadyEv
FNDA:0,_ZN6rclcpp9WallTimerIZNS_6detail19create_subscriptionIN8nav_msgs3msg9Odometry_ISaIvEEESt5_BindIFM12InspectorBotFvSt10shared_ptrIS7_EEPS9_St12_PlaceholderILi1EEEES6_NS_12SubscriptionIS7_S6_S7_S7_NS_23message_memory_strategy21MessageMemoryStrategyIS7_S6_EEEESM_NS_4NodeESO_S7_EESA_IT2_ERT4_RT5_RKNSt7__cxx1112basic_stringIcSt11char_traitsIcESaIcEEERKNS_3QoSEOT0_RKNS_32SubscriptionOptionsWithAllocatorIT1_EENT3_9SharedPtrEEUlvE_LPv0EE11make_sharedIJRKNSt6chrono8durationIlSt5ratioILl1ELl1000000000EEEES1F_SA_INS_7ContextEEEEESA_IS1H_EDpOT_
FNDA:0,_ZN6rclcpp12GenericTimerIZNS_6detail19create_subscriptionIN8nav_msgs3msg9Odometry_ISaIvEEESt5_BindIFM12InspectorBotFvSt10shared_ptrIS7_EEPS9_St12_PlaceholderILi1EEEES6_NS_12SubscriptionIS7_S6_S7_S7_NS_23message_memory_strategy21MessageMemoryStrategyIS7_S6_EEEESM_NS_4NodeESO_S7_EESA_IT2_ERT4_RT5_RKNSt7__cxx1112basic_stringIcSt11char_traitsIcESaIcEEERKNS_3QoSEOT0_RKNS_32SubscriptionOptionsWithAllocatorIT1_EENT3_9SharedPtrEEUlvE_LPv0EED2Ev
FNDA:0,_ZN6rclcpp12GenericTimerIZNS_6detail19create_subscriptionIN8nav_msgs3msg9Odometry_ISaIvEEESt5_BindIFM12InspectorBotFvSt10shared_ptrIS7_EEPS9_St12_PlaceholderILi1EEEES6_NS_12SubscriptionIS7_S6_S7_S7_NS_23message_memory_strategy21MessageMemoryStrategyIS7_S6_EEEESM_NS_4NodeESO_S7_EESA_IT2_ERT4_RT5_RKNSt7__cxx1112basic_stringIcSt11char_traitsIcESaIcEEERKNS_3QoSEOT0_RKNS_32SubscriptionOptionsWithAllocatorIT1_EENT3_9SharedPtrEEUlvE_LPv0EE25execute_callback_delegateIS1F_LS1G_0EEEvv
FNDA:0,_ZN6rclcpp12GenericTimerIZNS_6detail19create_subscriptionIN8nav_msgs3msg9Odometry_ISaIvEEESt5_BindIFM12InspectorBotFvSt10shared_ptrIS7_EEPS9_St12_PlaceholderILi1EEEES6_NS_12SubscriptionIS7_S6_S7_S7_NS_23message_memory_strategy21MessageMemoryStrategyIS7_S6_EEEESM_NS_4NodeESO_S7_EESA_IT2_ERT4_RT5_RKNSt7__cxx1112basic_stringIcSt11char_traitsIcESaIcEEERKNS_3QoSEOT0_RKNS_32SubscriptionOptionsWithAllocatorIT1_EENT3_9SharedPtrEEUlvE_LPv0EED0Ev
FNDA:0,_ZN6rclcpp12GenericTimerIZNS_6detail19create_subscriptionIN8nav_msgs3msg9Odometry_ISaIvEEESt5_BindIFM12InspectorBotFvSt10shared_ptrIS7_EEPS9_St12_PlaceholderILi1EEEES6_NS_12SubscriptionIS7_S6_S7_S7_NS_23message_memory_strategy21MessageMemoryStrategyIS7_S6_EEEESM_NS_4NodeESO_S7_EESA_IT2_ERT4_RT5_RKNSt7__cxx1112basic_stringIcSt11char_traitsIcESaIcEEERKNS_3QoSEOT0_RKNS_32SubscriptionOptionsWithAllocatorIT1_EENT3_9SharedPtrEEUlvE_LPv0EEC2ESA_INS_5ClockEENSt6chrono8durationIlSt5ratioILl1ELl1000000000EEEEOS1F_SA_INS_7ContextEE
FNDA:0,_ZN6rclcpp12GenericTimerIZNS_6detail19create_subscriptionIN8nav_msgs3msg9Odometry_ISaIvEEESt5_BindIFM12InspectorBotFvSt10shared_ptrIS7_EEPS9_St12_PlaceholderILi1EEEES6_NS_12SubscriptionIS7_S6_S7_S7_NS_23message_memory_strategy21MessageMemoryStrategyIS7_S6_EEEESM_NS_4NodeESO_S7_EESA_IT2_ERT4_RT5_RKNSt7__cxx1112basic_stringIcSt11char_traitsIcESaIcEEERKNS_3QoSEOT0_RKNS_32SubscriptionOptionsWithAllocatorIT1_EENT3_9SharedPtrEEUlvE_LPv0EE16execute_callbackEv
FNF:9
FNH:0
DA:183,0
DA:187,0
DA:189,0
DA:193,0
DA:197,0
DA:200,0
DA:203,0
DA:204,0
DA:211,0
DA:213,0
DA:214,0
DA:215,0
DA:217,0
DA:218,0
DA:220,0
DA:227,0
DA:229,0
DA:230,0
DA:231,0
DA:232,0
DA:242,0
DA:244,0
DA:245,0
DA:262,0
DA:264,0
DA:283,0
DA:291,0
DA:296,0
DA:297,0
LF:29
LH:0
end_of_record
TN:
SF:/opt/ros/humble/include/rclcpp/rclcpp/topic_statistics/subscription_topic_statistics.hpp
FN:80,_ZN6rclcpp16topic_statistics27SubscriptionTopicStatisticsIN8nav_msgs3msg9Odometry_ISaIvEEEEC2ERKNSt7__cxx1112basic_stringIcSt11char_traitsIcESaIcEEESt10shared_ptrINS_9PublisherIN15statistics_msgs3msg15MetricsMessage_IS5_EES5_EEE
FN:95,_ZN6rclcpp16topic_statistics27SubscriptionTopicStatisticsIN8nav_msgs3msg9Odometry_ISaIvEEEED0Ev
FN:95,_ZN6rclcpp16topic_statistics27SubscriptionTopicStatisticsIN8nav_msgs3msg9Odometry_ISaIvEEEED2Ev
FN:107,_ZNK6rclcpp16topic_statistics27SubscriptionTopicStatisticsIN8nav_msgs3msg9Odometry_ISaIvEEEE14handle_messageERKS6_NS_4TimeE
FN:121,_ZN6rclcpp16topic_statistics27SubscriptionTopicStatisticsIN8nav_msgs3msg9Odometry_ISaIvEEEE19set_publisher_timerESt10shared_ptrINS_9TimerBaseEE
FN:130,_ZN6rclcpp16topic_statistics27SubscriptionTopicStatisticsIN8nav_msgs3msg9Odometry_ISaIvEEEE38publish_message_and_reset_measurementsEv
FN:180,_ZN6rclcpp16topic_statistics27SubscriptionTopicStatisticsIN8nav_msgs3msg9Odometry_ISaIvEEEE8bring_upEv
FN:200,_ZN6rclcpp16topic_statistics27SubscriptionTopicStatisticsIN8nav_msgs3msg9Odometry_ISaIvEEEE9tear_downEv
FN:223,_ZNK6rclcpp16topic_statistics27SubscriptionTopicStatisticsIN8nav_msgs3msg9Odometry_ISaIvEEEE35get_current_nanoseconds_since_epochEv
FNDA:0,_ZN6rclcpp16topic_statistics27SubscriptionTopicStatisticsIN8nav_msgs3msg9Odometry_ISaIvEEEE9tear_downEv
FNDA:0,_ZN6rclcpp16topic_statistics27SubscriptionTopicStatisticsIN8nav_msgs3msg9Odometry_ISaIvEEEEC2ERKNSt7__cxx1112basic_stringIcSt11char_traitsIcESaIcEEESt10shared_ptrINS_9PublisherIN15statistics_msgs3msg15MetricsMessage_IS5_EES5_EEE
FNDA:0,_ZNK6rclcpp16topic_statistics27SubscriptionTopicStatisticsIN8nav_msgs3msg9Odometry_ISaIvEEEE14handle_messageERKS6_NS_4TimeE
FNDA:0,_ZNK6rclcpp16topic_statistics27SubscriptionTopicStatisticsIN8nav_msgs3msg9Odometry_ISaIvEEEE35get_current_nanoseconds_since_epochEv
FNDA:0,_ZN6rclcpp16topic_statistics27SubscriptionTopicStatisticsIN8nav_msgs3msg9Odometry_ISaIvEEEED0Ev
FNDA:0,_ZN6rclcpp16topic_statistics27SubscriptionTopicStatisticsIN8nav_msgs3msg9Odometry_ISaIvEEEE19set_publisher_timerESt10shared_ptrINS_9TimerBaseEE
FNDA:0,_ZN6rclcpp16topic_statistics27SubscriptionTopicStatisticsIN8nav_msgs3msg9Odometry_ISaIvEEEED2Ev
FNDA:0,_ZN6rclcpp16topic_statistics27SubscriptionTopicStatisticsIN8nav_msgs3msg9Odometry_ISaIvEEEE8bring_upEv
FNDA:0,_ZN6rclcpp16topic_statistics27SubscriptionTopicStatisticsIN8nav_msgs3msg9Odometry_ISaIvEEEE38publish_message_and_reset_measurementsEv
FNF:9
FNH:0
DA:80,0
DA:83,0
DA:84,0
DA:88,0
DA:89,0
DA:92,0
DA:93,0
DA:95,0
DA:97,0
DA:98,0
DA:107,0
DA:111,0
DA:112,0
DA:113,0
DA:115,0
DA:121,0
DA:123,0
DA:124,0
DA:130,0
DA:132,0
DA:133,0
DA:136,0
DA:137,0
DA:138,0
DA:139,0
DA:141,0
DA:142,0
DA:143,0
DA:144,0
DA:148,0
DA:150,0
DA:152,0
DA:153,0
DA:155,0
DA:156,0
DA:180,0
DA:182,0
DA:183,0
DA:184,0
DA:186,0
DA:187,0
DA:189,0
DA:190,0
DA:191,0
DA:193,0
DA:194,0
DA:200,0
DA:203,0
DA:204,0
DA:205,0
DA:208,0
DA:209,0
DA:211,0
DA:212,0
DA:213,0
DA:216,0
DA:217,0
DA:223,0
DA:225,0
DA:226,0
LF:60
LH:0
end_of_record
TN:
SF:/opt/ros/humble/include/rclcpp/rclcpp/waitable.hpp
FN:36,_ZN6rclcpp8WaitableD2Ev
FN:36,_ZN6rclcpp8WaitableD0Ev
FNDA:0,_ZN6rclcpp8WaitableD0Ev
FNDA:0,_ZN6rclcpp8WaitableD2Ev
FNF:2
FNH:0
DA:36,0
LF:1
LH:0
end_of_record
TN:
SF:/opt/ros/humble/include/rmw/rmw/impl/cpp/demangle.hpp
FN:39,_ZN3rmw4impl3cpp8demangleISt9exceptionEENSt7__cxx1112basic_stringIcSt11char_traitsIcESaIcEEERKT_
FNDA:0,_ZN3rmw4impl3cpp8demangleISt9exceptionEENSt7__cxx1112basic_stringIcSt11char_traitsIcESaIcEEERKT_
FNF:1
FNH:0
DA:39,0
DA:44,0
DA:45,0
DA:47,0
DA:49,0
DA:52,0
DA:56,0
LF:7
LH:0
end_of_record
TN:
SF:/opt/ros/humble/include/rosidl_runtime_cpp/rosidl_runtime_cpp/bounded_vector.hpp
FN:56,_ZN18rosidl_runtime_cpp13BoundedVectorIN14rcl_interfaces3msg19FloatingPointRange_ISaIvEEELm1ESaIS5_EEC2Ev
FN:56,_ZN18rosidl_runtime_cpp13BoundedVectorIN14rcl_interfaces3msg13IntegerRange_ISaIvEEELm1ESaIS5_EEC2Ev
FN:119,_ZN18rosidl_runtime_cpp13BoundedVectorIN14rcl_interfaces3msg13IntegerRange_ISaIvEEELm1ESaIS5_EEC2ERKS7_
FN:119,_ZN18rosidl_runtime_cpp13BoundedVectorIN14rcl_interfaces3msg19FloatingPointRange_ISaIvEEELm1ESaIS5_EEC2ERKS7_
FN:196,_ZN18rosidl_runtime_cpp13BoundedVectorIN14rcl_interfaces3msg13IntegerRange_ISaIvEEELm1ESaIS5_EED2Ev
FN:196,_ZN18rosidl_runtime_cpp13BoundedVectorIN14rcl_interfaces3msg19FloatingPointRange_ISaIvEEELm1ESaIS5_EED2Ev
FNDA:0,_ZN18rosidl_runtime_cpp13BoundedVectorIN14rcl_interfaces3msg19FloatingPointRange_ISaIvEEELm1ESaIS5_EEC2Ev
FNDA:0,_ZN18rosidl_runtime_cpp13BoundedVectorIN14rcl_interfaces3msg19FloatingPointRange_ISaIvEEELm1ESaIS5_EED2Ev
FNDA:0,_ZN18rosidl_runtime_cpp13BoundedVectorIN14rcl_interfaces3msg13IntegerRange_ISaIvEEELm1ESaIS5_EEC2Ev
FNDA:0,_ZN18rosidl_runtime_cpp13BoundedVectorIN14rcl_interfaces3msg19FloatingPointRange_ISaIvEEELm1ESaIS5_EEC2ERKS7_
FNDA:0,_ZN18rosidl_runtime_cpp13BoundedVectorIN14rcl_interfaces3msg13IntegerRange_ISaIvEEELm1ESaIS5_EEC2ERKS7_
FNDA:0,_ZN18rosidl_runtime_cpp13BoundedVectorIN14rcl_interfaces3msg13IntegerRange_ISaIvEEELm1ESaIS5_EED2Ev
FNF:6
FNH:0
DA:56,0
DA:58,0
DA:59,0
DA:119,0
DA:121,0
DA:122,0
DA:196,0
DA:197,0
LF:8
LH:0
end_of_record
TN:
SF:/opt/ros/humble/include/std_msgs/std_msgs/msg/detail/header__struct.hpp
FN:40,_ZN8std_msgs3msg7Header_ISaIvEEC2EN18rosidl_runtime_cpp21MessageInitializationE
FNDA:0,_ZN8std_msgs3msg7Header_ISaIvEEC2EN18rosidl_runtime_cpp21MessageInitializationE
FNF:1
FNH:0
DA:40,0
DA:41,0
DA:43,0
DA:46,0
DA:48,0
LF:5
LH:0
end_of_record
TN:
SF:/opt/ros/humble/include/tracetools/tracetools/utils.hpp
FN:57,_ZN10tracetools10get_symbolIvJRKSt10shared_ptrIKN6rclcpp17SerializedMessageEERKNS2_11MessageInfoEEEEPKcSt8functionIFT_DpT0_EE
FN:57,_ZN10tracetools10get_symbolIvJRKN8nav_msgs3msg9Odometry_ISaIvEEERKN6rclcpp11MessageInfoEEEEPKcSt8functionIFT_DpT0_EE
FN:57,_ZN10tracetools10get_symbolIvJSt10shared_ptrIKN8nav_msgs3msg9Odometry_ISaIvEEEEEEEPKcSt8functionIFT_DpT0_EE
FN:57,_ZN10tracetools10get_symbolIvJRKSt10shared_ptrIKN8nav_msgs3msg9Odometry_ISaIvEEEEEEEPKcSt8functionIFT_DpT0_EE
FN:57,_ZN10tracetools10get_symbolIvJSt10shared_ptrIN6rclcpp17SerializedMessageEERKNS2_11MessageInfoEEEEPKcSt8functionIFT_DpT0_EE
FN:57,_ZN10tracetools10get_symbolIvJSt10shared_ptrIN8nav_msgs3msg9Odometry_ISaIvEEEERKN6rclcpp11MessageInfoEEEEPKcSt8functionIFT_DpT0_EE
FN:57,_ZN10tracetools10get_symbolIvJSt10shared_ptrIN8nav_msgs3msg9Odometry_ISaIvEEEEEEEPKcSt8functionIFT_DpT0_EE
FN:57,_ZN10tracetools10get_symbolIvJSt10shared_ptrIKN6rclcpp17SerializedMessageEEEEEPKcSt8functionIFT_DpT0_EE
FN:57,_ZN10tracetools10get_symbolIvJRKN8nav_msgs3msg9Odometry_ISaIvEEEEEEPKcSt8functionIFT_DpT0_EE
FN:57,_ZN10tracetools10get_symbolIvJSt10unique_ptrIN8nav_msgs3msg9Odometry_ISaIvEEESt14default_deleteIS6_EEEEEPKcSt8functionIFT_DpT0_EE
FN:57,_ZN10tracetools10get_symbolIvJSt10shared_ptrIKN8nav_msgs3msg9Odometry_ISaIvEEEERKN6rclcpp11MessageInfoEEEEPKcSt8functionIFT_DpT0_EE
FN:57,_ZN10tracetools10get_symbolIvJSt10unique_ptrIN8nav_msgs3msg9Odometry_ISaIvEEESt14default_deleteIS6_EERKN6rclcpp11MessageInfoEEEEPKcSt8functionIFT_DpT0_EE
FN:57,_ZN10tracetools10get_symbolIvJRKSt10shared_ptrIKN8nav_msgs3msg9Odometry_ISaIvEEEERKN6rclcpp11MessageInfoEEEEPKcSt8functionIFT_DpT0_EE
FN:57,_ZN10tracetools10get_symbolIvJRKN6rclcpp17SerializedMessageEEEEPKcSt8functionIFT_DpT0_EE
FN:57,_ZN10tracetools10get_symbolIvJSt10shared_ptrIKN6rclcpp17SerializedMessageEERKNS2_11MessageInfoEEEEPKcSt8functionIFT_DpT0_EE
FN:57,_ZN10tracetools10get_symbolIvJRKSt10shared_ptrIKN6rclcpp17SerializedMessageEEEEEPKcSt8functionIFT_DpT0_EE
FN:57,_ZN10tracetools10get_symbolIvJSt10unique_ptrIN6rclcpp17SerializedMessageESt14default_deleteIS3_EERKNS2_11MessageInfoEEEEPKcSt8functionIFT_DpT0_EE
FN:57,_ZN10tracetools10get_symbolIvJSt10unique_ptrIN6rclcpp17SerializedMessageESt14default_deleteIS3_EEEEEPKcSt8functionIFT_DpT0_EE
FN:57,_ZN10tracetools10get_symbolIvJSt10shared_ptrIN6rclcpp17SerializedMessageEEEEEPKcSt8functionIFT_DpT0_EE
FN:57,_ZN10tracetools10get_symbolIvJRKN6rclcpp17SerializedMessageERKNS1_11MessageInfoEEEEPKcSt8functionIFT_DpT0_EE
FN:78,_ZN10tracetools10get_symbolIRZN6rclcpp6detail19create_subscriptionIN8nav_msgs3msg9Odometry_ISaIvEEESt5_BindIFM12InspectorBotFvSt10shared_ptrIS8_EEPSA_St12_PlaceholderILi1EEEES7_NS1_12SubscriptionIS8_S7_S8_S8_NS1_23message_memory_strategy21MessageMemoryStrategyIS8_S7_EEEESN_NS1_4NodeESP_S8_EESB_IT2_ERT4_RT5_RKNSt7__cxx1112basic_stringIcSt11char_traitsIcESaIcEEERKNS1_3QoSEOT0_RKNS1_32SubscriptionOptionsWithAllocatorIT1_EENT3_9SharedPtrEEUlvE_EEPKcOT_
FNDA:0,_ZN10tracetools10get_symbolIvJSt10unique_ptrIN6rclcpp17SerializedMessageESt14default_deleteIS3_EERKNS2_11MessageInfoEEEEPKcSt8functionIFT_DpT0_EE
FNDA:0,_ZN10tracetools10get_symbolIRZN6rclcpp6detail19create_subscriptionIN8nav_msgs3msg9Odometry_ISaIvEEESt5_BindIFM12InspectorBotFvSt10shared_ptrIS8_EEPSA_St12_PlaceholderILi1EEEES7_NS1_12SubscriptionIS8_S7_S8_S8_NS1_23message_memory_strategy21MessageMemoryStrategyIS8_S7_EEEESN_NS1_4NodeESP_S8_EESB_IT2_ERT4_RT5_RKNSt7__cxx1112basic_stringIcSt11char_traitsIcESaIcEEERKNS1_3QoSEOT0_RKNS1_32SubscriptionOptionsWithAllocatorIT1_EENT3_9SharedPtrEEUlvE_EEPKcOT_
FNDA:0,_ZN10tracetools10get_symbolIvJSt10shared_ptrIKN6rclcpp17SerializedMessageEERKNS2_11MessageInfoEEEEPKcSt8functionIFT_DpT0_EE
FNDA:0,_ZN10tracetools10get_symbolIvJRKSt10shared_ptrIKN6rclcpp17SerializedMessageEEEEEPKcSt8functionIFT_DpT0_EE
FNDA:0,_ZN10tracetools10get_symbolIvJRKN6rclcpp17SerializedMessageEEEEPKcSt8functionIFT_DpT0_EE
FNDA:0,_ZN10tracetools10get_symbolIvJRKSt10shared_ptrIKN8nav_msgs3msg9Odometry_ISaIvEEEERKN6rclcpp11MessageInfoEEEEPKcSt8functionIFT_DpT0_EE
FNDA:0,_ZN10tracetools10get_symbolIvJRKN6rclcpp17SerializedMessageERKNS1_11MessageInfoEEEEPKcSt8functionIFT_DpT0_EE
FNDA:0,_ZN10tracetools10get_symbolIvJSt10shared_ptrIN6rclcpp17SerializedMessageEEEEEPKcSt8functionIFT_DpT0_EE
FNDA:0,_ZN10tracetools10get_symbolIvJSt10unique_ptrIN6rclcpp17SerializedMessageESt14default_deleteIS3_EEEEEPKcSt8functionIFT_DpT0_EE
FNDA:0,_ZN10tracetools10get_symbolIvJSt10shared_ptrIKN8nav_msgs3msg9Odometry_ISaIvEEEERKN6rclcpp11MessageInfoEEEEPKcSt8functionIFT_DpT0_EE
FNDA:0,_ZN10tracetools10get_symbolIvJSt10unique_ptrIN8nav_msgs3msg9Odometry_ISaIvEEESt14default_deleteIS6_EERKN6rclcpp11MessageInfoEEEEPKcSt8functionIFT_DpT0_EE
FNDA:0,_ZN10tracetools10get_symbolIvJSt10unique_ptrIN8nav_msgs3msg9Odometry_ISaIvEEESt14default_deleteIS6_EEEEEPKcSt8functionIFT_DpT0_EE
FNDA:0,_ZN10tracetools10get_symbolIvJSt10shared_ptrIN8nav_msgs3msg9Odometry_ISaIvEEEERKN6rclcpp11MessageInfoEEEEPKcSt8functionIFT_DpT0_EE
FNDA:0,_ZN10tracetools10get_symbolIvJSt10shared_ptrIN6rclcpp17SerializedMessageEERKNS2_11MessageInfoEEEEPKcSt8functionIFT_DpT0_EE
FNDA:0,_ZN10tracetools10get_symbolIvJRKN8nav_msgs3msg9Odometry_ISaIvEEEEEEPKcSt8functionIFT_DpT0_EE
FNDA:0,_ZN10tracetools10get_symbolIvJSt10shared_ptrIN8nav_msgs3msg9Odometry_ISaIvEEEEEEEPKcSt8functionIFT_DpT0_EE
FNDA:0,_ZN10tracetools10get_symbolIvJSt10shared_ptrIKN6rclcpp17SerializedMessageEEEEEPKcSt8functionIFT_DpT0_EE
FNDA:0,_ZN10tracetools10get_symbolIvJSt10shared_ptrIKN8nav_msgs3msg9Odometry_ISaIvEEEEEEEPKcSt8functionIFT_DpT0_EE
FNDA:0,_ZN10tracetools10get_symbolIvJRKSt10shared_ptrIKN8nav_msgs3msg9Odometry_ISaIvEEEEEEEPKcSt8functionIFT_DpT0_EE
FNDA:0,_ZN10tracetools10get_symbolIvJRKSt10shared_ptrIKN6rclcpp17SerializedMessageEERKNS2_11MessageInfoEEEEPKcSt8functionIFT_DpT0_EE
FNDA:0,_ZN10tracetools10get_symbolIvJRKN8nav_msgs3msg9Odometry_ISaIvEEERKN6rclcpp11MessageInfoEEEEPKcSt8functionIFT_DpT0_EE
FNF:21
FNH:0
DA:57,0
DA:60,0
DA:62,0
DA:63,0
DA:64,0
DA:67,0
DA:78,0
DA:80,0
LF:8
LH:0
end_of_record
