TN:
SF:/opt/ros/humble/include/rclcpp/rclcpp/node.hpp
FN:80,_ZN6rclcpp4Node11make_sharedIJRA12_KcEEESt10shared_ptrIS0_EDpOT_
FNDA:0,_ZN6rclcpp4Node11make_sharedIJRA12_KcEEESt10shared_ptrIS0_EDpOT_
FN:80,_ZN6rclcpp4Node11make_sharedIJRA10_KcEEESt10shared_ptrIS0_EDpOT_
FNDA:0,_ZN6rclcpp4Node11make_sharedIJRA10_KcEEESt10shared_ptrIS0_EDpOT_
FN:80,_ZN6rclcpp4Node11make_sharedIJRA16_KcEEESt10shared_ptrIS0_EDpOT_
FNDA:0,_ZN6rclcpp4Node11make_sharedIJRA16_KcEEESt10shared_ptrIS0_EDpOT_
DA:80,0
DA:80,0
DA:80,0
end_of_record
SF:/usr/include/c++/11/bits/stl_iterator_base_funcs.h
FN:98,_ZSt10__distanceIN9__gnu_cxx17__normal_iteratorIPKmSt6vectorImSaImEEEEENSt15iterator_traitsIT_E15difference_typeES9_S9_St26random_access_iterator_tag
FNDA:0,_ZSt10__distanceIN9__gnu_cxx17__normal_iteratorIPKmSt6vectorImSaImEEEEENSt15iterator_traitsIT_E15difference_typeES9_S9_St26random_access_iterator_tag
FN:98,_ZSt10__distanceIPcENSt15iterator_traitsIT_E15difference_typeES2_S2_St26random_access_iterator_tag
FNDA:0,_ZSt10__distanceIPcENSt15iterator_traitsIT_E15difference_typeES2_S2_St26random_access_iterator_tag
FN:98,_ZSt10__distanceIPKcENSt15iterator_traitsIT_E15difference_typeES3_S3_St26random_access_iterator_tag
FNDA:0,_ZSt10__distanceIPKcENSt15iterator_traitsIT_E15difference_typeES3_S3_St26random_access_iterator_tag
FN:138,_ZSt8distanceIN9__gnu_cxx17__normal_iteratorIPKmSt6vectorImSaImEEEEENSt15iterator_traitsIT_E15difference_typeES9_S9_
FNDA:0,_ZSt8distanceIN9__gnu_cxx17__normal_iteratorIPKmSt6vectorImSaImEEEEENSt15iterator_traitsIT_E15difference_typeES9_S9_
FN:138,_ZSt8distanceIPcENSt15iterator_traitsIT_E15difference_typeES2_S2_
FNDA:0,_ZSt8distanceIPcENSt15iterator_traitsIT_E15difference_typeES2_S2_
FN:138,_ZSt8distanceIPKcENSt15iterator_traitsIT_E15difference_typeES3_S3_
FNDA:0,_ZSt8distanceIPKcENSt15iterator_traitsIT_E15difference_typeES3_S3_
FN:174,_ZSt9__advanceIN9__gnu_cxx17__normal_iteratorIPKmSt6vectorImSaImEEEElEvRT_T0_St26random_access_iterator_tag
FNDA:0,_ZSt9__advanceIN9__gnu_cxx17__normal_iteratorIPKmSt6vectorImSaImEEEElEvRT_T0_St26random_access_iterator_tag
FN:174,_ZSt9__advanceIN9__gnu_cxx17__normal_iteratorIPmSt6vectorImSaImEEEElEvRT_T0_St26random_access_iterator_tag
FNDA:0,_ZSt9__advanceIN9__gnu_cxx17__normal_iteratorIPmSt6vectorImSaImEEEElEvRT_T0_St26random_access_iterator_tag
FN:202,_ZSt7advanceIN9__gnu_cxx17__normal_iteratorIPKmSt6vectorImSaImEEEEmEvRT_T0_
FNDA:0,_ZSt7advanceIN9__gnu_cxx17__normal_iteratorIPKmSt6vectorImSaImEEEEmEvRT_T0_
FN:202,_ZSt7advanceIN9__gnu_cxx17__normal_iteratorIPmSt6vectorImSaImEEEElEvRT_T0_
FNDA:0,_ZSt7advanceIN9__gnu_cxx17__normal_iteratorIPmSt6vectorImSaImEEEElEvRT_T0_
FN:213,_ZSt4nextIN9__gnu_cxx17__normal_iteratorIPmSt6vectorImSaImEEEEET_S7_NSt15iterator_traitsIS7_E15difference_typeE
FNDA:0,_ZSt4nextIN9__gnu_cxx17__normal_iteratorIPmSt6vectorImSaImEEEEET_S7_NSt15iterator_traitsIS7_E15difference_typeE
DA:98,0
DA:104,0
DA:98,0
DA:104,0
DA:98,0
DA:104,0
DA:138,0
DA:141,0
DA:142,0
DA:138,0
DA:141,0
DA:142,0
DA:138,0
DA:141,0
DA:142,0
DA:174,0
DA:185,0
DA:186,0
DA:174,0
DA:185,0
DA:186,0
DA:202,0
DA:205,0
DA:206,0
DA:207,0
DA:202,0
DA:205,0
DA:206,0
DA:207,0
DA:213,0
DA:218,0
DA:219,0
end_of_record
SF:/home/tarun/ros2_final/src/inspection_bot/include/InspectorBot.hpp
end_of_record
SF:/opt/ros/humble/include/tracetools/tracetools/utils.hpp
FN:57,_ZN10tracetools10get_symbolIvJSt10shared_ptrIN6rclcpp17SerializedMessageEEEEEPKcSt8functionIFT_DpT0_EE
FNDA:0,_ZN10tracetools10get_symbolIvJSt10shared_ptrIN6rclcpp17SerializedMessageEEEEEPKcSt8functionIFT_DpT0_EE
FN:57,_ZN10tracetools10get_symbolIvJRKN8nav_msgs3msg9Odometry_ISaIvEEEEEEPKcSt8functionIFT_DpT0_EE
FNDA:0,_ZN10tracetools10get_symbolIvJRKN8nav_msgs3msg9Odometry_ISaIvEEEEEEPKcSt8functionIFT_DpT0_EE
FN:57,_ZN10tracetools10get_symbolIvJRKN8nav_msgs3msg9Odometry_ISaIvEEERKN6rclcpp11MessageInfoEEEEPKcSt8functionIFT_DpT0_EE
FNDA:0,_ZN10tracetools10get_symbolIvJRKN8nav_msgs3msg9Odometry_ISaIvEEERKN6rclcpp11MessageInfoEEEEPKcSt8functionIFT_DpT0_EE
FN:57,_ZN10tracetools10get_symbolIvJRKN6rclcpp17SerializedMessageEEEEPKcSt8functionIFT_DpT0_EE
FNDA:0,_ZN10tracetools10get_symbolIvJRKN6rclcpp17SerializedMessageEEEEPKcSt8functionIFT_DpT0_EE
FN:57,_ZN10tracetools10get_symbolIvJRKN6rclcpp17SerializedMessageERKNS1_11MessageInfoEEEEPKcSt8functionIFT_DpT0_EE
FNDA:0,_ZN10tracetools10get_symbolIvJRKN6rclcpp17SerializedMessageERKNS1_11MessageInfoEEEEPKcSt8functionIFT_DpT0_EE
FN:57,_ZN10tracetools10get_symbolIvJSt10unique_ptrIN8nav_msgs3msg9Odometry_ISaIvEEESt14default_deleteIS6_EEEEEPKcSt8functionIFT_DpT0_EE
FNDA:0,_ZN10tracetools10get_symbolIvJSt10unique_ptrIN8nav_msgs3msg9Odometry_ISaIvEEESt14default_deleteIS6_EEEEEPKcSt8functionIFT_DpT0_EE
FN:57,_ZN10tracetools10get_symbolIvJSt10unique_ptrIN8nav_msgs3msg9Odometry_ISaIvEEESt14default_deleteIS6_EERKN6rclcpp11MessageInfoEEEEPKcSt8functionIFT_DpT0_EE
FNDA:0,_ZN10tracetools10get_symbolIvJSt10unique_ptrIN8nav_msgs3msg9Odometry_ISaIvEEESt14default_deleteIS6_EERKN6rclcpp11MessageInfoEEEEPKcSt8functionIFT_DpT0_EE
FN:57,_ZN10tracetools10get_symbolIvJSt10unique_ptrIN6rclcpp17SerializedMessageESt14default_deleteIS3_EEEEEPKcSt8functionIFT_DpT0_EE
FNDA:0,_ZN10tracetools10get_symbolIvJSt10unique_ptrIN6rclcpp17SerializedMessageESt14default_deleteIS3_EEEEEPKcSt8functionIFT_DpT0_EE
FN:57,_ZN10tracetools10get_symbolIvJSt10unique_ptrIN6rclcpp17SerializedMessageESt14default_deleteIS3_EERKNS2_11MessageInfoEEEEPKcSt8functionIFT_DpT0_EE
FNDA:0,_ZN10tracetools10get_symbolIvJSt10unique_ptrIN6rclcpp17SerializedMessageESt14default_deleteIS3_EERKNS2_11MessageInfoEEEEPKcSt8functionIFT_DpT0_EE
FN:57,_ZN10tracetools10get_symbolIvJSt10shared_ptrIKN8nav_msgs3msg9Odometry_ISaIvEEEEEEEPKcSt8functionIFT_DpT0_EE
FNDA:0,_ZN10tracetools10get_symbolIvJSt10shared_ptrIKN8nav_msgs3msg9Odometry_ISaIvEEEEEEEPKcSt8functionIFT_DpT0_EE
FN:57,_ZN10tracetools10get_symbolIvJSt10shared_ptrIKN8nav_msgs3msg9Odometry_ISaIvEEEERKN6rclcpp11MessageInfoEEEEPKcSt8functionIFT_DpT0_EE
FNDA:0,_ZN10tracetools10get_symbolIvJSt10shared_ptrIKN8nav_msgs3msg9Odometry_ISaIvEEEERKN6rclcpp11MessageInfoEEEEPKcSt8functionIFT_DpT0_EE
FN:57,_ZN10tracetools10get_symbolIvJSt10shared_ptrIKN6rclcpp17SerializedMessageEEEEEPKcSt8functionIFT_DpT0_EE
FNDA:0,_ZN10tracetools10get_symbolIvJSt10shared_ptrIKN6rclcpp17SerializedMessageEEEEEPKcSt8functionIFT_DpT0_EE
FN:57,_ZN10tracetools10get_symbolIvJSt10shared_ptrIKN6rclcpp17SerializedMessageEERKNS2_11MessageInfoEEEEPKcSt8functionIFT_DpT0_EE
FNDA:0,_ZN10tracetools10get_symbolIvJSt10shared_ptrIKN6rclcpp17SerializedMessageEERKNS2_11MessageInfoEEEEPKcSt8functionIFT_DpT0_EE
FN:57,_ZN10tracetools10get_symbolIvJRKSt10shared_ptrIKN8nav_msgs3msg9Odometry_ISaIvEEEEEEEPKcSt8functionIFT_DpT0_EE
FNDA:0,_ZN10tracetools10get_symbolIvJRKSt10shared_ptrIKN8nav_msgs3msg9Odometry_ISaIvEEEEEEEPKcSt8functionIFT_DpT0_EE
FN:57,_ZN10tracetools10get_symbolIvJRKSt10shared_ptrIKN8nav_msgs3msg9Odometry_ISaIvEEEERKN6rclcpp11MessageInfoEEEEPKcSt8functionIFT_DpT0_EE
FNDA:0,_ZN10tracetools10get_symbolIvJRKSt10shared_ptrIKN8nav_msgs3msg9Odometry_ISaIvEEEERKN6rclcpp11MessageInfoEEEEPKcSt8functionIFT_DpT0_EE
FN:57,_ZN10tracetools10get_symbolIvJRKSt10shared_ptrIKN6rclcpp17SerializedMessageEEEEEPKcSt8functionIFT_DpT0_EE
FNDA:0,_ZN10tracetools10get_symbolIvJRKSt10shared_ptrIKN6rclcpp17SerializedMessageEEEEEPKcSt8functionIFT_DpT0_EE
FN:57,_ZN10tracetools10get_symbolIvJRKSt10shared_ptrIKN6rclcpp17SerializedMessageEERKNS2_11MessageInfoEEEEPKcSt8functionIFT_DpT0_EE
FNDA:0,_ZN10tracetools10get_symbolIvJRKSt10shared_ptrIKN6rclcpp17SerializedMessageEERKNS2_11MessageInfoEEEEPKcSt8functionIFT_DpT0_EE
FN:57,_ZN10tracetools10get_symbolIvJSt10shared_ptrIN8nav_msgs3msg9Odometry_ISaIvEEEEEEEPKcSt8functionIFT_DpT0_EE
FNDA:0,_ZN10tracetools10get_symbolIvJSt10shared_ptrIN8nav_msgs3msg9Odometry_ISaIvEEEEEEEPKcSt8functionIFT_DpT0_EE
FN:57,_ZN10tracetools10get_symbolIvJSt10shared_ptrIN8nav_msgs3msg9Odometry_ISaIvEEEERKN6rclcpp11MessageInfoEEEEPKcSt8functionIFT_DpT0_EE
FNDA:0,_ZN10tracetools10get_symbolIvJSt10shared_ptrIN8nav_msgs3msg9Odometry_ISaIvEEEERKN6rclcpp11MessageInfoEEEEPKcSt8functionIFT_DpT0_EE
FN:57,_ZN10tracetools10get_symbolIvJSt10shared_ptrIN6rclcpp17SerializedMessageEERKNS2_11MessageInfoEEEEPKcSt8functionIFT_DpT0_EE
FNDA:0,_ZN10tracetools10get_symbolIvJSt10shared_ptrIN6rclcpp17SerializedMessageEERKNS2_11MessageInfoEEEEPKcSt8functionIFT_DpT0_EE
FN:78,_ZN10tracetools10get_symbolIRZN6rclcpp6detail19create_subscriptionIN8nav_msgs3msg9Odometry_ISaIvEEESt5_BindIFM12InspectorBotFvSt10shared_ptrIS8_EEPSA_St12_PlaceholderILi1EEEES7_NS1_12SubscriptionIS8_S7_S8_S8_NS1_23message_memory_strategy21MessageMemoryStrategyIS8_S7_EEEESN_NS1_4NodeESP_S8_EESB_IT2_ERT4_RT5_RKNSt7__cxx1112basic_stringIcSt11char_traitsIcESaIcEEERKNS1_3QoSEOT0_RKNS1_32SubscriptionOptionsWithAllocatorIT1_EENT3_9SharedPtrEEUlvE_EEPKcOT_
FNDA:0,_ZN10tracetools10get_symbolIRZN6rclcpp6detail19create_subscriptionIN8nav_msgs3msg9Odometry_ISaIvEEESt5_BindIFM12InspectorBotFvSt10shared_ptrIS8_EEPSA_St12_PlaceholderILi1EEEES7_NS1_12SubscriptionIS8_S7_S8_S8_NS1_23message_memory_strategy21MessageMemoryStrategyIS8_S7_EEEESN_NS1_4NodeESP_S8_EESB_IT2_ERT4_RT5_RKNSt7__cxx1112basic_stringIcSt11char_traitsIcESaIcEEERKNS1_3QoSEOT0_RKNS1_32SubscriptionOptionsWithAllocatorIT1_EENT3_9SharedPtrEEUlvE_EEPKcOT_
DA:57,0
DA:60,0
DA:62,0
DA:63,0
DA:64,0
DA:67,0
DA:57,0
DA:60,0
DA:62,0
DA:63,0
DA:64,0
DA:67,0
DA:57,0
DA:60,0
DA:62,0
DA:63,0
DA:64,0
DA:67,0
DA:57,0
DA:60,0
DA:62,0
DA:63,0
DA:64,0
DA:67,0
DA:57,0
DA:60,0
DA:62,0
DA:63,0
DA:64,0
DA:67,0
DA:57,0
DA:60,0
DA:62,0
DA:63,0
DA:64,0
DA:67,0
DA:57,0
DA:60,0
DA:62,0
DA:63,0
DA:64,0
DA:67,0
DA:57,0
DA:60,0
DA:62,0
DA:63,0
DA:64,0
DA:67,0
DA:57,0
DA:60,0
DA:62,0
DA:63,0
DA:64,0
DA:67,0
DA:57,0
DA:60,0
DA:62,0
DA:63,0
DA:64,0
DA:67,0
DA:57,0
DA:60,0
DA:62,0
DA:63,0
DA:64,0
DA:67,0
DA:57,0
DA:60,0
DA:62,0
DA:63,0
DA:64,0
DA:67,0
DA:57,0
DA:60,0
DA:62,0
DA:63,0
DA:64,0
DA:67,0
DA:57,0
DA:60,0
DA:62,0
DA:63,0
DA:64,0
DA:67,0
DA:57,0
DA:60,0
DA:62,0
DA:63,0
DA:64,0
DA:67,0
DA:57,0
DA:60,0
DA:62,0
DA:63,0
DA:64,0
DA:67,0
DA:57,0
DA:60,0
DA:62,0
DA:63,0
DA:64,0
DA:67,0
DA:57,0
DA:60,0
DA:62,0
DA:63,0
DA:64,0
DA:67,0
DA:57,0
DA:60,0
DA:62,0
DA:63,0
DA:64,0
DA:67,0
DA:57,0
DA:60,0
DA:62,0
DA:63,0
DA:64,0
DA:67,0
DA:78,0
DA:80,0
end_of_record
SF:/opt/ros/humble/include/builtin_interfaces/builtin_interfaces/msg/detail/time__struct.hpp
FN:36,_ZN18builtin_interfaces3msg5Time_ISaIvEEC2EN18rosidl_runtime_cpp21MessageInitializationE
FNDA:0,_ZN18builtin_interfaces3msg5Time_ISaIvEEC2EN18rosidl_runtime_cpp21MessageInitializationE
DA:36,0
DA:38,0
DA:41,0
DA:42,0
DA:44,0
end_of_record
SF:/usr/include/c++/11/bits/cpp_type_traits.h
FN:560,_ZSt12__miter_baseIN9__gnu_cxx17__normal_iteratorIPKN6rclcpp13QosPolicyKindESt6vectorIS3_SaIS3_EEEEET_SA_
FNDA:0,_ZSt12__miter_baseIN9__gnu_cxx17__normal_iteratorIPKN6rclcpp13QosPolicyKindESt6vectorIS3_SaIS3_EEEEET_SA_
FN:560,_ZSt12__miter_baseIN9__gnu_cxx17__normal_iteratorIPKmSt6vectorImSaImEEEEET_S8_
FNDA:0,_ZSt12__miter_baseIN9__gnu_cxx17__normal_iteratorIPKmSt6vectorImSaImEEEEET_S8_
FN:560,_ZSt12__miter_baseIN9__gnu_cxx17__normal_iteratorIPKdSt6vectorIdSaIdEEEEET_S8_
FNDA:0,_ZSt12__miter_baseIN9__gnu_cxx17__normal_iteratorIPKdSt6vectorIdSaIdEEEEET_S8_
FN:560,_ZSt12__miter_baseIN9__gnu_cxx17__normal_iteratorIPKlSt6vectorIlSaIlEEEEET_S8_
FNDA:0,_ZSt12__miter_baseIN9__gnu_cxx17__normal_iteratorIPKlSt6vectorIlSaIlEEEEET_S8_
FN:560,_ZSt12__miter_baseIN9__gnu_cxx17__normal_iteratorIPKhSt6vectorIhSaIhEEEEET_S8_
FNDA:0,_ZSt12__miter_baseIN9__gnu_cxx17__normal_iteratorIPKhSt6vectorIhSaIhEEEEET_S8_
FN:560,_ZSt12__miter_baseISt19_Bit_const_iteratorET_S1_
FNDA:0,_ZSt12__miter_baseISt19_Bit_const_iteratorET_S1_
FN:560,_ZSt12__miter_baseIPmET_S1_
FNDA:0,_ZSt12__miter_baseIPmET_S1_
DA:560,0
DA:561,0
DA:560,0
DA:561,0
DA:560,0
DA:561,0
DA:560,0
DA:561,0
DA:560,0
DA:561,0
DA:560,0
DA:561,0
DA:560,0
DA:561,0
end_of_record
SF:/opt/ros/humble/include/rclcpp/rclcpp/message_memory_strategy.hpp
FN:67,_ZN6rclcpp23message_memory_strategy21MessageMemoryStrategyIN8nav_msgs3msg9Odometry_ISaIvEEES5_EC2ESt10shared_ptrIS5_E
FNDA:0,_ZN6rclcpp23message_memory_strategy21MessageMemoryStrategyIN8nav_msgs3msg9Odometry_ISaIvEEES5_EC2ESt10shared_ptrIS5_E
FN:75,_ZN6rclcpp23message_memory_strategy21MessageMemoryStrategyIN8nav_msgs3msg9Odometry_ISaIvEEES5_ED0Ev
FNDA:0,_ZN6rclcpp23message_memory_strategy21MessageMemoryStrategyIN8nav_msgs3msg9Odometry_ISaIvEEES5_ED0Ev
FN:75,_ZN6rclcpp23message_memory_strategy21MessageMemoryStrategyIN8nav_msgs3msg9Odometry_ISaIvEEES5_ED2Ev
FNDA:0,_ZN6rclcpp23message_memory_strategy21MessageMemoryStrategyIN8nav_msgs3msg9Odometry_ISaIvEEES5_ED2Ev
FN:78,_ZN6rclcpp23message_memory_strategy21MessageMemoryStrategyIN8nav_msgs3msg9Odometry_ISaIvEEES5_E14create_defaultEv
FNDA:0,_ZN6rclcpp23message_memory_strategy21MessageMemoryStrategyIN8nav_msgs3msg9Odometry_ISaIvEEES5_E14create_defaultEv
FN:85,_ZN6rclcpp23message_memory_strategy21MessageMemoryStrategyIN8nav_msgs3msg9Odometry_ISaIvEEES5_E14borrow_messageEv
FNDA:0,_ZN6rclcpp23message_memory_strategy21MessageMemoryStrategyIN8nav_msgs3msg9Odometry_ISaIvEEES5_E14borrow_messageEv
FN:90,_ZN6rclcpp23message_memory_strategy21MessageMemoryStrategyIN8nav_msgs3msg9Odometry_ISaIvEEES5_E25borrow_serialized_messageEm
FNDA:0,_ZN6rclcpp23message_memory_strategy21MessageMemoryStrategyIN8nav_msgs3msg9Odometry_ISaIvEEES5_E25borrow_serialized_messageEm
FN:95,_ZN6rclcpp23message_memory_strategy21MessageMemoryStrategyIN8nav_msgs3msg9Odometry_ISaIvEEES5_E25borrow_serialized_messageEv
FNDA:0,_ZN6rclcpp23message_memory_strategy21MessageMemoryStrategyIN8nav_msgs3msg9Odometry_ISaIvEEES5_E25borrow_serialized_messageEv
FN:100,_ZN6rclcpp23message_memory_strategy21MessageMemoryStrategyIN8nav_msgs3msg9Odometry_ISaIvEEES5_E27set_default_buffer_capacityEm
FNDA:0,_ZN6rclcpp23message_memory_strategy21MessageMemoryStrategyIN8nav_msgs3msg9Odometry_ISaIvEEES5_E27set_default_buffer_capacityEm
FN:107,_ZN6rclcpp23message_memory_strategy21MessageMemoryStrategyIN8nav_msgs3msg9Odometry_ISaIvEEES5_E14return_messageERSt10shared_ptrIS6_E
FNDA:0,_ZN6rclcpp23message_memory_strategy21MessageMemoryStrategyIN8nav_msgs3msg9Odometry_ISaIvEEES5_E14return_messageERSt10shared_ptrIS6_E
FN:112,_ZN6rclcpp23message_memory_strategy21MessageMemoryStrategyIN8nav_msgs3msg9Odometry_ISaIvEEES5_E25return_serialized_messageERSt10shared_ptrINS_17SerializedMessageEE
FNDA:0,_ZN6rclcpp23message_memory_strategy21MessageMemoryStrategyIN8nav_msgs3msg9Odometry_ISaIvEEES5_E25return_serialized_messageERSt10shared_ptrINS_17SerializedMessageEE
DA:67,0
DA:68,0
DA:69,0
DA:70,0
DA:71,0
DA:72,0
DA:73,0
DA:75,0
DA:75,0
DA:78,0
DA:80,0
DA:85,0
DA:87,0
DA:90,0
DA:92,0
DA:95,0
DA:97,0
DA:100,0
DA:102,0
DA:103,0
DA:107,0
DA:109,0
DA:110,0
DA:112,0
DA:115,0
DA:116,0
end_of_record
SF:/opt/ros/humble/include/geometry_msgs/geometry_msgs/msg/detail/twist__struct.hpp
FN:41,_ZN13geometry_msgs3msg6Twist_ISaIvEEC2EN18rosidl_runtime_cpp21MessageInitializationE
FNDA:0,_ZN13geometry_msgs3msg6Twist_ISaIvEEC2EN18rosidl_runtime_cpp21MessageInitializationE
DA:41,0
DA:42,0
DA:43,0
DA:46,0
end_of_record
SF:/opt/ros/humble/include/rclcpp/rclcpp/create_timer.hpp
FN:90,_ZN6rclcpp17create_wall_timerIlSt5ratioILl1ELl1000000000EEZNS_6detail19create_subscriptionIN8nav_msgs3msg9Odometry_ISaIvEEESt5_BindIFM12InspectorBotFvSt10shared_ptrIS9_EEPSB_St12_PlaceholderILi1EEEES8_NS_12SubscriptionIS9_S8_S9_S9_NS_23message_memory_strategy21MessageMemoryStrategyIS9_S8_EEEESO_NS_4NodeESQ_S9_EESC_IT2_ERT4_RT5_RKNSt7__cxx1112basic_stringIcSt11char_traitsIcESaIcEEERKNS_3QoSEOT0_RKNS_32SubscriptionOptionsWithAllocatorIT1_EENT3_9SharedPtrEEUlvE_EENS_9WallTimerIS1B_XLDnEEE9SharedPtrENSt6chrono8durationIT_S18_EES1B_SC_INS_13CallbackGroupEEPNS_15node_interfaces17NodeBaseInterfaceEPNS1R_19NodeTimersInterfaceE
FNDA:0,_ZN6rclcpp17create_wall_timerIlSt5ratioILl1ELl1000000000EEZNS_6detail19create_subscriptionIN8nav_msgs3msg9Odometry_ISaIvEEESt5_BindIFM12InspectorBotFvSt10shared_ptrIS9_EEPSB_St12_PlaceholderILi1EEEES8_NS_12SubscriptionIS9_S8_S9_S9_NS_23message_memory_strategy21MessageMemoryStrategyIS9_S8_EEEESO_NS_4NodeESQ_S9_EESC_IT2_ERT4_RT5_RKNSt7__cxx1112basic_stringIcSt11char_traitsIcESaIcEEERKNS_3QoSEOT0_RKNS_32SubscriptionOptionsWithAllocatorIT1_EENT3_9SharedPtrEEUlvE_EENS_9WallTimerIS1B_XLDnEEE9SharedPtrENSt6chrono8durationIT_S18_EES1B_SC_INS_13CallbackGroupEEPNS_15node_interfaces17NodeBaseInterfaceEPNS1R_19NodeTimersInterfaceE
DA:90,0
DA:97,0
DA:98,0
DA:101,0
DA:102,0
DA:105,0
DA:106,0
DA:111,0
DA:121,0
DA:124,0
DA:125,0
DA:129,0
DA:130,0
DA:131,0
DA:135,0
DA:136,0
DA:137,0
DA:138,0
DA:139,0
end_of_record
SF:/usr/include/c++/11/bits/unique_lock.h
FN:66,_ZNSt11unique_lockISt5mutexEC2ERS0_
FNDA:0,_ZNSt11unique_lockISt5mutexEC2ERS0_
FN:101,_ZNSt11unique_lockISt5mutexED2Ev
FNDA:0,_ZNSt11unique_lockISt5mutexED2Ev
FN:131,_ZNSt11unique_lockISt5mutexE4lockEv
FNDA:0,_ZNSt11unique_lockISt5mutexE4lockEv
FN:189,_ZNSt11unique_lockISt5mutexE6unlockEv
FNDA:0,_ZNSt11unique_lockISt5mutexE6unlockEv
DA:66,0
DA:67,0
DA:69,0
DA:70,0
DA:71,0
DA:101,0
DA:103,0
DA:104,0
DA:105,0
DA:131,0
DA:133,0
DA:134,0
DA:135,0
DA:136,0
DA:139,0
DA:140,0
DA:142,0
DA:189,0
DA:191,0
DA:192,0
DA:193,0
DA:195,0
DA:196,0
DA:198,0
end_of_record
SF:/opt/ros/humble/include/rclcpp/rclcpp/qos_overriding_options.hpp
FN:94,_ZN6rclcpp20QosOverridingOptionsC2Ev
FNDA:0,_ZN6rclcpp20QosOverridingOptionsC2Ev
DA:94,0
end_of_record
SF:/usr/include/c++/11/atomic
FN:76,_ZNSt6atomicIbEC2Eb
FNDA:0,_ZNSt6atomicIbEC2Eb
DA:76,0
end_of_record
SF:/usr/include/c++/11/bits/functional_hash.h
FN:92,_ZNKSt11__hash_enumI29rcl_subscription_event_type_eLb1EEclES0_
FNDA:0,_ZNKSt11__hash_enumI29rcl_subscription_event_type_eLb1EEclES0_
FN:92,_ZNKSt11__hash_enumI26rcl_publisher_event_type_eLb1EEclES0_
FNDA:0,_ZNKSt11__hash_enumI26rcl_publisher_event_type_eLb1EEclES0_
FN:110,_ZNKSt4hashIPN6rclcpp19QOSEventHandlerBaseEEclES2_
FNDA:0,_ZNKSt4hashIPN6rclcpp19QOSEventHandlerBaseEEclES2_
FN:166,_ZNKSt4hashIjEclEj
FNDA:0,_ZNKSt4hashIjEclEj
FN:169,_ZNKSt4hashImEclEm
FNDA:0,_ZNKSt4hashImEclEm
DA:92,0
DA:95,0
DA:92,0
DA:95,0
DA:110,0
DA:111,0
DA:166,0
DA:169,0
end_of_record
SF:/opt/ros/humble/include/rclcpp/rclcpp/experimental/subscription_intra_process.hpp
FN:74,_ZN6rclcpp12experimental24SubscriptionIntraProcessIN8nav_msgs3msg9Odometry_ISaIvEEES6_SaIS6_ESt14default_deleteIS6_ES6_S5_EC2ENS_23AnySubscriptionCallbackIS6_S5_EESt10shared_ptrIS5_ESD_INS_7ContextEERKNSt7__cxx1112basic_stringIcSt11char_traitsIcESaIcEEERKNS_3QoSENS_22IntraProcessBufferTypeE
FNDA:0,_ZN6rclcpp12experimental24SubscriptionIntraProcessIN8nav_msgs3msg9Odometry_ISaIvEEES6_SaIS6_ESt14default_deleteIS6_ES6_S5_EC2ENS_23AnySubscriptionCallbackIS6_S5_EESt10shared_ptrIS5_ESD_INS_7ContextEERKNSt7__cxx1112basic_stringIcSt11char_traitsIcESaIcEEERKNS_3QoSENS_22IntraProcessBufferTypeE
FN:102,_ZN6rclcpp12experimental24SubscriptionIntraProcessIN8nav_msgs3msg9Odometry_ISaIvEEES6_SaIS6_ESt14default_deleteIS6_ES6_S5_ED0Ev
FNDA:0,_ZN6rclcpp12experimental24SubscriptionIntraProcessIN8nav_msgs3msg9Odometry_ISaIvEEES6_SaIS6_ESt14default_deleteIS6_ES6_S5_ED0Ev
FN:102,_ZN6rclcpp12experimental24SubscriptionIntraProcessIN8nav_msgs3msg9Odometry_ISaIvEEES6_SaIS6_ESt14default_deleteIS6_ES6_S5_ED2Ev
FNDA:0,_ZN6rclcpp12experimental24SubscriptionIntraProcessIN8nav_msgs3msg9Odometry_ISaIvEEES6_SaIS6_ESt14default_deleteIS6_ES6_S5_ED2Ev
FN:105,_ZN6rclcpp12experimental24SubscriptionIntraProcessIN8nav_msgs3msg9Odometry_ISaIvEEES6_SaIS6_ESt14default_deleteIS6_ES6_S5_E9take_dataEv
FNDA:0,_ZN6rclcpp12experimental24SubscriptionIntraProcessIN8nav_msgs3msg9Odometry_ISaIvEEES6_SaIS6_ESt14default_deleteIS6_ES6_S5_E9take_dataEv
FN:135,_ZN6rclcpp12experimental24SubscriptionIntraProcessIN8nav_msgs3msg9Odometry_ISaIvEEES6_SaIS6_ESt14default_deleteIS6_ES6_S5_E7executeERSt10shared_ptrIvE
FNDA:0,_ZN6rclcpp12experimental24SubscriptionIntraProcessIN8nav_msgs3msg9Odometry_ISaIvEEES6_SaIS6_ESt14default_deleteIS6_ES6_S5_E7executeERSt10shared_ptrIvE
FN:151,_ZN6rclcpp12experimental24SubscriptionIntraProcessIN8nav_msgs3msg9Odometry_ISaIvEEES6_SaIS6_ESt14default_deleteIS6_ES6_S5_E12execute_implIS6_EENSt9enable_ifIXntsrSt7is_sameIT_21rcutils_uint8_array_sE5valueEvE4typeERSt10shared_ptrIvE
FNDA:0,_ZN6rclcpp12experimental24SubscriptionIntraProcessIN8nav_msgs3msg9Odometry_ISaIvEEES6_SaIS6_ESt14default_deleteIS6_ES6_S5_E12execute_implIS6_EENSt9enable_ifIXntsrSt7is_sameIT_21rcutils_uint8_array_sE5valueEvE4typeERSt10shared_ptrIvE
DA:74,0
DA:83,0
DA:88,0
DA:90,0
DA:98,0
DA:100,0
DA:102,0
DA:102,0
DA:105,0
DA:107,0
DA:108,0
DA:110,0
DA:111,0
DA:112,0
DA:113,0
DA:116,0
DA:117,0
DA:118,0
DA:122,0
DA:125,0
DA:130,0
DA:131,0
DA:132,0
DA:133,0
DA:135,0
DA:137,0
DA:138,0
DA:151,0
DA:153,0
DA:154,0
DA:158,0
DA:159,0
DA:161,0
DA:164,0
DA:165,0
DA:166,0
DA:167,0
DA:168,0
DA:169,0
DA:170,0
DA:171,0
DA:172,0
end_of_record
SF:/usr/include/c++/11/array
FN:60,_ZNSt14__array_traitsIN6rclcpp13QosPolicyKindELm8EE6_S_ptrERA8_KS1_
FNDA:0,_ZNSt14__array_traitsIN6rclcpp13QosPolicyKindELm8EE6_S_ptrERA8_KS1_
FN:60,_ZNSt14__array_traitsIN6rclcpp13QosPolicyKindELm9EE6_S_ptrERA9_KS1_
FNDA:0,_ZNSt14__array_traitsIN6rclcpp13QosPolicyKindELm9EE6_S_ptrERA9_KS1_
FN:60,_ZNSt14__array_traitsIdLm36EE6_S_ptrERA36_Kd
FNDA:0,_ZNSt14__array_traitsIdLm36EE6_S_ptrERA36_Kd
FN:127,_ZNSt5arrayIN6rclcpp13QosPolicyKindELm8EE5beginEv
FNDA:0,_ZNSt5arrayIN6rclcpp13QosPolicyKindELm8EE5beginEv
FN:127,_ZNSt5arrayIN6rclcpp13QosPolicyKindELm9EE5beginEv
FNDA:0,_ZNSt5arrayIN6rclcpp13QosPolicyKindELm9EE5beginEv
FN:127,_ZNSt5arrayIdLm36EE5beginEv
FNDA:0,_ZNSt5arrayIdLm36EE5beginEv
FN:135,_ZNSt5arrayIN6rclcpp13QosPolicyKindELm8EE3endEv
FNDA:0,_ZNSt5arrayIN6rclcpp13QosPolicyKindELm8EE3endEv
FN:135,_ZNSt5arrayIN6rclcpp13QosPolicyKindELm9EE3endEv
FNDA:0,_ZNSt5arrayIN6rclcpp13QosPolicyKindELm9EE3endEv
FN:135,_ZNSt5arrayIdLm36EE3endEv
FNDA:0,_ZNSt5arrayIdLm36EE3endEv
FN:257,_ZNSt5arrayIN6rclcpp13QosPolicyKindELm8EE4dataEv
FNDA:0,_ZNSt5arrayIN6rclcpp13QosPolicyKindELm8EE4dataEv
FN:257,_ZNSt5arrayIN6rclcpp13QosPolicyKindELm9EE4dataEv
FNDA:0,_ZNSt5arrayIN6rclcpp13QosPolicyKindELm9EE4dataEv
FN:257,_ZNSt5arrayIdLm36EE4dataEv
FNDA:0,_ZNSt5arrayIdLm36EE4dataEv
DA:60,0
DA:61,0
DA:60,0
DA:61,0
DA:60,0
DA:61,0
DA:127,0
DA:128,0
DA:127,0
DA:128,0
DA:127,0
DA:128,0
DA:135,0
DA:136,0
DA:135,0
DA:136,0
DA:135,0
DA:136,0
DA:257,0
DA:258,0
DA:257,0
DA:258,0
DA:257,0
DA:258,0
end_of_record
SF:/opt/ros/humble/include/rclcpp/rclcpp/subscription.hpp
FN:110,_ZN6rclcpp12SubscriptionIN8nav_msgs3msg9Odometry_ISaIvEEES4_S5_S5_NS_23message_memory_strategy21MessageMemoryStrategyIS5_S4_EEE11make_sharedIJRPNS_15node_interfaces17NodeBaseInterfaceERK29rosidl_message_type_support_tRKNSt7__cxx1112basic_stringIcSt11char_traitsIcESaIcEEERKNS_3QoSERKNS_23AnySubscriptionCallbackIS5_S4_EERKNS_32SubscriptionOptionsWithAllocatorIS4_EERKSt10shared_ptrIS8_ERKS11_INS_16topic_statistics27SubscriptionTopicStatisticsIS5_EEEEEES11_IS9_EDpOT_
FNDA:0,_ZN6rclcpp12SubscriptionIN8nav_msgs3msg9Odometry_ISaIvEEES4_S5_S5_NS_23message_memory_strategy21MessageMemoryStrategyIS5_S4_EEE11make_sharedIJRPNS_15node_interfaces17NodeBaseInterfaceERK29rosidl_message_type_support_tRKNSt7__cxx1112basic_stringIcSt11char_traitsIcESaIcEEERKNS_3QoSERKNS_23AnySubscriptionCallbackIS5_S4_EERKNS_32SubscriptionOptionsWithAllocatorIS4_EERKSt10shared_ptrIS8_ERKS11_INS_16topic_statistics27SubscriptionTopicStatisticsIS5_EEEEEES11_IS9_EDpOT_
FN:130,_ZN6rclcpp12SubscriptionIN8nav_msgs3msg9Odometry_ISaIvEEES4_S5_S5_NS_23message_memory_strategy21MessageMemoryStrategyIS5_S4_EEEC2EPNS_15node_interfaces17NodeBaseInterfaceERK29rosidl_message_type_support_tRKNSt7__cxx1112basic_stringIcSt11char_traitsIcESaIcEEERKNS_3QoSENS_23AnySubscriptionCallbackIS5_S4_EERKNS_32SubscriptionOptionsWithAllocatorIS4_EESt10shared_ptrIS8_ESX_INS_16topic_statistics27SubscriptionTopicStatisticsIS5_EEE
FNDA:0,_ZN6rclcpp12SubscriptionIN8nav_msgs3msg9Odometry_ISaIvEEES4_S5_S5_NS_23message_memory_strategy21MessageMemoryStrategyIS5_S4_EEEC2EPNS_15node_interfaces17NodeBaseInterfaceERK29rosidl_message_type_support_tRKNSt7__cxx1112basic_stringIcSt11char_traitsIcESaIcEEERKNS_3QoSENS_23AnySubscriptionCallbackIS5_S4_EERKNS_32SubscriptionOptionsWithAllocatorIS4_EESt10shared_ptrIS8_ESX_INS_16topic_statistics27SubscriptionTopicStatisticsIS5_EEE
FN:167,_ZZN6rclcpp12SubscriptionIN8nav_msgs3msg9Odometry_ISaIvEEES4_S5_S5_NS_23message_memory_strategy21MessageMemoryStrategyIS5_S4_EEEC4EPNS_15node_interfaces17NodeBaseInterfaceERK29rosidl_message_type_support_tRKNSt7__cxx1112basic_stringIcSt11char_traitsIcESaIcEEERKNS_3QoSENS_23AnySubscriptionCallbackIS5_S4_EERKNS_32SubscriptionOptionsWithAllocatorIS4_EESt10shared_ptrIS8_ESX_INS_16topic_statistics27SubscriptionTopicStatisticsIS5_EEEENKUlR35rmw_qos_incompatible_event_status_sE_clES14_
FNDA:0,_ZZN6rclcpp12SubscriptionIN8nav_msgs3msg9Odometry_ISaIvEEES4_S5_S5_NS_23message_memory_strategy21MessageMemoryStrategyIS5_S4_EEEC4EPNS_15node_interfaces17NodeBaseInterfaceERK29rosidl_message_type_support_tRKNSt7__cxx1112basic_stringIcSt11char_traitsIcESaIcEEERKNS_3QoSENS_23AnySubscriptionCallbackIS5_S4_EERKNS_32SubscriptionOptionsWithAllocatorIS4_EESt10shared_ptrIS8_ESX_INS_16topic_statistics27SubscriptionTopicStatisticsIS5_EEEENKUlR35rmw_qos_incompatible_event_status_sE_clES14_
FN:251,_ZN6rclcpp12SubscriptionIN8nav_msgs3msg9Odometry_ISaIvEEES4_S5_S5_NS_23message_memory_strategy21MessageMemoryStrategyIS5_S4_EEE15post_init_setupEPNS_15node_interfaces17NodeBaseInterfaceERKNS_3QoSERKNS_32SubscriptionOptionsWithAllocatorIS4_EE
FNDA:0,_ZN6rclcpp12SubscriptionIN8nav_msgs3msg9Odometry_ISaIvEEES4_S5_S5_NS_23message_memory_strategy21MessageMemoryStrategyIS5_S4_EEE15post_init_setupEPNS_15node_interfaces17NodeBaseInterfaceERKNS_3QoSERKNS_32SubscriptionOptionsWithAllocatorIS4_EE
FN:309,_ZN6rclcpp12SubscriptionIN8nav_msgs3msg9Odometry_ISaIvEEES4_S5_S5_NS_23message_memory_strategy21MessageMemoryStrategyIS5_S4_EEE14create_messageEv
FNDA:0,_ZN6rclcpp12SubscriptionIN8nav_msgs3msg9Odometry_ISaIvEEES4_S5_S5_NS_23message_memory_strategy21MessageMemoryStrategyIS5_S4_EEE14create_messageEv
FN:319,_ZN6rclcpp12SubscriptionIN8nav_msgs3msg9Odometry_ISaIvEEES4_S5_S5_NS_23message_memory_strategy21MessageMemoryStrategyIS5_S4_EEE25create_serialized_messageEv
FNDA:0,_ZN6rclcpp12SubscriptionIN8nav_msgs3msg9Odometry_ISaIvEEES4_S5_S5_NS_23message_memory_strategy21MessageMemoryStrategyIS5_S4_EEE25create_serialized_messageEv
FN:325,_ZN6rclcpp12SubscriptionIN8nav_msgs3msg9Odometry_ISaIvEEES4_S5_S5_NS_23message_memory_strategy21MessageMemoryStrategyIS5_S4_EEE14handle_messageERSt10shared_ptrIvERKNS_11MessageInfoE
FNDA:0,_ZN6rclcpp12SubscriptionIN8nav_msgs3msg9Odometry_ISaIvEEES4_S5_S5_NS_23message_memory_strategy21MessageMemoryStrategyIS5_S4_EEE14handle_messageERSt10shared_ptrIvERKNS_11MessageInfoE
FN:353,_ZN6rclcpp12SubscriptionIN8nav_msgs3msg9Odometry_ISaIvEEES4_S5_S5_NS_23message_memory_strategy21MessageMemoryStrategyIS5_S4_EEE25handle_serialized_messageERKSt10shared_ptrINS_17SerializedMessageEERKNS_11MessageInfoE
FNDA:0,_ZN6rclcpp12SubscriptionIN8nav_msgs3msg9Odometry_ISaIvEEES4_S5_S5_NS_23message_memory_strategy21MessageMemoryStrategyIS5_S4_EEE25handle_serialized_messageERKSt10shared_ptrINS_17SerializedMessageEERKNS_11MessageInfoE
FN:362,_ZN6rclcpp12SubscriptionIN8nav_msgs3msg9Odometry_ISaIvEEES4_S5_S5_NS_23message_memory_strategy21MessageMemoryStrategyIS5_S4_EEE21handle_loaned_messageEPvRKNS_11MessageInfoE
FNDA:0,_ZN6rclcpp12SubscriptionIN8nav_msgs3msg9Odometry_ISaIvEEES4_S5_S5_NS_23message_memory_strategy21MessageMemoryStrategyIS5_S4_EEE21handle_loaned_messageEPvRKNS_11MessageInfoE
FN:375,_ZZN6rclcpp12SubscriptionIN8nav_msgs3msg9Odometry_ISaIvEEES4_S5_S5_NS_23message_memory_strategy21MessageMemoryStrategyIS5_S4_EEE21handle_loaned_messageEPvRKNS_11MessageInfoEENKUlPS5_E_clESE_
FNDA:0,_ZZN6rclcpp12SubscriptionIN8nav_msgs3msg9Odometry_ISaIvEEES4_S5_S5_NS_23message_memory_strategy21MessageMemoryStrategyIS5_S4_EEE21handle_loaned_messageEPvRKNS_11MessageInfoEENKUlPS5_E_clESE_
FN:398,_ZN6rclcpp12SubscriptionIN8nav_msgs3msg9Odometry_ISaIvEEES4_S5_S5_NS_23message_memory_strategy21MessageMemoryStrategyIS5_S4_EEE14return_messageERSt10shared_ptrIvE
FNDA:0,_ZN6rclcpp12SubscriptionIN8nav_msgs3msg9Odometry_ISaIvEEES4_S5_S5_NS_23message_memory_strategy21MessageMemoryStrategyIS5_S4_EEE14return_messageERSt10shared_ptrIvE
FN:409,_ZN6rclcpp12SubscriptionIN8nav_msgs3msg9Odometry_ISaIvEEES4_S5_S5_NS_23message_memory_strategy21MessageMemoryStrategyIS5_S4_EEE25return_serialized_messageERSt10shared_ptrINS_17SerializedMessageEE
FNDA:0,_ZN6rclcpp12SubscriptionIN8nav_msgs3msg9Odometry_ISaIvEEES4_S5_S5_NS_23message_memory_strategy21MessageMemoryStrategyIS5_S4_EEE25return_serialized_messageERSt10shared_ptrINS_17SerializedMessageEE
DA:110,0
DA:130,0
DA:143,0
DA:144,0
DA:145,0
DA:146,0
DA:147,0
DA:149,0
DA:150,0
DA:151,0
DA:154,0
DA:155,0
DA:156,0
DA:159,0
DA:160,0
DA:161,0
DA:163,0
DA:166,0
DA:167,0
DA:168,0
DA:171,0
DA:175,0
DA:176,0
DA:177,0
DA:182,0
DA:186,0
DA:187,0
DA:188,0
DA:191,0
DA:192,0
DA:195,0
DA:196,0
DA:209,0
DA:210,0
DA:214,0
DA:216,0
DA:217,0
DA:224,0
DA:225,0
DA:226,0
DA:227,0
DA:229,0
DA:230,0
DA:233,0
DA:237,0
DA:245,0
DA:247,0
DA:251,0
DA:259,0
DA:309,0
DA:315,0
DA:319,0
DA:321,0
DA:325,0
DA:329,0
DA:332,0
DA:334,0
DA:336,0
DA:337,0
DA:340,0
DA:343,0
DA:345,0
DA:346,0
DA:347,0
DA:348,0
DA:349,0
DA:350,0
DA:353,0
DA:358,0
DA:359,0
DA:362,0
DA:366,0
DA:369,0
DA:372,0
DA:374,0
DA:375,0
DA:377,0
DA:378,0
DA:381,0
DA:384,0
DA:386,0
DA:387,0
DA:388,0
DA:389,0
DA:390,0
DA:391,0
DA:398,0
DA:400,0
DA:401,0
DA:402,0
DA:409,0
DA:411,0
DA:412,0
end_of_record
SF:/usr/include/c++/11/ext/alloc_traits.h
FN:97,_ZN9__gnu_cxx14__alloc_traitsISaIN6rclcpp13QosPolicyKindEES2_E17_S_select_on_copyERKS3_
FNDA:0,_ZN9__gnu_cxx14__alloc_traitsISaIN6rclcpp13QosPolicyKindEES2_E17_S_select_on_copyERKS3_
FN:97,_ZN9__gnu_cxx14__alloc_traitsISaIN14rcl_interfaces3msg13IntegerRange_ISaIvEEEES5_E17_S_select_on_copyERKS6_
FNDA:0,_ZN9__gnu_cxx14__alloc_traitsISaIN14rcl_interfaces3msg13IntegerRange_ISaIvEEEES5_E17_S_select_on_copyERKS6_
FN:97,_ZN9__gnu_cxx14__alloc_traitsISaIN14rcl_interfaces3msg19FloatingPointRange_ISaIvEEEES5_E17_S_select_on_copyERKS6_
FNDA:0,_ZN9__gnu_cxx14__alloc_traitsISaIN14rcl_interfaces3msg19FloatingPointRange_ISaIvEEEES5_E17_S_select_on_copyERKS6_
FN:97,_ZN9__gnu_cxx14__alloc_traitsISaIdEdE17_S_select_on_copyERKS1_
FNDA:0,_ZN9__gnu_cxx14__alloc_traitsISaIdEdE17_S_select_on_copyERKS1_
FN:97,_ZN9__gnu_cxx14__alloc_traitsISaIlElE17_S_select_on_copyERKS1_
FNDA:0,_ZN9__gnu_cxx14__alloc_traitsISaIlElE17_S_select_on_copyERKS1_
FN:97,_ZN9__gnu_cxx14__alloc_traitsISaImEmE17_S_select_on_copyERKS1_
FNDA:0,_ZN9__gnu_cxx14__alloc_traitsISaImEmE17_S_select_on_copyERKS1_
FN:97,_ZN9__gnu_cxx14__alloc_traitsISaIhEhE17_S_select_on_copyERKS1_
FNDA:0,_ZN9__gnu_cxx14__alloc_traitsISaIhEhE17_S_select_on_copyERKS1_
FN:97,_ZN9__gnu_cxx14__alloc_traitsISaIN15statistics_msgs3msg19StatisticDataPoint_ISaIvEEEES5_E17_S_select_on_copyERKS6_
FNDA:0,_ZN9__gnu_cxx14__alloc_traitsISaIN15statistics_msgs3msg19StatisticDataPoint_ISaIvEEEES5_E17_S_select_on_copyERKS6_
FN:97,_ZN9__gnu_cxx14__alloc_traitsISaINSt7__cxx1112basic_stringIcSt11char_traitsIcESaIcEEEES6_E17_S_select_on_copyERKS7_
FNDA:2,_ZN9__gnu_cxx14__alloc_traitsISaINSt7__cxx1112basic_stringIcSt11char_traitsIcESaIcEEEES6_E17_S_select_on_copyERKS7_
FN:97,_ZN9__gnu_cxx14__alloc_traitsISaIcEcE17_S_select_on_copyERKS1_
FNDA:0,_ZN9__gnu_cxx14__alloc_traitsISaIcEcE17_S_select_on_copyERKS1_
DA:97,0
DA:98,0
DA:97,0
DA:98,0
DA:97,0
DA:98,0
DA:97,0
DA:98,0
DA:97,0
DA:98,0
DA:97,0
DA:98,0
DA:97,0
DA:98,0
DA:97,0
DA:98,0
DA:97,2
DA:98,2
DA:97,0
DA:98,0
end_of_record
SF:/opt/ros/humble/include/rmw/rmw/impl/cpp/demangle.hpp
FN:39,_ZN3rmw4impl3cpp8demangleISt9exceptionEENSt7__cxx1112basic_stringIcSt11char_traitsIcESaIcEEERKT_
FNDA:0,_ZN3rmw4impl3cpp8demangleISt9exceptionEENSt7__cxx1112basic_stringIcSt11char_traitsIcESaIcEEERKT_
DA:39,0
DA:44,0
DA:45,0
DA:47,0
DA:49,0
DA:52,0
DA:56,0
end_of_record
SF:/usr/include/c++/11/bits/stl_uninitialized.h
FN:85,_ZNSt20__uninitialized_copyILb0EE13__uninit_copyIN9__gnu_cxx17__normal_iteratorIPKN14rcl_interfaces3msg19FloatingPointRange_ISaIvEEESt6vectorIS8_SaIS8_EEEEPS8_EET0_T_SH_SG_
FNDA:0,_ZNSt20__uninitialized_copyILb0EE13__uninit_copyIN9__gnu_cxx17__normal_iteratorIPKN14rcl_interfaces3msg19FloatingPointRange_ISaIvEEESt6vectorIS8_SaIS8_EEEEPS8_EET0_T_SH_SG_
FN:85,_ZNSt20__uninitialized_copyILb0EE13__uninit_copyIN9__gnu_cxx17__normal_iteratorIPKN14rcl_interfaces3msg13IntegerRange_ISaIvEEESt6vectorIS8_SaIS8_EEEEPS8_EET0_T_SH_SG_
FNDA:0,_ZNSt20__uninitialized_copyILb0EE13__uninit_copyIN9__gnu_cxx17__normal_iteratorIPKN14rcl_interfaces3msg13IntegerRange_ISaIvEEESt6vectorIS8_SaIS8_EEEEPS8_EET0_T_SH_SG_
FN:85,_ZNSt20__uninitialized_copyILb0EE13__uninit_copyIN9__gnu_cxx17__normal_iteratorIPKN15statistics_msgs3msg19StatisticDataPoint_ISaIvEEESt6vectorIS8_SaIS8_EEEEPS8_EET0_T_SH_SG_
FNDA:0,_ZNSt20__uninitialized_copyILb0EE13__uninit_copyIN9__gnu_cxx17__normal_iteratorIPKN15statistics_msgs3msg19StatisticDataPoint_ISaIvEEESt6vectorIS8_SaIS8_EEEEPS8_EET0_T_SH_SG_
FN:85,_ZNSt20__uninitialized_copyILb0EE13__uninit_copyIN9__gnu_cxx17__normal_iteratorIPKNSt7__cxx1112basic_stringIcSt11char_traitsIcESaIcEEESt6vectorIS9_SaIS9_EEEEPS9_EET0_T_SI_SH_
FNDA:2,_ZNSt20__uninitialized_copyILb0EE13__uninit_copyIN9__gnu_cxx17__normal_iteratorIPKNSt7__cxx1112basic_stringIcSt11char_traitsIcESaIcEEESt6vectorIS9_SaIS9_EEEEPS9_EET0_T_SI_SH_
FN:108,_ZNSt20__uninitialized_copyILb1EE13__uninit_copyIN9__gnu_cxx17__normal_iteratorIPKhSt6vectorIhSaIhEEEEPhEET0_T_SC_SB_
FNDA:0,_ZNSt20__uninitialized_copyILb1EE13__uninit_copyIN9__gnu_cxx17__normal_iteratorIPKhSt6vectorIhSaIhEEEEPhEET0_T_SC_SB_
FN:108,_ZNSt20__uninitialized_copyILb1EE13__uninit_copyIN9__gnu_cxx17__normal_iteratorIPKlSt6vectorIlSaIlEEEEPlEET0_T_SC_SB_
FNDA:0,_ZNSt20__uninitialized_copyILb1EE13__uninit_copyIN9__gnu_cxx17__normal_iteratorIPKlSt6vectorIlSaIlEEEEPlEET0_T_SC_SB_
FN:108,_ZNSt20__uninitialized_copyILb1EE13__uninit_copyIN9__gnu_cxx17__normal_iteratorIPKdSt6vectorIdSaIdEEEEPdEET0_T_SC_SB_
FNDA:0,_ZNSt20__uninitialized_copyILb1EE13__uninit_copyIN9__gnu_cxx17__normal_iteratorIPKdSt6vectorIdSaIdEEEEPdEET0_T_SC_SB_
FN:108,_ZNSt20__uninitialized_copyILb1EE13__uninit_copyISt13move_iteratorIPmES3_EET0_T_S6_S5_
FNDA:0,_ZNSt20__uninitialized_copyILb1EE13__uninit_copyISt13move_iteratorIPmES3_EET0_T_S6_S5_
FN:108,_ZNSt20__uninitialized_copyILb1EE13__uninit_copyIN9__gnu_cxx17__normal_iteratorIPKN6rclcpp13QosPolicyKindESt6vectorIS5_SaIS5_EEEEPS5_EET0_T_SE_SD_
FNDA:0,_ZNSt20__uninitialized_copyILb1EE13__uninit_copyIN9__gnu_cxx17__normal_iteratorIPKN6rclcpp13QosPolicyKindESt6vectorIS5_SaIS5_EEEEPS5_EET0_T_SE_SD_
FN:108,_ZNSt20__uninitialized_copyILb1EE13__uninit_copyIN9__gnu_cxx17__normal_iteratorIPKmSt6vectorImSaImEEEEPmEET0_T_SC_SB_
FNDA:0,_ZNSt20__uninitialized_copyILb1EE13__uninit_copyIN9__gnu_cxx17__normal_iteratorIPKmSt6vectorImSaImEEEEPmEET0_T_SC_SB_
FN:126,_ZSt18uninitialized_copyIN9__gnu_cxx17__normal_iteratorIPKdSt6vectorIdSaIdEEEEPdET0_T_SA_S9_
FNDA:0,_ZSt18uninitialized_copyIN9__gnu_cxx17__normal_iteratorIPKdSt6vectorIdSaIdEEEEPdET0_T_SA_S9_
FN:126,_ZSt18uninitialized_copyIN9__gnu_cxx17__normal_iteratorIPKN14rcl_interfaces3msg13IntegerRange_ISaIvEEESt6vectorIS6_SaIS6_EEEEPS6_ET0_T_SF_SE_
FNDA:0,_ZSt18uninitialized_copyIN9__gnu_cxx17__normal_iteratorIPKN14rcl_interfaces3msg13IntegerRange_ISaIvEEESt6vectorIS6_SaIS6_EEEEPS6_ET0_T_SF_SE_
FN:126,_ZSt18uninitialized_copyIN9__gnu_cxx17__normal_iteratorIPKN14rcl_interfaces3msg19FloatingPointRange_ISaIvEEESt6vectorIS6_SaIS6_EEEEPS6_ET0_T_SF_SE_
FNDA:0,_ZSt18uninitialized_copyIN9__gnu_cxx17__normal_iteratorIPKN14rcl_interfaces3msg19FloatingPointRange_ISaIvEEESt6vectorIS6_SaIS6_EEEEPS6_ET0_T_SF_SE_
FN:126,_ZSt18uninitialized_copyIN9__gnu_cxx17__normal_iteratorIPKN6rclcpp13QosPolicyKindESt6vectorIS3_SaIS3_EEEEPS3_ET0_T_SC_SB_
FNDA:0,_ZSt18uninitialized_copyIN9__gnu_cxx17__normal_iteratorIPKN6rclcpp13QosPolicyKindESt6vectorIS3_SaIS3_EEEEPS3_ET0_T_SC_SB_
FN:126,_ZSt18uninitialized_copyIN9__gnu_cxx17__normal_iteratorIPKmSt6vectorImSaImEEEEPmET0_T_SA_S9_
FNDA:0,_ZSt18uninitialized_copyIN9__gnu_cxx17__normal_iteratorIPKmSt6vectorImSaImEEEEPmET0_T_SA_S9_
FN:126,_ZSt18uninitialized_copyIN9__gnu_cxx17__normal_iteratorIPKlSt6vectorIlSaIlEEEEPlET0_T_SA_S9_
FNDA:0,_ZSt18uninitialized_copyIN9__gnu_cxx17__normal_iteratorIPKlSt6vectorIlSaIlEEEEPlET0_T_SA_S9_
FN:126,_ZSt18uninitialized_copyIN9__gnu_cxx17__normal_iteratorIPKhSt6vectorIhSaIhEEEEPhET0_T_SA_S9_
FNDA:0,_ZSt18uninitialized_copyIN9__gnu_cxx17__normal_iteratorIPKhSt6vectorIhSaIhEEEEPhET0_T_SA_S9_
FN:126,_ZSt18uninitialized_copyISt13move_iteratorIPmES1_ET0_T_S4_S3_
FNDA:0,_ZSt18uninitialized_copyISt13move_iteratorIPmES1_ET0_T_S4_S3_
FN:126,_ZSt18uninitialized_copyIN9__gnu_cxx17__normal_iteratorIPKN15statistics_msgs3msg19StatisticDataPoint_ISaIvEEESt6vectorIS6_SaIS6_EEEEPS6_ET0_T_SF_SE_
FNDA:0,_ZSt18uninitialized_copyIN9__gnu_cxx17__normal_iteratorIPKN15statistics_msgs3msg19StatisticDataPoint_ISaIvEEESt6vectorIS6_SaIS6_EEEEPS6_ET0_T_SF_SE_
FN:126,_ZSt18uninitialized_copyIN9__gnu_cxx17__normal_iteratorIPKNSt7__cxx1112basic_stringIcSt11char_traitsIcESaIcEEESt6vectorIS7_SaIS7_EEEEPS7_ET0_T_SG_SF_
FNDA:2,_ZSt18uninitialized_copyIN9__gnu_cxx17__normal_iteratorIPKNSt7__cxx1112basic_stringIcSt11char_traitsIcESaIcEEESt6vectorIS7_SaIS7_EEEEPS7_ET0_T_SG_SF_
FN:331,_ZSt22__uninitialized_copy_aIN9__gnu_cxx17__normal_iteratorIPKN6rclcpp13QosPolicyKindESt6vectorIS3_SaIS3_EEEEPS3_S3_ET0_T_SC_SB_RSaIT1_E
FNDA:0,_ZSt22__uninitialized_copy_aIN9__gnu_cxx17__normal_iteratorIPKN6rclcpp13QosPolicyKindESt6vectorIS3_SaIS3_EEEEPS3_S3_ET0_T_SC_SB_RSaIT1_E
FN:331,_ZSt22__uninitialized_copy_aIN9__gnu_cxx17__normal_iteratorIPKN14rcl_interfaces3msg13IntegerRange_ISaIvEEESt6vectorIS6_SaIS6_EEEEPS6_S6_ET0_T_SF_SE_RSaIT1_E
FNDA:0,_ZSt22__uninitialized_copy_aIN9__gnu_cxx17__normal_iteratorIPKN14rcl_interfaces3msg13IntegerRange_ISaIvEEESt6vectorIS6_SaIS6_EEEEPS6_S6_ET0_T_SF_SE_RSaIT1_E
FN:331,_ZSt22__uninitialized_copy_aIN9__gnu_cxx17__normal_iteratorIPKN14rcl_interfaces3msg19FloatingPointRange_ISaIvEEESt6vectorIS6_SaIS6_EEEEPS6_S6_ET0_T_SF_SE_RSaIT1_E
FNDA:0,_ZSt22__uninitialized_copy_aIN9__gnu_cxx17__normal_iteratorIPKN14rcl_interfaces3msg19FloatingPointRange_ISaIvEEESt6vectorIS6_SaIS6_EEEEPS6_S6_ET0_T_SF_SE_RSaIT1_E
FN:331,_ZSt22__uninitialized_copy_aIN9__gnu_cxx17__normal_iteratorIPKdSt6vectorIdSaIdEEEEPddET0_T_SA_S9_RSaIT1_E
FNDA:0,_ZSt22__uninitialized_copy_aIN9__gnu_cxx17__normal_iteratorIPKdSt6vectorIdSaIdEEEEPddET0_T_SA_S9_RSaIT1_E
FN:331,_ZSt22__uninitialized_copy_aIN9__gnu_cxx17__normal_iteratorIPKlSt6vectorIlSaIlEEEEPllET0_T_SA_S9_RSaIT1_E
FNDA:0,_ZSt22__uninitialized_copy_aIN9__gnu_cxx17__normal_iteratorIPKlSt6vectorIlSaIlEEEEPllET0_T_SA_S9_RSaIT1_E
FN:331,_ZSt22__uninitialized_copy_aIN9__gnu_cxx17__normal_iteratorIPKhSt6vectorIhSaIhEEEEPhhET0_T_SA_S9_RSaIT1_E
FNDA:0,_ZSt22__uninitialized_copy_aIN9__gnu_cxx17__normal_iteratorIPKhSt6vectorIhSaIhEEEEPhhET0_T_SA_S9_RSaIT1_E
FN:331,_ZSt22__uninitialized_copy_aIN9__gnu_cxx17__normal_iteratorIPKN15statistics_msgs3msg19StatisticDataPoint_ISaIvEEESt6vectorIS6_SaIS6_EEEEPS6_S6_ET0_T_SF_SE_RSaIT1_E
FNDA:0,_ZSt22__uninitialized_copy_aIN9__gnu_cxx17__normal_iteratorIPKN15statistics_msgs3msg19StatisticDataPoint_ISaIvEEESt6vectorIS6_SaIS6_EEEEPS6_S6_ET0_T_SF_SE_RSaIT1_E
FN:331,_ZSt22__uninitialized_copy_aIN9__gnu_cxx17__normal_iteratorIPKNSt7__cxx1112basic_stringIcSt11char_traitsIcESaIcEEESt6vectorIS7_SaIS7_EEEEPS7_S7_ET0_T_SG_SF_RSaIT1_E
FNDA:2,_ZSt22__uninitialized_copy_aIN9__gnu_cxx17__normal_iteratorIPKNSt7__cxx1112basic_stringIcSt11char_traitsIcESaIcEEESt6vectorIS7_SaIS7_EEEEPS7_S7_ET0_T_SG_SF_RSaIT1_E
FN:331,_ZSt22__uninitialized_copy_aIN9__gnu_cxx17__normal_iteratorIPKmSt6vectorImSaImEEEEPmmET0_T_SA_S9_RSaIT1_E
FNDA:0,_ZSt22__uninitialized_copy_aIN9__gnu_cxx17__normal_iteratorIPKmSt6vectorImSaImEEEEPmmET0_T_SA_S9_RSaIT1_E
FN:331,_ZSt22__uninitialized_copy_aISt13move_iteratorIPmES1_mET0_T_S4_S3_RSaIT1_E
FNDA:0,_ZSt22__uninitialized_copy_aISt13move_iteratorIPmES1_mET0_T_S4_S3_RSaIT1_E
FN:338,_ZSt22__uninitialized_move_aIPmS0_SaImEET0_T_S3_S2_RT1_
FNDA:0,_ZSt22__uninitialized_move_aIPmS0_SaImEET0_T_S3_S2_RT1_
FN:349,_ZSt34__uninitialized_move_if_noexcept_aIPmS0_SaImEET0_T_S3_S2_RT1_
FNDA:0,_ZSt34__uninitialized_move_if_noexcept_aIPmS0_SaImEET0_T_S3_S2_RT1_
FN:573,_ZNSt27__uninitialized_default_n_1ILb0EE18__uninit_default_nIPSt10unique_ptrIN8nav_msgs3msg9Odometry_ISaIvEEESt14default_deleteIS7_EEmEET_SC_T0_
FNDA:0,_ZNSt27__uninitialized_default_n_1ILb0EE18__uninit_default_nIPSt10unique_ptrIN8nav_msgs3msg9Odometry_ISaIvEEESt14default_deleteIS7_EEmEET_SC_T0_
FN:573,_ZNSt27__uninitialized_default_n_1ILb0EE18__uninit_default_nIPSt10shared_ptrIKN8nav_msgs3msg9Odometry_ISaIvEEEEmEET_SB_T0_
FNDA:0,_ZNSt27__uninitialized_default_n_1ILb0EE18__uninit_default_nIPSt10shared_ptrIKN8nav_msgs3msg9Odometry_ISaIvEEEEmEET_SB_T0_
FN:630,_ZSt25__uninitialized_default_nIPSt10shared_ptrIKN8nav_msgs3msg9Odometry_ISaIvEEEEmET_S9_T0_
FNDA:0,_ZSt25__uninitialized_default_nIPSt10shared_ptrIKN8nav_msgs3msg9Odometry_ISaIvEEEEmET_S9_T0_
FN:630,_ZSt25__uninitialized_default_nIPSt10unique_ptrIN8nav_msgs3msg9Odometry_ISaIvEEESt14default_deleteIS5_EEmET_SA_T0_
FNDA:0,_ZSt25__uninitialized_default_nIPSt10unique_ptrIN8nav_msgs3msg9Odometry_ISaIvEEESt14default_deleteIS5_EEmET_SA_T0_
FN:702,_ZSt27__uninitialized_default_n_aIPSt10shared_ptrIKN8nav_msgs3msg9Odometry_ISaIvEEEEmS7_ET_S9_T0_RSaIT1_E
FNDA:0,_ZSt27__uninitialized_default_n_aIPSt10shared_ptrIKN8nav_msgs3msg9Odometry_ISaIvEEEEmS7_ET_S9_T0_RSaIT1_E
FN:702,_ZSt27__uninitialized_default_n_aIPSt10unique_ptrIN8nav_msgs3msg9Odometry_ISaIvEEESt14default_deleteIS5_EEmS8_ET_SA_T0_RSaIT1_E
FNDA:0,_ZSt27__uninitialized_default_n_aIPSt10unique_ptrIN8nav_msgs3msg9Odometry_ISaIvEEESt14default_deleteIS5_EEmS8_ET_SA_T0_RSaIT1_E
FN:986,_ZSt19__relocate_object_aIN15statistics_msgs3msg15MetricsMessage_ISaIvEEES4_SaIS4_EEvPT_PT0_RT1_
FNDA:0,_ZSt19__relocate_object_aIN15statistics_msgs3msg15MetricsMessage_ISaIvEEES4_SaIS4_EEvPT_PT0_RT1_
FN:986,_ZSt19__relocate_object_aISt10unique_ptrIN23libstatistics_collector26topic_statistics_collector24TopicStatisticsCollectorIN8nav_msgs3msg9Odometry_ISaIvEEEEESt14default_deleteIS9_EESC_SaISC_EEvPT_PT0_RT1_
FNDA:0,_ZSt19__relocate_object_aISt10unique_ptrIN23libstatistics_collector26topic_statistics_collector24TopicStatisticsCollectorIN8nav_msgs3msg9Odometry_ISaIvEEEEESt14default_deleteIS9_EESC_SaISC_EEvPT_PT0_RT1_
FN:1018,_ZSt14__relocate_a_1IPN15statistics_msgs3msg15MetricsMessage_ISaIvEEES5_SaIS4_EET0_T_S8_S7_RT1_
FNDA:0,_ZSt14__relocate_a_1IPN15statistics_msgs3msg15MetricsMessage_ISaIvEEES5_SaIS4_EET0_T_S8_S7_RT1_
FN:1018,_ZSt14__relocate_a_1IPSt10unique_ptrIN23libstatistics_collector26topic_statistics_collector24TopicStatisticsCollectorIN8nav_msgs3msg9Odometry_ISaIvEEEEESt14default_deleteIS9_EESD_SaISC_EET0_T_SG_SF_RT1_
FNDA:0,_ZSt14__relocate_a_1IPSt10unique_ptrIN23libstatistics_collector26topic_statistics_collector24TopicStatisticsCollectorIN8nav_msgs3msg9Odometry_ISaIvEEEEESt14default_deleteIS9_EESD_SaISC_EET0_T_SG_SF_RT1_
FN:1040,_ZSt12__relocate_aIPN15statistics_msgs3msg15MetricsMessage_ISaIvEEES5_SaIS4_EET0_T_S8_S7_RT1_
FNDA:0,_ZSt12__relocate_aIPN15statistics_msgs3msg15MetricsMessage_ISaIvEEES5_SaIS4_EET0_T_S8_S7_RT1_
FN:1040,_ZSt12__relocate_aIPSt10unique_ptrIN23libstatistics_collector26topic_statistics_collector24TopicStatisticsCollectorIN8nav_msgs3msg9Odometry_ISaIvEEEEESt14default_deleteIS9_EESD_SaISC_EET0_T_SG_SF_RT1_
FNDA:0,_ZSt12__relocate_aIPSt10unique_ptrIN23libstatistics_collector26topic_statistics_collector24TopicStatisticsCollectorIN8nav_msgs3msg9Odometry_ISaIvEEEEESt14default_deleteIS9_EESD_SaISC_EET0_T_SG_SF_RT1_
DA:85,0
DA:88,0
DA:91,0
DA:92,0
DA:93,0
DA:85,0
DA:88,0
DA:91,0
DA:92,0
DA:93,0
DA:85,0
DA:88,0
DA:91,0
DA:92,0
DA:93,0
DA:85,2
DA:88,2
DA:91,4
DA:92,2
DA:93,2
DA:95,0
DA:97,0
DA:98,0
DA:108,0
DA:110,0
DA:108,0
DA:110,0
DA:108,0
DA:110,0
DA:108,0
DA:110,0
DA:108,0
DA:110,0
DA:108,0
DA:110,0
DA:126,0
DA:145,0
DA:151,0
DA:126,0
DA:145,0
DA:151,0
DA:126,0
DA:145,0
DA:151,0
DA:126,0
DA:145,0
DA:151,0
DA:126,0
DA:145,0
DA:151,0
DA:126,0
DA:145,0
DA:151,0
DA:126,0
DA:145,0
DA:151,0
DA:126,0
DA:145,0
DA:151,0
DA:126,0
DA:145,0
DA:151,0
DA:126,2
DA:145,2
DA:151,2
DA:331,0
DA:333,0
DA:331,0
DA:333,0
DA:331,0
DA:333,0
DA:331,0
DA:333,0
DA:331,0
DA:333,0
DA:331,0
DA:333,0
DA:331,0
DA:333,0
DA:331,0
DA:333,0
DA:331,0
DA:333,0
DA:331,2
DA:333,2
DA:338,0
DA:341,0
DA:343,0
DA:349,0
DA:355,0
DA:356,0
DA:573,0
DA:575,0
DA:578,0
DA:579,0
DA:580,0
DA:573,0
DA:575,0
DA:578,0
DA:579,0
DA:580,0
DA:630,0
DA:635,0
DA:640,0
DA:630,0
DA:635,0
DA:640,0
DA:702,0
DA:704,0
DA:702,0
DA:704,0
DA:986,0
DA:994,0
DA:995,0
DA:996,0
DA:986,0
DA:994,0
DA:995,0
DA:996,0
DA:1018,0
DA:1030,0
DA:1031,0
DA:1032,0
DA:1034,0
DA:1018,0
DA:1030,0
DA:1031,0
DA:1032,0
DA:1034,0
DA:1040,0
DA:1046,0
DA:1048,0
DA:1040,0
DA:1046,0
DA:1048,0
end_of_record
SF:/opt/ros/humble/include/rclcpp/rclcpp/detail/resolve_intra_process_buffer_type.hpp
FN:32,_ZN6rclcpp6detail33resolve_intra_process_buffer_typeIN8nav_msgs3msg9Odometry_ISaIvEEES5_EENS_22IntraProcessBufferTypeES7_RKNS_23AnySubscriptionCallbackIT_T0_EE
FNDA:0,_ZN6rclcpp6detail33resolve_intra_process_buffer_typeIN8nav_msgs3msg9Odometry_ISaIvEEES5_EENS_22IntraProcessBufferTypeES7_RKNS_23AnySubscriptionCallbackIT_T0_EE
DA:32,0
DA:36,0
DA:39,0
DA:40,0
DA:41,0
DA:43,0
DA:47,0
end_of_record
SF:/usr/include/c++/11/bits/hashtable.h
FN:302,_ZNSt10_HashtableI29rcl_subscription_event_type_eSt4pairIKS0_St10shared_ptrIN6rclcpp19QOSEventHandlerBaseEEESaIS7_ENSt8__detail10_Select1stESt8equal_toIS0_ESt4hashIS0_ENS9_18_Mod_range_hashingENS9_20_Default_ranged_hashENS9_20_Prime_rehash_policyENS9_17_Hashtable_traitsILb0ELb0ELb1EEEE12_Scoped_nodeC2IJS1_IS0_S3_INS4_15QOSEventHandlerISt8functionIFvR31rmw_liveliness_changed_status_sEES3_I18rcl_subscription_sEEEEEEEEPNS9_16_Hashtable_allocISaINS9_10_Hash_nodeIS7_Lb0EEEEEEDpOT_
FNDA:0,_ZNSt10_HashtableI29rcl_subscription_event_type_eSt4pairIKS0_St10shared_ptrIN6rclcpp19QOSEventHandlerBaseEEESaIS7_ENSt8__detail10_Select1stESt8equal_toIS0_ESt4hashIS0_ENS9_18_Mod_range_hashingENS9_20_Default_ranged_hashENS9_20_Prime_rehash_policyENS9_17_Hashtable_traitsILb0ELb0ELb1EEEE12_Scoped_nodeC2IJS1_IS0_S3_INS4_15QOSEventHandlerISt8functionIFvR31rmw_liveliness_changed_status_sEES3_I18rcl_subscription_sEEEEEEEEPNS9_16_Hashtable_allocISaINS9_10_Hash_nodeIS7_Lb0EEEEEEDpOT_
FN:302,_ZNSt10_HashtableI26rcl_publisher_event_type_eSt4pairIKS0_St10shared_ptrIN6rclcpp19QOSEventHandlerBaseEEESaIS7_ENSt8__detail10_Select1stESt8equal_toIS0_ESt4hashIS0_ENS9_18_Mod_range_hashingENS9_20_Default_ranged_hashENS9_20_Prime_rehash_policyENS9_17_Hashtable_traitsILb0ELb0ELb1EEEE12_Scoped_nodeC2IJS1_IS0_S3_INS4_15QOSEventHandlerIZNS4_9PublisherIN13geometry_msgs3msg12PoseStamped_ISaIvEEESS_EC4EPNS4_15node_interfaces17NodeBaseInterfaceERKNSt7__cxx1112basic_stringIcSt11char_traitsIcESaIcEEERKNS4_3QoSERKNS4_29PublisherOptionsWithAllocatorISS_EEEUlR35rmw_qos_incompatible_event_status_sE_S3_I15rcl_publisher_sEEEEEEEEPNS9_16_Hashtable_allocISaINS9_10_Hash_nodeIS7_Lb0EEEEEEDpOT_
FNDA:0,_ZNSt10_HashtableI26rcl_publisher_event_type_eSt4pairIKS0_St10shared_ptrIN6rclcpp19QOSEventHandlerBaseEEESaIS7_ENSt8__detail10_Select1stESt8equal_toIS0_ESt4hashIS0_ENS9_18_Mod_range_hashingENS9_20_Default_ranged_hashENS9_20_Prime_rehash_policyENS9_17_Hashtable_traitsILb0ELb0ELb1EEEE12_Scoped_nodeC2IJS1_IS0_S3_INS4_15QOSEventHandlerIZNS4_9PublisherIN13geometry_msgs3msg12PoseStamped_ISaIvEEESS_EC4EPNS4_15node_interfaces17NodeBaseInterfaceERKNSt7__cxx1112basic_stringIcSt11char_traitsIcESaIcEEERKNS4_3QoSERKNS4_29PublisherOptionsWithAllocatorISS_EEEUlR35rmw_qos_incompatible_event_status_sE_S3_I15rcl_publisher_sEEEEEEEEPNS9_16_Hashtable_allocISaINS9_10_Hash_nodeIS7_Lb0EEEEEEDpOT_
FN:302,_ZNSt10_HashtableI26rcl_publisher_event_type_eSt4pairIKS0_St10shared_ptrIN6rclcpp19QOSEventHandlerBaseEEESaIS7_ENSt8__detail10_Select1stESt8equal_toIS0_ESt4hashIS0_ENS9_18_Mod_range_hashingENS9_20_Default_ranged_hashENS9_20_Prime_rehash_policyENS9_17_Hashtable_traitsILb0ELb0ELb1EEEE12_Scoped_nodeC2IJS1_IS0_S3_INS4_15QOSEventHandlerISt8functionIFvR35rmw_qos_incompatible_event_status_sEES3_I15rcl_publisher_sEEEEEEEEPNS9_16_Hashtable_allocISaINS9_10_Hash_nodeIS7_Lb0EEEEEEDpOT_
FNDA:0,_ZNSt10_HashtableI26rcl_publisher_event_type_eSt4pairIKS0_St10shared_ptrIN6rclcpp19QOSEventHandlerBaseEEESaIS7_ENSt8__detail10_Select1stESt8equal_toIS0_ESt4hashIS0_ENS9_18_Mod_range_hashingENS9_20_Default_ranged_hashENS9_20_Prime_rehash_policyENS9_17_Hashtable_traitsILb0ELb0ELb1EEEE12_Scoped_nodeC2IJS1_IS0_S3_INS4_15QOSEventHandlerISt8functionIFvR35rmw_qos_incompatible_event_status_sEES3_I15rcl_publisher_sEEEEEEEEPNS9_16_Hashtable_allocISaINS9_10_Hash_nodeIS7_Lb0EEEEEEDpOT_
FN:302,_ZNSt10_HashtableI26rcl_publisher_event_type_eSt4pairIKS0_St10shared_ptrIN6rclcpp19QOSEventHandlerBaseEEESaIS7_ENSt8__detail10_Select1stESt8equal_toIS0_ESt4hashIS0_ENS9_18_Mod_range_hashingENS9_20_Default_ranged_hashENS9_20_Prime_rehash_policyENS9_17_Hashtable_traitsILb0ELb0ELb1EEEE12_Scoped_nodeC2IJS1_IS0_S3_INS4_15QOSEventHandlerISt8functionIFvR28rmw_liveliness_lost_status_sEES3_I15rcl_publisher_sEEEEEEEEPNS9_16_Hashtable_allocISaINS9_10_Hash_nodeIS7_Lb0EEEEEEDpOT_
FNDA:0,_ZNSt10_HashtableI26rcl_publisher_event_type_eSt4pairIKS0_St10shared_ptrIN6rclcpp19QOSEventHandlerBaseEEESaIS7_ENSt8__detail10_Select1stESt8equal_toIS0_ESt4hashIS0_ENS9_18_Mod_range_hashingENS9_20_Default_ranged_hashENS9_20_Prime_rehash_policyENS9_17_Hashtable_traitsILb0ELb0ELb1EEEE12_Scoped_nodeC2IJS1_IS0_S3_INS4_15QOSEventHandlerISt8functionIFvR28rmw_liveliness_lost_status_sEES3_I15rcl_publisher_sEEEEEEEEPNS9_16_Hashtable_allocISaINS9_10_Hash_nodeIS7_Lb0EEEEEEDpOT_
FN:302,_ZNSt10_HashtableI26rcl_publisher_event_type_eSt4pairIKS0_St10shared_ptrIN6rclcpp19QOSEventHandlerBaseEEESaIS7_ENSt8__detail10_Select1stESt8equal_toIS0_ESt4hashIS0_ENS9_18_Mod_range_hashingENS9_20_Default_ranged_hashENS9_20_Prime_rehash_policyENS9_17_Hashtable_traitsILb0ELb0ELb1EEEE12_Scoped_nodeC2IJS1_IS0_S3_INS4_15QOSEventHandlerISt8functionIFvR36rmw_offered_deadline_missed_status_sEES3_I15rcl_publisher_sEEEEEEEEPNS9_16_Hashtable_allocISaINS9_10_Hash_nodeIS7_Lb0EEEEEEDpOT_
FNDA:0,_ZNSt10_HashtableI26rcl_publisher_event_type_eSt4pairIKS0_St10shared_ptrIN6rclcpp19QOSEventHandlerBaseEEESaIS7_ENSt8__detail10_Select1stESt8equal_toIS0_ESt4hashIS0_ENS9_18_Mod_range_hashingENS9_20_Default_ranged_hashENS9_20_Prime_rehash_policyENS9_17_Hashtable_traitsILb0ELb0ELb1EEEE12_Scoped_nodeC2IJS1_IS0_S3_INS4_15QOSEventHandlerISt8functionIFvR36rmw_offered_deadline_missed_status_sEES3_I15rcl_publisher_sEEEEEEEEPNS9_16_Hashtable_allocISaINS9_10_Hash_nodeIS7_Lb0EEEEEEDpOT_
FN:302,_ZNSt10_HashtableI26rcl_publisher_event_type_eSt4pairIKS0_St10shared_ptrIN6rclcpp19QOSEventHandlerBaseEEESaIS7_ENSt8__detail10_Select1stESt8equal_toIS0_ESt4hashIS0_ENS9_18_Mod_range_hashingENS9_20_Default_ranged_hashENS9_20_Prime_rehash_policyENS9_17_Hashtable_traitsILb0ELb0ELb1EEEE12_Scoped_nodeC2IJS1_IS0_S3_INS4_15QOSEventHandlerIZNS4_9PublisherIN13geometry_msgs3msg6Twist_ISaIvEEESS_EC4EPNS4_15node_interfaces17NodeBaseInterfaceERKNSt7__cxx1112basic_stringIcSt11char_traitsIcESaIcEEERKNS4_3QoSERKNS4_29PublisherOptionsWithAllocatorISS_EEEUlR35rmw_qos_incompatible_event_status_sE_S3_I15rcl_publisher_sEEEEEEEEPNS9_16_Hashtable_allocISaINS9_10_Hash_nodeIS7_Lb0EEEEEEDpOT_
FNDA:0,_ZNSt10_HashtableI26rcl_publisher_event_type_eSt4pairIKS0_St10shared_ptrIN6rclcpp19QOSEventHandlerBaseEEESaIS7_ENSt8__detail10_Select1stESt8equal_toIS0_ESt4hashIS0_ENS9_18_Mod_range_hashingENS9_20_Default_ranged_hashENS9_20_Prime_rehash_policyENS9_17_Hashtable_traitsILb0ELb0ELb1EEEE12_Scoped_nodeC2IJS1_IS0_S3_INS4_15QOSEventHandlerIZNS4_9PublisherIN13geometry_msgs3msg6Twist_ISaIvEEESS_EC4EPNS4_15node_interfaces17NodeBaseInterfaceERKNSt7__cxx1112basic_stringIcSt11char_traitsIcESaIcEEERKNS4_3QoSERKNS4_29PublisherOptionsWithAllocatorISS_EEEUlR35rmw_qos_incompatible_event_status_sE_S3_I15rcl_publisher_sEEEEEEEEPNS9_16_Hashtable_allocISaINS9_10_Hash_nodeIS7_Lb0EEEEEEDpOT_
FN:302,_ZNSt10_HashtableI26rcl_publisher_event_type_eSt4pairIKS0_St10shared_ptrIN6rclcpp19QOSEventHandlerBaseEEESaIS7_ENSt8__detail10_Select1stESt8equal_toIS0_ESt4hashIS0_ENS9_18_Mod_range_hashingENS9_20_Default_ranged_hashENS9_20_Prime_rehash_policyENS9_17_Hashtable_traitsILb0ELb0ELb1EEEE12_Scoped_nodeC2IJS1_IS0_S3_INS4_15QOSEventHandlerIZNS4_9PublisherIN15statistics_msgs3msg15MetricsMessage_ISaIvEEESS_EC4EPNS4_15node_interfaces17NodeBaseInterfaceERKNSt7__cxx1112basic_stringIcSt11char_traitsIcESaIcEEERKNS4_3QoSERKNS4_29PublisherOptionsWithAllocatorISS_EEEUlR35rmw_qos_incompatible_event_status_sE_S3_I15rcl_publisher_sEEEEEEEEPNS9_16_Hashtable_allocISaINS9_10_Hash_nodeIS7_Lb0EEEEEEDpOT_
FNDA:0,_ZNSt10_HashtableI26rcl_publisher_event_type_eSt4pairIKS0_St10shared_ptrIN6rclcpp19QOSEventHandlerBaseEEESaIS7_ENSt8__detail10_Select1stESt8equal_toIS0_ESt4hashIS0_ENS9_18_Mod_range_hashingENS9_20_Default_ranged_hashENS9_20_Prime_rehash_policyENS9_17_Hashtable_traitsILb0ELb0ELb1EEEE12_Scoped_nodeC2IJS1_IS0_S3_INS4_15QOSEventHandlerIZNS4_9PublisherIN15statistics_msgs3msg15MetricsMessage_ISaIvEEESS_EC4EPNS4_15node_interfaces17NodeBaseInterfaceERKNSt7__cxx1112basic_stringIcSt11char_traitsIcESaIcEEERKNS4_3QoSERKNS4_29PublisherOptionsWithAllocatorISS_EEEUlR35rmw_qos_incompatible_event_status_sE_S3_I15rcl_publisher_sEEEEEEEEPNS9_16_Hashtable_allocISaINS9_10_Hash_nodeIS7_Lb0EEEEEEDpOT_
FN:302,_ZNSt10_HashtableIPN6rclcpp19QOSEventHandlerBaseESt4pairIKS2_St6atomicIbEESaIS7_ENSt8__detail10_Select1stESt8equal_toIS2_ESt4hashIS2_ENS9_18_Mod_range_hashingENS9_20_Default_ranged_hashENS9_20_Prime_rehash_policyENS9_17_Hashtable_traitsILb0ELb0ELb1EEEE12_Scoped_nodeC2IJS3_IPNS0_15QOSEventHandlerISt8functionIFvR38rmw_requested_deadline_missed_status_sEESt10shared_ptrI18rcl_subscription_sEEEbEEEEPNS9_16_Hashtable_allocISaINS9_10_Hash_nodeIS7_Lb0EEEEEEDpOT_
FNDA:0,_ZNSt10_HashtableIPN6rclcpp19QOSEventHandlerBaseESt4pairIKS2_St6atomicIbEESaIS7_ENSt8__detail10_Select1stESt8equal_toIS2_ESt4hashIS2_ENS9_18_Mod_range_hashingENS9_20_Default_ranged_hashENS9_20_Prime_rehash_policyENS9_17_Hashtable_traitsILb0ELb0ELb1EEEE12_Scoped_nodeC2IJS3_IPNS0_15QOSEventHandlerISt8functionIFvR38rmw_requested_deadline_missed_status_sEESt10shared_ptrI18rcl_subscription_sEEEbEEEEPNS9_16_Hashtable_allocISaINS9_10_Hash_nodeIS7_Lb0EEEEEEDpOT_
FN:302,_ZNSt10_HashtableISt10type_indexSt4pairIKS0_St10shared_ptrIvEESaIS5_ENSt8__detail10_Select1stESt8equal_toIS0_ESt4hashIS0_ENS7_18_Mod_range_hashingENS7_20_Default_ranged_hashENS7_20_Prime_rehash_policyENS7_17_Hashtable_traitsILb0ELb0ELb1EEEE12_Scoped_nodeC2IJRKSt21piecewise_construct_tSt5tupleIJRS2_EESO_IJEEEEEPNS7_16_Hashtable_allocISaINS7_10_Hash_nodeIS5_Lb0EEEEEEDpOT_
FNDA:0,_ZNSt10_HashtableISt10type_indexSt4pairIKS0_St10shared_ptrIvEESaIS5_ENSt8__detail10_Select1stESt8equal_toIS0_ESt4hashIS0_ENS7_18_Mod_range_hashingENS7_20_Default_ranged_hashENS7_20_Prime_rehash_policyENS7_17_Hashtable_traitsILb0ELb0ELb1EEEE12_Scoped_nodeC2IJRKSt21piecewise_construct_tSt5tupleIJRS2_EESO_IJEEEEEPNS7_16_Hashtable_allocISaINS7_10_Hash_nodeIS5_Lb0EEEEEEDpOT_
FN:302,_ZNSt10_HashtableI29rcl_subscription_event_type_eSt4pairIKS0_St10shared_ptrIN6rclcpp19QOSEventHandlerBaseEEESaIS7_ENSt8__detail10_Select1stESt8equal_toIS0_ESt4hashIS0_ENS9_18_Mod_range_hashingENS9_20_Default_ranged_hashENS9_20_Prime_rehash_policyENS9_17_Hashtable_traitsILb0ELb0ELb1EEEE12_Scoped_nodeC2IJS1_IS0_S3_INS4_15QOSEventHandlerISt8functionIFvR38rmw_requested_deadline_missed_status_sEES3_I18rcl_subscription_sEEEEEEEEPNS9_16_Hashtable_allocISaINS9_10_Hash_nodeIS7_Lb0EEEEEEDpOT_
FNDA:0,_ZNSt10_HashtableI29rcl_subscription_event_type_eSt4pairIKS0_St10shared_ptrIN6rclcpp19QOSEventHandlerBaseEEESaIS7_ENSt8__detail10_Select1stESt8equal_toIS0_ESt4hashIS0_ENS9_18_Mod_range_hashingENS9_20_Default_ranged_hashENS9_20_Prime_rehash_policyENS9_17_Hashtable_traitsILb0ELb0ELb1EEEE12_Scoped_nodeC2IJS1_IS0_S3_INS4_15QOSEventHandlerISt8functionIFvR38rmw_requested_deadline_missed_status_sEES3_I18rcl_subscription_sEEEEEEEEPNS9_16_Hashtable_allocISaINS9_10_Hash_nodeIS7_Lb0EEEEEEDpOT_
FN:302,_ZNSt10_HashtableIPN6rclcpp19QOSEventHandlerBaseESt4pairIKS2_St6atomicIbEESaIS7_ENSt8__detail10_Select1stESt8equal_toIS2_ESt4hashIS2_ENS9_18_Mod_range_hashingENS9_20_Default_ranged_hashENS9_20_Prime_rehash_policyENS9_17_Hashtable_traitsILb0ELb0ELb1EEEE12_Scoped_nodeC2IJS3_IPNS0_15QOSEventHandlerISt8functionIFvR31rmw_liveliness_changed_status_sEESt10shared_ptrI18rcl_subscription_sEEEbEEEEPNS9_16_Hashtable_allocISaINS9_10_Hash_nodeIS7_Lb0EEEEEEDpOT_
FNDA:0,_ZNSt10_HashtableIPN6rclcpp19QOSEventHandlerBaseESt4pairIKS2_St6atomicIbEESaIS7_ENSt8__detail10_Select1stESt8equal_toIS2_ESt4hashIS2_ENS9_18_Mod_range_hashingENS9_20_Default_ranged_hashENS9_20_Prime_rehash_policyENS9_17_Hashtable_traitsILb0ELb0ELb1EEEE12_Scoped_nodeC2IJS3_IPNS0_15QOSEventHandlerISt8functionIFvR31rmw_liveliness_changed_status_sEESt10shared_ptrI18rcl_subscription_sEEEbEEEEPNS9_16_Hashtable_allocISaINS9_10_Hash_nodeIS7_Lb0EEEEEEDpOT_
FN:302,_ZNSt10_HashtableIPN6rclcpp19QOSEventHandlerBaseESt4pairIKS2_St6atomicIbEESaIS7_ENSt8__detail10_Select1stESt8equal_toIS2_ESt4hashIS2_ENS9_18_Mod_range_hashingENS9_20_Default_ranged_hashENS9_20_Prime_rehash_policyENS9_17_Hashtable_traitsILb0ELb0ELb1EEEE12_Scoped_nodeC2IJS3_IPNS0_15QOSEventHandlerISt8functionIFvR35rmw_qos_incompatible_event_status_sEESt10shared_ptrI18rcl_subscription_sEEEbEEEEPNS9_16_Hashtable_allocISaINS9_10_Hash_nodeIS7_Lb0EEEEEEDpOT_
FNDA:0,_ZNSt10_HashtableIPN6rclcpp19QOSEventHandlerBaseESt4pairIKS2_St6atomicIbEESaIS7_ENSt8__detail10_Select1stESt8equal_toIS2_ESt4hashIS2_ENS9_18_Mod_range_hashingENS9_20_Default_ranged_hashENS9_20_Prime_rehash_policyENS9_17_Hashtable_traitsILb0ELb0ELb1EEEE12_Scoped_nodeC2IJS3_IPNS0_15QOSEventHandlerISt8functionIFvR35rmw_qos_incompatible_event_status_sEESt10shared_ptrI18rcl_subscription_sEEEbEEEEPNS9_16_Hashtable_allocISaINS9_10_Hash_nodeIS7_Lb0EEEEEEDpOT_
FN:302,_ZNSt10_HashtableI29rcl_subscription_event_type_eSt4pairIKS0_St10shared_ptrIN6rclcpp19QOSEventHandlerBaseEEESaIS7_ENSt8__detail10_Select1stESt8equal_toIS0_ESt4hashIS0_ENS9_18_Mod_range_hashingENS9_20_Default_ranged_hashENS9_20_Prime_rehash_policyENS9_17_Hashtable_traitsILb0ELb0ELb1EEEE12_Scoped_nodeC2IJS1_IS0_S3_INS4_15QOSEventHandlerISt8functionIFvR35rmw_qos_incompatible_event_status_sEES3_I18rcl_subscription_sEEEEEEEEPNS9_16_Hashtable_allocISaINS9_10_Hash_nodeIS7_Lb0EEEEEEDpOT_
FNDA:0,_ZNSt10_HashtableI29rcl_subscription_event_type_eSt4pairIKS0_St10shared_ptrIN6rclcpp19QOSEventHandlerBaseEEESaIS7_ENSt8__detail10_Select1stESt8equal_toIS0_ESt4hashIS0_ENS9_18_Mod_range_hashingENS9_20_Default_ranged_hashENS9_20_Prime_rehash_policyENS9_17_Hashtable_traitsILb0ELb0ELb1EEEE12_Scoped_nodeC2IJS1_IS0_S3_INS4_15QOSEventHandlerISt8functionIFvR35rmw_qos_incompatible_event_status_sEES3_I18rcl_subscription_sEEEEEEEEPNS9_16_Hashtable_allocISaINS9_10_Hash_nodeIS7_Lb0EEEEEEDpOT_
FN:302,_ZNSt10_HashtableI29rcl_subscription_event_type_eSt4pairIKS0_St10shared_ptrIN6rclcpp19QOSEventHandlerBaseEEESaIS7_ENSt8__detail10_Select1stESt8equal_toIS0_ESt4hashIS0_ENS9_18_Mod_range_hashingENS9_20_Default_ranged_hashENS9_20_Prime_rehash_policyENS9_17_Hashtable_traitsILb0ELb0ELb1EEEE12_Scoped_nodeC2IJS1_IS0_S3_INS4_15QOSEventHandlerIZNS4_12SubscriptionIN8nav_msgs3msg9Odometry_ISaIvEEESS_ST_ST_NS4_23message_memory_strategy21MessageMemoryStrategyIST_SS_EEEC4EPNS4_15node_interfaces17NodeBaseInterfaceERK29rosidl_message_type_support_tRKNSt7__cxx1112basic_stringIcSt11char_traitsIcESaIcEEERKNS4_3QoSENS4_23AnySubscriptionCallbackIST_SS_EERKNS4_32SubscriptionOptionsWithAllocatorISS_EES3_ISW_ES3_INS4_16topic_statistics27SubscriptionTopicStatisticsIST_EEEEUlR35rmw_qos_incompatible_event_status_sE_S3_I18rcl_subscription_sEEEEEEEEPNS9_16_Hashtable_allocISaINS9_10_Hash_nodeIS7_Lb0EEEEEEDpOT_
FNDA:0,_ZNSt10_HashtableI29rcl_subscription_event_type_eSt4pairIKS0_St10shared_ptrIN6rclcpp19QOSEventHandlerBaseEEESaIS7_ENSt8__detail10_Select1stESt8equal_toIS0_ESt4hashIS0_ENS9_18_Mod_range_hashingENS9_20_Default_ranged_hashENS9_20_Prime_rehash_policyENS9_17_Hashtable_traitsILb0ELb0ELb1EEEE12_Scoped_nodeC2IJS1_IS0_S3_INS4_15QOSEventHandlerIZNS4_12SubscriptionIN8nav_msgs3msg9Odometry_ISaIvEEESS_ST_ST_NS4_23message_memory_strategy21MessageMemoryStrategyIST_SS_EEEC4EPNS4_15node_interfaces17NodeBaseInterfaceERK29rosidl_message_type_support_tRKNSt7__cxx1112basic_stringIcSt11char_traitsIcESaIcEEERKNS4_3QoSENS4_23AnySubscriptionCallbackIST_SS_EERKNS4_32SubscriptionOptionsWithAllocatorISS_EES3_ISW_ES3_INS4_16topic_statistics27SubscriptionTopicStatisticsIST_EEEEUlR35rmw_qos_incompatible_event_status_sE_S3_I18rcl_subscription_sEEEEEEEEPNS9_16_Hashtable_allocISaINS9_10_Hash_nodeIS7_Lb0EEEEEEDpOT_
FN:302,_ZNSt10_HashtableIPN6rclcpp19QOSEventHandlerBaseESt4pairIKS2_St6atomicIbEESaIS7_ENSt8__detail10_Select1stESt8equal_toIS2_ESt4hashIS2_ENS9_18_Mod_range_hashingENS9_20_Default_ranged_hashENS9_20_Prime_rehash_policyENS9_17_Hashtable_traitsILb0ELb0ELb1EEEE12_Scoped_nodeC2IJS3_IPNS0_15QOSEventHandlerISt8functionIFvR25rmw_message_lost_status_sEESt10shared_ptrI18rcl_subscription_sEEEbEEEEPNS9_16_Hashtable_allocISaINS9_10_Hash_nodeIS7_Lb0EEEEEEDpOT_
FNDA:0,_ZNSt10_HashtableIPN6rclcpp19QOSEventHandlerBaseESt4pairIKS2_St6atomicIbEESaIS7_ENSt8__detail10_Select1stESt8equal_toIS2_ESt4hashIS2_ENS9_18_Mod_range_hashingENS9_20_Default_ranged_hashENS9_20_Prime_rehash_policyENS9_17_Hashtable_traitsILb0ELb0ELb1EEEE12_Scoped_nodeC2IJS3_IPNS0_15QOSEventHandlerISt8functionIFvR25rmw_message_lost_status_sEESt10shared_ptrI18rcl_subscription_sEEEbEEEEPNS9_16_Hashtable_allocISaINS9_10_Hash_nodeIS7_Lb0EEEEEEDpOT_
FN:302,_ZNSt10_HashtableIPN6rclcpp19QOSEventHandlerBaseESt4pairIKS2_St6atomicIbEESaIS7_ENSt8__detail10_Select1stESt8equal_toIS2_ESt4hashIS2_ENS9_18_Mod_range_hashingENS9_20_Default_ranged_hashENS9_20_Prime_rehash_policyENS9_17_Hashtable_traitsILb0ELb0ELb1EEEE12_Scoped_nodeC2IJS3_IPNS0_15QOSEventHandlerIZNS0_12SubscriptionIN8nav_msgs3msg9Odometry_ISaIvEEESS_ST_ST_NS0_23message_memory_strategy21MessageMemoryStrategyIST_SS_EEEC4EPNS0_15node_interfaces17NodeBaseInterfaceERK29rosidl_message_type_support_tRKNSt7__cxx1112basic_stringIcSt11char_traitsIcESaIcEEERKNS0_3QoSENS0_23AnySubscriptionCallbackIST_SS_EERKNS0_32SubscriptionOptionsWithAllocatorISS_EESt10shared_ptrISW_ES1L_INS0_16topic_statistics27SubscriptionTopicStatisticsIST_EEEEUlR35rmw_qos_incompatible_event_status_sE_S1L_I18rcl_subscription_sEEEbEEEEPNS9_16_Hashtable_allocISaINS9_10_Hash_nodeIS7_Lb0EEEEEEDpOT_
FNDA:0,_ZNSt10_HashtableIPN6rclcpp19QOSEventHandlerBaseESt4pairIKS2_St6atomicIbEESaIS7_ENSt8__detail10_Select1stESt8equal_toIS2_ESt4hashIS2_ENS9_18_Mod_range_hashingENS9_20_Default_ranged_hashENS9_20_Prime_rehash_policyENS9_17_Hashtable_traitsILb0ELb0ELb1EEEE12_Scoped_nodeC2IJS3_IPNS0_15QOSEventHandlerIZNS0_12SubscriptionIN8nav_msgs3msg9Odometry_ISaIvEEESS_ST_ST_NS0_23message_memory_strategy21MessageMemoryStrategyIST_SS_EEEC4EPNS0_15node_interfaces17NodeBaseInterfaceERK29rosidl_message_type_support_tRKNSt7__cxx1112basic_stringIcSt11char_traitsIcESaIcEEERKNS0_3QoSENS0_23AnySubscriptionCallbackIST_SS_EERKNS0_32SubscriptionOptionsWithAllocatorISS_EESt10shared_ptrISW_ES1L_INS0_16topic_statistics27SubscriptionTopicStatisticsIST_EEEEUlR35rmw_qos_incompatible_event_status_sE_S1L_I18rcl_subscription_sEEEbEEEEPNS9_16_Hashtable_allocISaINS9_10_Hash_nodeIS7_Lb0EEEEEEDpOT_
FN:302,_ZNSt10_HashtableI29rcl_subscription_event_type_eSt4pairIKS0_St10shared_ptrIN6rclcpp19QOSEventHandlerBaseEEESaIS7_ENSt8__detail10_Select1stESt8equal_toIS0_ESt4hashIS0_ENS9_18_Mod_range_hashingENS9_20_Default_ranged_hashENS9_20_Prime_rehash_policyENS9_17_Hashtable_traitsILb0ELb0ELb1EEEE12_Scoped_nodeC2IJS1_IS0_S3_INS4_15QOSEventHandlerISt8functionIFvR25rmw_message_lost_status_sEES3_I18rcl_subscription_sEEEEEEEEPNS9_16_Hashtable_allocISaINS9_10_Hash_nodeIS7_Lb0EEEEEEDpOT_
FNDA:0,_ZNSt10_HashtableI29rcl_subscription_event_type_eSt4pairIKS0_St10shared_ptrIN6rclcpp19QOSEventHandlerBaseEEESaIS7_ENSt8__detail10_Select1stESt8equal_toIS0_ESt4hashIS0_ENS9_18_Mod_range_hashingENS9_20_Default_ranged_hashENS9_20_Prime_rehash_policyENS9_17_Hashtable_traitsILb0ELb0ELb1EEEE12_Scoped_nodeC2IJS1_IS0_S3_INS4_15QOSEventHandlerISt8functionIFvR25rmw_message_lost_status_sEES3_I18rcl_subscription_sEEEEEEEEPNS9_16_Hashtable_allocISaINS9_10_Hash_nodeIS7_Lb0EEEEEEDpOT_
FN:308,_ZNSt10_HashtableI26rcl_publisher_event_type_eSt4pairIKS0_St10shared_ptrIN6rclcpp19QOSEventHandlerBaseEEESaIS7_ENSt8__detail10_Select1stESt8equal_toIS0_ESt4hashIS0_ENS9_18_Mod_range_hashingENS9_20_Default_ranged_hashENS9_20_Prime_rehash_policyENS9_17_Hashtable_traitsILb0ELb0ELb1EEEE12_Scoped_nodeD2Ev
FNDA:0,_ZNSt10_HashtableI26rcl_publisher_event_type_eSt4pairIKS0_St10shared_ptrIN6rclcpp19QOSEventHandlerBaseEEESaIS7_ENSt8__detail10_Select1stESt8equal_toIS0_ESt4hashIS0_ENS9_18_Mod_range_hashingENS9_20_Default_ranged_hashENS9_20_Prime_rehash_policyENS9_17_Hashtable_traitsILb0ELb0ELb1EEEE12_Scoped_nodeD2Ev
FN:308,_ZNSt10_HashtableI29rcl_subscription_event_type_eSt4pairIKS0_St10shared_ptrIN6rclcpp19QOSEventHandlerBaseEEESaIS7_ENSt8__detail10_Select1stESt8equal_toIS0_ESt4hashIS0_ENS9_18_Mod_range_hashingENS9_20_Default_ranged_hashENS9_20_Prime_rehash_policyENS9_17_Hashtable_traitsILb0ELb0ELb1EEEE12_Scoped_nodeD2Ev
FNDA:0,_ZNSt10_HashtableI29rcl_subscription_event_type_eSt4pairIKS0_St10shared_ptrIN6rclcpp19QOSEventHandlerBaseEEESaIS7_ENSt8__detail10_Select1stESt8equal_toIS0_ESt4hashIS0_ENS9_18_Mod_range_hashingENS9_20_Default_ranged_hashENS9_20_Prime_rehash_policyENS9_17_Hashtable_traitsILb0ELb0ELb1EEEE12_Scoped_nodeD2Ev
FN:308,_ZNSt10_HashtableISt10type_indexSt4pairIKS0_St10shared_ptrIvEESaIS5_ENSt8__detail10_Select1stESt8equal_toIS0_ESt4hashIS0_ENS7_18_Mod_range_hashingENS7_20_Default_ranged_hashENS7_20_Prime_rehash_policyENS7_17_Hashtable_traitsILb0ELb0ELb1EEEE12_Scoped_nodeD2Ev
FNDA:0,_ZNSt10_HashtableISt10type_indexSt4pairIKS0_St10shared_ptrIvEESaIS5_ENSt8__detail10_Select1stESt8equal_toIS0_ESt4hashIS0_ENS7_18_Mod_range_hashingENS7_20_Default_ranged_hashENS7_20_Prime_rehash_policyENS7_17_Hashtable_traitsILb0ELb0ELb1EEEE12_Scoped_nodeD2Ev
FN:308,_ZNSt10_HashtableIPN6rclcpp19QOSEventHandlerBaseESt4pairIKS2_St6atomicIbEESaIS7_ENSt8__detail10_Select1stESt8equal_toIS2_ESt4hashIS2_ENS9_18_Mod_range_hashingENS9_20_Default_ranged_hashENS9_20_Prime_rehash_policyENS9_17_Hashtable_traitsILb0ELb0ELb1EEEE12_Scoped_nodeD2Ev
FNDA:0,_ZNSt10_HashtableIPN6rclcpp19QOSEventHandlerBaseESt4pairIKS2_St6atomicIbEESaIS7_ENSt8__detail10_Select1stESt8equal_toIS2_ESt4hashIS2_ENS9_18_Mod_range_hashingENS9_20_Default_ranged_hashENS9_20_Prime_rehash_policyENS9_17_Hashtable_traitsILb0ELb0ELb1EEEE12_Scoped_nodeD2Ev
FN:421,_ZNKSt10_HashtableIPN6rclcpp19QOSEventHandlerBaseESt4pairIKS2_St6atomicIbEESaIS7_ENSt8__detail10_Select1stESt8equal_toIS2_ESt4hashIS2_ENS9_18_Mod_range_hashingENS9_20_Default_ranged_hashENS9_20_Prime_rehash_policyENS9_17_Hashtable_traitsILb0ELb0ELb1EEEE21_M_uses_single_bucketEPPNS9_15_Hash_node_baseE
FNDA:0,_ZNKSt10_HashtableIPN6rclcpp19QOSEventHandlerBaseESt4pairIKS2_St6atomicIbEESaIS7_ENSt8__detail10_Select1stESt8equal_toIS2_ESt4hashIS2_ENS9_18_Mod_range_hashingENS9_20_Default_ranged_hashENS9_20_Prime_rehash_policyENS9_17_Hashtable_traitsILb0ELb0ELb1EEEE21_M_uses_single_bucketEPPNS9_15_Hash_node_baseE
FN:421,_ZNKSt10_HashtableISt10type_indexSt4pairIKS0_St10shared_ptrIvEESaIS5_ENSt8__detail10_Select1stESt8equal_toIS0_ESt4hashIS0_ENS7_18_Mod_range_hashingENS7_20_Default_ranged_hashENS7_20_Prime_rehash_policyENS7_17_Hashtable_traitsILb0ELb0ELb1EEEE21_M_uses_single_bucketEPPNS7_15_Hash_node_baseE
FNDA:0,_ZNKSt10_HashtableISt10type_indexSt4pairIKS0_St10shared_ptrIvEESaIS5_ENSt8__detail10_Select1stESt8equal_toIS0_ESt4hashIS0_ENS7_18_Mod_range_hashingENS7_20_Default_ranged_hashENS7_20_Prime_rehash_policyENS7_17_Hashtable_traitsILb0ELb0ELb1EEEE21_M_uses_single_bucketEPPNS7_15_Hash_node_baseE
FN:421,_ZNKSt10_HashtableI29rcl_subscription_event_type_eSt4pairIKS0_St10shared_ptrIN6rclcpp19QOSEventHandlerBaseEEESaIS7_ENSt8__detail10_Select1stESt8equal_toIS0_ESt4hashIS0_ENS9_18_Mod_range_hashingENS9_20_Default_ranged_hashENS9_20_Prime_rehash_policyENS9_17_Hashtable_traitsILb0ELb0ELb1EEEE21_M_uses_single_bucketEPPNS9_15_Hash_node_baseE
FNDA:0,_ZNKSt10_HashtableI29rcl_subscription_event_type_eSt4pairIKS0_St10shared_ptrIN6rclcpp19QOSEventHandlerBaseEEESaIS7_ENSt8__detail10_Select1stESt8equal_toIS0_ESt4hashIS0_ENS9_18_Mod_range_hashingENS9_20_Default_ranged_hashENS9_20_Prime_rehash_policyENS9_17_Hashtable_traitsILb0ELb0ELb1EEEE21_M_uses_single_bucketEPPNS9_15_Hash_node_baseE
FN:421,_ZNKSt10_HashtableI26rcl_publisher_event_type_eSt4pairIKS0_St10shared_ptrIN6rclcpp19QOSEventHandlerBaseEEESaIS7_ENSt8__detail10_Select1stESt8equal_toIS0_ESt4hashIS0_ENS9_18_Mod_range_hashingENS9_20_Default_ranged_hashENS9_20_Prime_rehash_policyENS9_17_Hashtable_traitsILb0ELb0ELb1EEEE21_M_uses_single_bucketEPPNS9_15_Hash_node_baseE
FNDA:0,_ZNKSt10_HashtableI26rcl_publisher_event_type_eSt4pairIKS0_St10shared_ptrIN6rclcpp19QOSEventHandlerBaseEEESaIS7_ENSt8__detail10_Select1stESt8equal_toIS0_ESt4hashIS0_ENS9_18_Mod_range_hashingENS9_20_Default_ranged_hashENS9_20_Prime_rehash_policyENS9_17_Hashtable_traitsILb0ELb0ELb1EEEE21_M_uses_single_bucketEPPNS9_15_Hash_node_baseE
FN:432,_ZNSt10_HashtableI29rcl_subscription_event_type_eSt4pairIKS0_St10shared_ptrIN6rclcpp19QOSEventHandlerBaseEEESaIS7_ENSt8__detail10_Select1stESt8equal_toIS0_ESt4hashIS0_ENS9_18_Mod_range_hashingENS9_20_Default_ranged_hashENS9_20_Prime_rehash_policyENS9_17_Hashtable_traitsILb0ELb0ELb1EEEE19_M_allocate_bucketsEm
FNDA:0,_ZNSt10_HashtableI29rcl_subscription_event_type_eSt4pairIKS0_St10shared_ptrIN6rclcpp19QOSEventHandlerBaseEEESaIS7_ENSt8__detail10_Select1stESt8equal_toIS0_ESt4hashIS0_ENS9_18_Mod_range_hashingENS9_20_Default_ranged_hashENS9_20_Prime_rehash_policyENS9_17_Hashtable_traitsILb0ELb0ELb1EEEE19_M_allocate_bucketsEm
FN:432,_ZNSt10_HashtableI26rcl_publisher_event_type_eSt4pairIKS0_St10shared_ptrIN6rclcpp19QOSEventHandlerBaseEEESaIS7_ENSt8__detail10_Select1stESt8equal_toIS0_ESt4hashIS0_ENS9_18_Mod_range_hashingENS9_20_Default_ranged_hashENS9_20_Prime_rehash_policyENS9_17_Hashtable_traitsILb0ELb0ELb1EEEE19_M_allocate_bucketsEm
FNDA:0,_ZNSt10_HashtableI26rcl_publisher_event_type_eSt4pairIKS0_St10shared_ptrIN6rclcpp19QOSEventHandlerBaseEEESaIS7_ENSt8__detail10_Select1stESt8equal_toIS0_ESt4hashIS0_ENS9_18_Mod_range_hashingENS9_20_Default_ranged_hashENS9_20_Prime_rehash_policyENS9_17_Hashtable_traitsILb0ELb0ELb1EEEE19_M_allocate_bucketsEm
FN:432,_ZNSt10_HashtableISt10type_indexSt4pairIKS0_St10shared_ptrIvEESaIS5_ENSt8__detail10_Select1stESt8equal_toIS0_ESt4hashIS0_ENS7_18_Mod_range_hashingENS7_20_Default_ranged_hashENS7_20_Prime_rehash_policyENS7_17_Hashtable_traitsILb0ELb0ELb1EEEE19_M_allocate_bucketsEm
FNDA:0,_ZNSt10_HashtableISt10type_indexSt4pairIKS0_St10shared_ptrIvEESaIS5_ENSt8__detail10_Select1stESt8equal_toIS0_ESt4hashIS0_ENS7_18_Mod_range_hashingENS7_20_Default_ranged_hashENS7_20_Prime_rehash_policyENS7_17_Hashtable_traitsILb0ELb0ELb1EEEE19_M_allocate_bucketsEm
FN:432,_ZNSt10_HashtableIPN6rclcpp19QOSEventHandlerBaseESt4pairIKS2_St6atomicIbEESaIS7_ENSt8__detail10_Select1stESt8equal_toIS2_ESt4hashIS2_ENS9_18_Mod_range_hashingENS9_20_Default_ranged_hashENS9_20_Prime_rehash_policyENS9_17_Hashtable_traitsILb0ELb0ELb1EEEE19_M_allocate_bucketsEm
FNDA:0,_ZNSt10_HashtableIPN6rclcpp19QOSEventHandlerBaseESt4pairIKS2_St6atomicIbEESaIS7_ENSt8__detail10_Select1stESt8equal_toIS2_ESt4hashIS2_ENS9_18_Mod_range_hashingENS9_20_Default_ranged_hashENS9_20_Prime_rehash_policyENS9_17_Hashtable_traitsILb0ELb0ELb1EEEE19_M_allocate_bucketsEm
FN:444,_ZNSt10_HashtableI26rcl_publisher_event_type_eSt4pairIKS0_St10shared_ptrIN6rclcpp19QOSEventHandlerBaseEEESaIS7_ENSt8__detail10_Select1stESt8equal_toIS0_ESt4hashIS0_ENS9_18_Mod_range_hashingENS9_20_Default_ranged_hashENS9_20_Prime_rehash_policyENS9_17_Hashtable_traitsILb0ELb0ELb1EEEE21_M_deallocate_bucketsEPPNS9_15_Hash_node_baseEm
FNDA:0,_ZNSt10_HashtableI26rcl_publisher_event_type_eSt4pairIKS0_St10shared_ptrIN6rclcpp19QOSEventHandlerBaseEEESaIS7_ENSt8__detail10_Select1stESt8equal_toIS0_ESt4hashIS0_ENS9_18_Mod_range_hashingENS9_20_Default_ranged_hashENS9_20_Prime_rehash_policyENS9_17_Hashtable_traitsILb0ELb0ELb1EEEE21_M_deallocate_bucketsEPPNS9_15_Hash_node_baseEm
FN:444,_ZNSt10_HashtableISt10type_indexSt4pairIKS0_St10shared_ptrIvEESaIS5_ENSt8__detail10_Select1stESt8equal_toIS0_ESt4hashIS0_ENS7_18_Mod_range_hashingENS7_20_Default_ranged_hashENS7_20_Prime_rehash_policyENS7_17_Hashtable_traitsILb0ELb0ELb1EEEE21_M_deallocate_bucketsEPPNS7_15_Hash_node_baseEm
FNDA:0,_ZNSt10_HashtableISt10type_indexSt4pairIKS0_St10shared_ptrIvEESaIS5_ENSt8__detail10_Select1stESt8equal_toIS0_ESt4hashIS0_ENS7_18_Mod_range_hashingENS7_20_Default_ranged_hashENS7_20_Prime_rehash_policyENS7_17_Hashtable_traitsILb0ELb0ELb1EEEE21_M_deallocate_bucketsEPPNS7_15_Hash_node_baseEm
FN:444,_ZNSt10_HashtableI29rcl_subscription_event_type_eSt4pairIKS0_St10shared_ptrIN6rclcpp19QOSEventHandlerBaseEEESaIS7_ENSt8__detail10_Select1stESt8equal_toIS0_ESt4hashIS0_ENS9_18_Mod_range_hashingENS9_20_Default_ranged_hashENS9_20_Prime_rehash_policyENS9_17_Hashtable_traitsILb0ELb0ELb1EEEE21_M_deallocate_bucketsEPPNS9_15_Hash_node_baseEm
FNDA:0,_ZNSt10_HashtableI29rcl_subscription_event_type_eSt4pairIKS0_St10shared_ptrIN6rclcpp19QOSEventHandlerBaseEEESaIS7_ENSt8__detail10_Select1stESt8equal_toIS0_ESt4hashIS0_ENS9_18_Mod_range_hashingENS9_20_Default_ranged_hashENS9_20_Prime_rehash_policyENS9_17_Hashtable_traitsILb0ELb0ELb1EEEE21_M_deallocate_bucketsEPPNS9_15_Hash_node_baseEm
FN:444,_ZNSt10_HashtableIPN6rclcpp19QOSEventHandlerBaseESt4pairIKS2_St6atomicIbEESaIS7_ENSt8__detail10_Select1stESt8equal_toIS2_ESt4hashIS2_ENS9_18_Mod_range_hashingENS9_20_Default_ranged_hashENS9_20_Prime_rehash_policyENS9_17_Hashtable_traitsILb0ELb0ELb1EEEE21_M_deallocate_bucketsEPPNS9_15_Hash_node_baseEm
FNDA:0,_ZNSt10_HashtableIPN6rclcpp19QOSEventHandlerBaseESt4pairIKS2_St6atomicIbEESaIS7_ENSt8__detail10_Select1stESt8equal_toIS2_ESt4hashIS2_ENS9_18_Mod_range_hashingENS9_20_Default_ranged_hashENS9_20_Prime_rehash_policyENS9_17_Hashtable_traitsILb0ELb0ELb1EEEE21_M_deallocate_bucketsEPPNS9_15_Hash_node_baseEm
FN:453,_ZNSt10_HashtableI29rcl_subscription_event_type_eSt4pairIKS0_St10shared_ptrIN6rclcpp19QOSEventHandlerBaseEEESaIS7_ENSt8__detail10_Select1stESt8equal_toIS0_ESt4hashIS0_ENS9_18_Mod_range_hashingENS9_20_Default_ranged_hashENS9_20_Prime_rehash_policyENS9_17_Hashtable_traitsILb0ELb0ELb1EEEE21_M_deallocate_bucketsEv
FNDA:0,_ZNSt10_HashtableI29rcl_subscription_event_type_eSt4pairIKS0_St10shared_ptrIN6rclcpp19QOSEventHandlerBaseEEESaIS7_ENSt8__detail10_Select1stESt8equal_toIS0_ESt4hashIS0_ENS9_18_Mod_range_hashingENS9_20_Default_ranged_hashENS9_20_Prime_rehash_policyENS9_17_Hashtable_traitsILb0ELb0ELb1EEEE21_M_deallocate_bucketsEv
FN:453,_ZNSt10_HashtableISt10type_indexSt4pairIKS0_St10shared_ptrIvEESaIS5_ENSt8__detail10_Select1stESt8equal_toIS0_ESt4hashIS0_ENS7_18_Mod_range_hashingENS7_20_Default_ranged_hashENS7_20_Prime_rehash_policyENS7_17_Hashtable_traitsILb0ELb0ELb1EEEE21_M_deallocate_bucketsEv
FNDA:0,_ZNSt10_HashtableISt10type_indexSt4pairIKS0_St10shared_ptrIvEESaIS5_ENSt8__detail10_Select1stESt8equal_toIS0_ESt4hashIS0_ENS7_18_Mod_range_hashingENS7_20_Default_ranged_hashENS7_20_Prime_rehash_policyENS7_17_Hashtable_traitsILb0ELb0ELb1EEEE21_M_deallocate_bucketsEv
FN:453,_ZNSt10_HashtableI26rcl_publisher_event_type_eSt4pairIKS0_St10shared_ptrIN6rclcpp19QOSEventHandlerBaseEEESaIS7_ENSt8__detail10_Select1stESt8equal_toIS0_ESt4hashIS0_ENS9_18_Mod_range_hashingENS9_20_Default_ranged_hashENS9_20_Prime_rehash_policyENS9_17_Hashtable_traitsILb0ELb0ELb1EEEE21_M_deallocate_bucketsEv
FNDA:0,_ZNSt10_HashtableI26rcl_publisher_event_type_eSt4pairIKS0_St10shared_ptrIN6rclcpp19QOSEventHandlerBaseEEESaIS7_ENSt8__detail10_Select1stESt8equal_toIS0_ESt4hashIS0_ENS9_18_Mod_range_hashingENS9_20_Default_ranged_hashENS9_20_Prime_rehash_policyENS9_17_Hashtable_traitsILb0ELb0ELb1EEEE21_M_deallocate_bucketsEv
FN:453,_ZNSt10_HashtableIPN6rclcpp19QOSEventHandlerBaseESt4pairIKS2_St6atomicIbEESaIS7_ENSt8__detail10_Select1stESt8equal_toIS2_ESt4hashIS2_ENS9_18_Mod_range_hashingENS9_20_Default_ranged_hashENS9_20_Prime_rehash_policyENS9_17_Hashtable_traitsILb0ELb0ELb1EEEE21_M_deallocate_bucketsEv
FNDA:0,_ZNSt10_HashtableIPN6rclcpp19QOSEventHandlerBaseESt4pairIKS2_St6atomicIbEESaIS7_ENSt8__detail10_Select1stESt8equal_toIS2_ESt4hashIS2_ENS9_18_Mod_range_hashingENS9_20_Default_ranged_hashENS9_20_Prime_rehash_policyENS9_17_Hashtable_traitsILb0ELb0ELb1EEEE21_M_deallocate_bucketsEv
FN:462,_ZNKSt10_HashtableIPN6rclcpp19QOSEventHandlerBaseESt4pairIKS2_St6atomicIbEESaIS7_ENSt8__detail10_Select1stESt8equal_toIS2_ESt4hashIS2_ENS9_18_Mod_range_hashingENS9_20_Default_ranged_hashENS9_20_Prime_rehash_policyENS9_17_Hashtable_traitsILb0ELb0ELb1EEEE8_M_beginEv
FNDA:0,_ZNKSt10_HashtableIPN6rclcpp19QOSEventHandlerBaseESt4pairIKS2_St6atomicIbEESaIS7_ENSt8__detail10_Select1stESt8equal_toIS2_ESt4hashIS2_ENS9_18_Mod_range_hashingENS9_20_Default_ranged_hashENS9_20_Prime_rehash_policyENS9_17_Hashtable_traitsILb0ELb0ELb1EEEE8_M_beginEv
FN:462,_ZNKSt10_HashtableI26rcl_publisher_event_type_eSt4pairIKS0_St10shared_ptrIN6rclcpp19QOSEventHandlerBaseEEESaIS7_ENSt8__detail10_Select1stESt8equal_toIS0_ESt4hashIS0_ENS9_18_Mod_range_hashingENS9_20_Default_ranged_hashENS9_20_Prime_rehash_policyENS9_17_Hashtable_traitsILb0ELb0ELb1EEEE8_M_beginEv
FNDA:0,_ZNKSt10_HashtableI26rcl_publisher_event_type_eSt4pairIKS0_St10shared_ptrIN6rclcpp19QOSEventHandlerBaseEEESaIS7_ENSt8__detail10_Select1stESt8equal_toIS0_ESt4hashIS0_ENS9_18_Mod_range_hashingENS9_20_Default_ranged_hashENS9_20_Prime_rehash_policyENS9_17_Hashtable_traitsILb0ELb0ELb1EEEE8_M_beginEv
FN:462,_ZNKSt10_HashtableI29rcl_subscription_event_type_eSt4pairIKS0_St10shared_ptrIN6rclcpp19QOSEventHandlerBaseEEESaIS7_ENSt8__detail10_Select1stESt8equal_toIS0_ESt4hashIS0_ENS9_18_Mod_range_hashingENS9_20_Default_ranged_hashENS9_20_Prime_rehash_policyENS9_17_Hashtable_traitsILb0ELb0ELb1EEEE8_M_beginEv
FNDA:0,_ZNKSt10_HashtableI29rcl_subscription_event_type_eSt4pairIKS0_St10shared_ptrIN6rclcpp19QOSEventHandlerBaseEEESaIS7_ENSt8__detail10_Select1stESt8equal_toIS0_ESt4hashIS0_ENS9_18_Mod_range_hashingENS9_20_Default_ranged_hashENS9_20_Prime_rehash_policyENS9_17_Hashtable_traitsILb0ELb0ELb1EEEE8_M_beginEv
FN:462,_ZNKSt10_HashtableISt10type_indexSt4pairIKS0_St10shared_ptrIvEESaIS5_ENSt8__detail10_Select1stESt8equal_toIS0_ESt4hashIS0_ENS7_18_Mod_range_hashingENS7_20_Default_ranged_hashENS7_20_Prime_rehash_policyENS7_17_Hashtable_traitsILb0ELb0ELb1EEEE8_M_beginEv
FNDA:0,_ZNKSt10_HashtableISt10type_indexSt4pairIKS0_St10shared_ptrIvEESaIS5_ENSt8__detail10_Select1stESt8equal_toIS0_ESt4hashIS0_ENS7_18_Mod_range_hashingENS7_20_Default_ranged_hashENS7_20_Prime_rehash_policyENS7_17_Hashtable_traitsILb0ELb0ELb1EEEE8_M_beginEv
FN:629,_ZNSt10_HashtableImSt4pairIKmN6rclcpp12experimental19IntraProcessManager21SplittedSubscriptionsEESaIS6_ENSt8__detail10_Select1stESt8equal_toImESt4hashImENS8_18_Mod_range_hashingENS8_20_Default_ranged_hashENS8_20_Prime_rehash_policyENS8_17_Hashtable_traitsILb0ELb0ELb1EEEE3endEv
FNDA:0,_ZNSt10_HashtableImSt4pairIKmN6rclcpp12experimental19IntraProcessManager21SplittedSubscriptionsEESaIS6_ENSt8__detail10_Select1stESt8equal_toImESt4hashImENS8_18_Mod_range_hashingENS8_20_Default_ranged_hashENS8_20_Prime_rehash_policyENS8_17_Hashtable_traitsILb0ELb0ELb1EEEE3endEv
FN:629,_ZNSt10_HashtableImSt4pairIKmSt8weak_ptrIN6rclcpp12experimental28SubscriptionIntraProcessBaseEEESaIS7_ENSt8__detail10_Select1stESt8equal_toImESt4hashImENS9_18_Mod_range_hashingENS9_20_Default_ranged_hashENS9_20_Prime_rehash_policyENS9_17_Hashtable_traitsILb0ELb0ELb1EEEE3endEv
FNDA:0,_ZNSt10_HashtableImSt4pairIKmSt8weak_ptrIN6rclcpp12experimental28SubscriptionIntraProcessBaseEEESaIS7_ENSt8__detail10_Select1stESt8equal_toImESt4hashImENS9_18_Mod_range_hashingENS9_20_Default_ranged_hashENS9_20_Prime_rehash_policyENS9_17_Hashtable_traitsILb0ELb0ELb1EEEE3endEv
FN:629,_ZNSt10_HashtableISt10type_indexSt4pairIKS0_St10shared_ptrIvEESaIS5_ENSt8__detail10_Select1stESt8equal_toIS0_ESt4hashIS0_ENS7_18_Mod_range_hashingENS7_20_Default_ranged_hashENS7_20_Prime_rehash_policyENS7_17_Hashtable_traitsILb0ELb0ELb1EEEE3endEv
FNDA:0,_ZNSt10_HashtableISt10type_indexSt4pairIKS0_St10shared_ptrIvEESaIS5_ENSt8__detail10_Select1stESt8equal_toIS0_ESt4hashIS0_ENS7_18_Mod_range_hashingENS7_20_Default_ranged_hashENS7_20_Prime_rehash_policyENS7_17_Hashtable_traitsILb0ELb0ELb1EEEE3endEv
FN:790,_ZNKSt10_HashtableI26rcl_publisher_event_type_eSt4pairIKS0_St10shared_ptrIN6rclcpp19QOSEventHandlerBaseEEESaIS7_ENSt8__detail10_Select1stESt8equal_toIS0_ESt4hashIS0_ENS9_18_Mod_range_hashingENS9_20_Default_ranged_hashENS9_20_Prime_rehash_policyENS9_17_Hashtable_traitsILb0ELb0ELb1EEEE15_M_bucket_indexERKNS9_16_Hash_node_valueIS7_Lb0EEE
FNDA:0,_ZNKSt10_HashtableI26rcl_publisher_event_type_eSt4pairIKS0_St10shared_ptrIN6rclcpp19QOSEventHandlerBaseEEESaIS7_ENSt8__detail10_Select1stESt8equal_toIS0_ESt4hashIS0_ENS9_18_Mod_range_hashingENS9_20_Default_ranged_hashENS9_20_Prime_rehash_policyENS9_17_Hashtable_traitsILb0ELb0ELb1EEEE15_M_bucket_indexERKNS9_16_Hash_node_valueIS7_Lb0EEE
FN:790,_ZNKSt10_HashtableI29rcl_subscription_event_type_eSt4pairIKS0_St10shared_ptrIN6rclcpp19QOSEventHandlerBaseEEESaIS7_ENSt8__detail10_Select1stESt8equal_toIS0_ESt4hashIS0_ENS9_18_Mod_range_hashingENS9_20_Default_ranged_hashENS9_20_Prime_rehash_policyENS9_17_Hashtable_traitsILb0ELb0ELb1EEEE15_M_bucket_indexERKNS9_16_Hash_node_valueIS7_Lb0EEE
FNDA:0,_ZNKSt10_HashtableI29rcl_subscription_event_type_eSt4pairIKS0_St10shared_ptrIN6rclcpp19QOSEventHandlerBaseEEESaIS7_ENSt8__detail10_Select1stESt8equal_toIS0_ESt4hashIS0_ENS9_18_Mod_range_hashingENS9_20_Default_ranged_hashENS9_20_Prime_rehash_policyENS9_17_Hashtable_traitsILb0ELb0ELb1EEEE15_M_bucket_indexERKNS9_16_Hash_node_valueIS7_Lb0EEE
FN:790,_ZNKSt10_HashtableIPN6rclcpp19QOSEventHandlerBaseESt4pairIKS2_St6atomicIbEESaIS7_ENSt8__detail10_Select1stESt8equal_toIS2_ESt4hashIS2_ENS9_18_Mod_range_hashingENS9_20_Default_ranged_hashENS9_20_Prime_rehash_policyENS9_17_Hashtable_traitsILb0ELb0ELb1EEEE15_M_bucket_indexERKNS9_16_Hash_node_valueIS7_Lb0EEE
FNDA:0,_ZNKSt10_HashtableIPN6rclcpp19QOSEventHandlerBaseESt4pairIKS2_St6atomicIbEESaIS7_ENSt8__detail10_Select1stESt8equal_toIS2_ESt4hashIS2_ENS9_18_Mod_range_hashingENS9_20_Default_ranged_hashENS9_20_Prime_rehash_policyENS9_17_Hashtable_traitsILb0ELb0ELb1EEEE15_M_bucket_indexERKNS9_16_Hash_node_valueIS7_Lb0EEE
FN:790,_ZNKSt10_HashtableISt10type_indexSt4pairIKS0_St10shared_ptrIvEESaIS5_ENSt8__detail10_Select1stESt8equal_toIS0_ESt4hashIS0_ENS7_18_Mod_range_hashingENS7_20_Default_ranged_hashENS7_20_Prime_rehash_policyENS7_17_Hashtable_traitsILb0ELb0ELb1EEEE15_M_bucket_indexERKNS7_16_Hash_node_valueIS5_Lb0EEE
FNDA:0,_ZNKSt10_HashtableISt10type_indexSt4pairIKS0_St10shared_ptrIvEESaIS5_ENSt8__detail10_Select1stESt8equal_toIS0_ESt4hashIS0_ENS7_18_Mod_range_hashingENS7_20_Default_ranged_hashENS7_20_Prime_rehash_policyENS7_17_Hashtable_traitsILb0ELb0ELb1EEEE15_M_bucket_indexERKNS7_16_Hash_node_valueIS5_Lb0EEE
FN:790,_ZNKSt10_HashtableImSt4pairIKmSt8weak_ptrIN6rclcpp12experimental28SubscriptionIntraProcessBaseEEESaIS7_ENSt8__detail10_Select1stESt8equal_toImESt4hashImENS9_18_Mod_range_hashingENS9_20_Default_ranged_hashENS9_20_Prime_rehash_policyENS9_17_Hashtable_traitsILb0ELb0ELb1EEEE15_M_bucket_indexERKNS9_16_Hash_node_valueIS7_Lb0EEE
FNDA:0,_ZNKSt10_HashtableImSt4pairIKmSt8weak_ptrIN6rclcpp12experimental28SubscriptionIntraProcessBaseEEESaIS7_ENSt8__detail10_Select1stESt8equal_toImESt4hashImENS9_18_Mod_range_hashingENS9_20_Default_ranged_hashENS9_20_Prime_rehash_policyENS9_17_Hashtable_traitsILb0ELb0ELb1EEEE15_M_bucket_indexERKNS9_16_Hash_node_valueIS7_Lb0EEE
FN:790,_ZNKSt10_HashtableImSt4pairIKmN6rclcpp12experimental19IntraProcessManager21SplittedSubscriptionsEESaIS6_ENSt8__detail10_Select1stESt8equal_toImESt4hashImENS8_18_Mod_range_hashingENS8_20_Default_ranged_hashENS8_20_Prime_rehash_policyENS8_17_Hashtable_traitsILb0ELb0ELb1EEEE15_M_bucket_indexERKNS8_16_Hash_node_valueIS6_Lb0EEE
FNDA:0,_ZNKSt10_HashtableImSt4pairIKmN6rclcpp12experimental19IntraProcessManager21SplittedSubscriptionsEESaIS6_ENSt8__detail10_Select1stESt8equal_toImESt4hashImENS8_18_Mod_range_hashingENS8_20_Default_ranged_hashENS8_20_Prime_rehash_policyENS8_17_Hashtable_traitsILb0ELb0ELb1EEEE15_M_bucket_indexERKNS8_16_Hash_node_valueIS6_Lb0EEE
FN:794,_ZNKSt10_HashtableI26rcl_publisher_event_type_eSt4pairIKS0_St10shared_ptrIN6rclcpp19QOSEventHandlerBaseEEESaIS7_ENSt8__detail10_Select1stESt8equal_toIS0_ESt4hashIS0_ENS9_18_Mod_range_hashingENS9_20_Default_ranged_hashENS9_20_Prime_rehash_policyENS9_17_Hashtable_traitsILb0ELb0ELb1EEEE15_M_bucket_indexEm
FNDA:0,_ZNKSt10_HashtableI26rcl_publisher_event_type_eSt4pairIKS0_St10shared_ptrIN6rclcpp19QOSEventHandlerBaseEEESaIS7_ENSt8__detail10_Select1stESt8equal_toIS0_ESt4hashIS0_ENS9_18_Mod_range_hashingENS9_20_Default_ranged_hashENS9_20_Prime_rehash_policyENS9_17_Hashtable_traitsILb0ELb0ELb1EEEE15_M_bucket_indexEm
FN:794,_ZNKSt10_HashtableI29rcl_subscription_event_type_eSt4pairIKS0_St10shared_ptrIN6rclcpp19QOSEventHandlerBaseEEESaIS7_ENSt8__detail10_Select1stESt8equal_toIS0_ESt4hashIS0_ENS9_18_Mod_range_hashingENS9_20_Default_ranged_hashENS9_20_Prime_rehash_policyENS9_17_Hashtable_traitsILb0ELb0ELb1EEEE15_M_bucket_indexEm
FNDA:0,_ZNKSt10_HashtableI29rcl_subscription_event_type_eSt4pairIKS0_St10shared_ptrIN6rclcpp19QOSEventHandlerBaseEEESaIS7_ENSt8__detail10_Select1stESt8equal_toIS0_ESt4hashIS0_ENS9_18_Mod_range_hashingENS9_20_Default_ranged_hashENS9_20_Prime_rehash_policyENS9_17_Hashtable_traitsILb0ELb0ELb1EEEE15_M_bucket_indexEm
FN:794,_ZNKSt10_HashtableISt10type_indexSt4pairIKS0_St10shared_ptrIvEESaIS5_ENSt8__detail10_Select1stESt8equal_toIS0_ESt4hashIS0_ENS7_18_Mod_range_hashingENS7_20_Default_ranged_hashENS7_20_Prime_rehash_policyENS7_17_Hashtable_traitsILb0ELb0ELb1EEEE15_M_bucket_indexEm
FNDA:0,_ZNKSt10_HashtableISt10type_indexSt4pairIKS0_St10shared_ptrIvEESaIS5_ENSt8__detail10_Select1stESt8equal_toIS0_ESt4hashIS0_ENS7_18_Mod_range_hashingENS7_20_Default_ranged_hashENS7_20_Prime_rehash_policyENS7_17_Hashtable_traitsILb0ELb0ELb1EEEE15_M_bucket_indexEm
FN:794,_ZNKSt10_HashtableImSt4pairIKmSt8weak_ptrIN6rclcpp12experimental28SubscriptionIntraProcessBaseEEESaIS7_ENSt8__detail10_Select1stESt8equal_toImESt4hashImENS9_18_Mod_range_hashingENS9_20_Default_ranged_hashENS9_20_Prime_rehash_policyENS9_17_Hashtable_traitsILb0ELb0ELb1EEEE15_M_bucket_indexEm
FNDA:0,_ZNKSt10_HashtableImSt4pairIKmSt8weak_ptrIN6rclcpp12experimental28SubscriptionIntraProcessBaseEEESaIS7_ENSt8__detail10_Select1stESt8equal_toImESt4hashImENS9_18_Mod_range_hashingENS9_20_Default_ranged_hashENS9_20_Prime_rehash_policyENS9_17_Hashtable_traitsILb0ELb0ELb1EEEE15_M_bucket_indexEm
FN:794,_ZNKSt10_HashtableImSt4pairIKmN6rclcpp12experimental19IntraProcessManager21SplittedSubscriptionsEESaIS6_ENSt8__detail10_Select1stESt8equal_toImESt4hashImENS8_18_Mod_range_hashingENS8_20_Default_ranged_hashENS8_20_Prime_rehash_policyENS8_17_Hashtable_traitsILb0ELb0ELb1EEEE15_M_bucket_indexEm
FNDA:0,_ZNKSt10_HashtableImSt4pairIKmN6rclcpp12experimental19IntraProcessManager21SplittedSubscriptionsEESaIS6_ENSt8__detail10_Select1stESt8equal_toImESt4hashImENS8_18_Mod_range_hashingENS8_20_Default_ranged_hashENS8_20_Prime_rehash_policyENS8_17_Hashtable_traitsILb0ELb0ELb1EEEE15_M_bucket_indexEm
FN:794,_ZNKSt10_HashtableIPN6rclcpp19QOSEventHandlerBaseESt4pairIKS2_St6atomicIbEESaIS7_ENSt8__detail10_Select1stESt8equal_toIS2_ESt4hashIS2_ENS9_18_Mod_range_hashingENS9_20_Default_ranged_hashENS9_20_Prime_rehash_policyENS9_17_Hashtable_traitsILb0ELb0ELb1EEEE15_M_bucket_indexEm
FNDA:0,_ZNKSt10_HashtableIPN6rclcpp19QOSEventHandlerBaseESt4pairIKS2_St6atomicIbEESaIS7_ENSt8__detail10_Select1stESt8equal_toIS2_ESt4hashIS2_ENS9_18_Mod_range_hashingENS9_20_Default_ranged_hashENS9_20_Prime_rehash_policyENS9_17_Hashtable_traitsILb0ELb0ELb1EEEE15_M_bucket_indexEm
FN:807,_ZNKSt10_HashtableImSt4pairIKmSt8weak_ptrIN6rclcpp12experimental28SubscriptionIntraProcessBaseEEESaIS7_ENSt8__detail10_Select1stESt8equal_toImESt4hashImENS9_18_Mod_range_hashingENS9_20_Default_ranged_hashENS9_20_Prime_rehash_policyENS9_17_Hashtable_traitsILb0ELb0ELb1EEEE12_M_find_nodeEmRS1_m
FNDA:0,_ZNKSt10_HashtableImSt4pairIKmSt8weak_ptrIN6rclcpp12experimental28SubscriptionIntraProcessBaseEEESaIS7_ENSt8__detail10_Select1stESt8equal_toImESt4hashImENS9_18_Mod_range_hashingENS9_20_Default_ranged_hashENS9_20_Prime_rehash_policyENS9_17_Hashtable_traitsILb0ELb0ELb1EEEE12_M_find_nodeEmRS1_m
FN:807,_ZNKSt10_HashtableISt10type_indexSt4pairIKS0_St10shared_ptrIvEESaIS5_ENSt8__detail10_Select1stESt8equal_toIS0_ESt4hashIS0_ENS7_18_Mod_range_hashingENS7_20_Default_ranged_hashENS7_20_Prime_rehash_policyENS7_17_Hashtable_traitsILb0ELb0ELb1EEEE12_M_find_nodeEmRS2_m
FNDA:0,_ZNKSt10_HashtableISt10type_indexSt4pairIKS0_St10shared_ptrIvEESaIS5_ENSt8__detail10_Select1stESt8equal_toIS0_ESt4hashIS0_ENS7_18_Mod_range_hashingENS7_20_Default_ranged_hashENS7_20_Prime_rehash_policyENS7_17_Hashtable_traitsILb0ELb0ELb1EEEE12_M_find_nodeEmRS2_m
FN:807,_ZNKSt10_HashtableI26rcl_publisher_event_type_eSt4pairIKS0_St10shared_ptrIN6rclcpp19QOSEventHandlerBaseEEESaIS7_ENSt8__detail10_Select1stESt8equal_toIS0_ESt4hashIS0_ENS9_18_Mod_range_hashingENS9_20_Default_ranged_hashENS9_20_Prime_rehash_policyENS9_17_Hashtable_traitsILb0ELb0ELb1EEEE12_M_find_nodeEmRS2_m
FNDA:0,_ZNKSt10_HashtableI26rcl_publisher_event_type_eSt4pairIKS0_St10shared_ptrIN6rclcpp19QOSEventHandlerBaseEEESaIS7_ENSt8__detail10_Select1stESt8equal_toIS0_ESt4hashIS0_ENS9_18_Mod_range_hashingENS9_20_Default_ranged_hashENS9_20_Prime_rehash_policyENS9_17_Hashtable_traitsILb0ELb0ELb1EEEE12_M_find_nodeEmRS2_m
FN:807,_ZNKSt10_HashtableI29rcl_subscription_event_type_eSt4pairIKS0_St10shared_ptrIN6rclcpp19QOSEventHandlerBaseEEESaIS7_ENSt8__detail10_Select1stESt8equal_toIS0_ESt4hashIS0_ENS9_18_Mod_range_hashingENS9_20_Default_ranged_hashENS9_20_Prime_rehash_policyENS9_17_Hashtable_traitsILb0ELb0ELb1EEEE12_M_find_nodeEmRS2_m
FNDA:0,_ZNKSt10_HashtableI29rcl_subscription_event_type_eSt4pairIKS0_St10shared_ptrIN6rclcpp19QOSEventHandlerBaseEEESaIS7_ENSt8__detail10_Select1stESt8equal_toIS0_ESt4hashIS0_ENS9_18_Mod_range_hashingENS9_20_Default_ranged_hashENS9_20_Prime_rehash_policyENS9_17_Hashtable_traitsILb0ELb0ELb1EEEE12_M_find_nodeEmRS2_m
FN:807,_ZNKSt10_HashtableIPN6rclcpp19QOSEventHandlerBaseESt4pairIKS2_St6atomicIbEESaIS7_ENSt8__detail10_Select1stESt8equal_toIS2_ESt4hashIS2_ENS9_18_Mod_range_hashingENS9_20_Default_ranged_hashENS9_20_Prime_rehash_policyENS9_17_Hashtable_traitsILb0ELb0ELb1EEEE12_M_find_nodeEmRS4_m
FNDA:0,_ZNKSt10_HashtableIPN6rclcpp19QOSEventHandlerBaseESt4pairIKS2_St6atomicIbEESaIS7_ENSt8__detail10_Select1stESt8equal_toIS2_ESt4hashIS2_ENS9_18_Mod_range_hashingENS9_20_Default_ranged_hashENS9_20_Prime_rehash_policyENS9_17_Hashtable_traitsILb0ELb0ELb1EEEE12_M_find_nodeEmRS4_m
FN:807,_ZNKSt10_HashtableImSt4pairIKmN6rclcpp12experimental19IntraProcessManager21SplittedSubscriptionsEESaIS6_ENSt8__detail10_Select1stESt8equal_toImESt4hashImENS8_18_Mod_range_hashingENS8_20_Default_ranged_hashENS8_20_Prime_rehash_policyENS8_17_Hashtable_traitsILb0ELb0ELb1EEEE12_M_find_nodeEmRS1_m
FNDA:0,_ZNKSt10_HashtableImSt4pairIKmN6rclcpp12experimental19IntraProcessManager21SplittedSubscriptionsEESaIS6_ENSt8__detail10_Select1stESt8equal_toImESt4hashImENS8_18_Mod_range_hashingENS8_20_Default_ranged_hashENS8_20_Prime_rehash_policyENS8_17_Hashtable_traitsILb0ELb0ELb1EEEE12_M_find_nodeEmRS1_m
FN:914,_ZNSt10_HashtableI29rcl_subscription_event_type_eSt4pairIKS0_St10shared_ptrIN6rclcpp19QOSEventHandlerBaseEEESaIS7_ENSt8__detail10_Select1stESt8equal_toIS0_ESt4hashIS0_ENS9_18_Mod_range_hashingENS9_20_Default_ranged_hashENS9_20_Prime_rehash_policyENS9_17_Hashtable_traitsILb0ELb0ELb1EEEE7emplaceIJS1_IS0_S3_INS4_15QOSEventHandlerISt8functionIFvR35rmw_qos_incompatible_event_status_sEES3_I18rcl_subscription_sEEEEEEEES1_INS9_14_Node_iteratorIS7_Lb0ELb0EEEbEDpOT_
FNDA:0,_ZNSt10_HashtableI29rcl_subscription_event_type_eSt4pairIKS0_St10shared_ptrIN6rclcpp19QOSEventHandlerBaseEEESaIS7_ENSt8__detail10_Select1stESt8equal_toIS0_ESt4hashIS0_ENS9_18_Mod_range_hashingENS9_20_Default_ranged_hashENS9_20_Prime_rehash_policyENS9_17_Hashtable_traitsILb0ELb0ELb1EEEE7emplaceIJS1_IS0_S3_INS4_15QOSEventHandlerISt8functionIFvR35rmw_qos_incompatible_event_status_sEES3_I18rcl_subscription_sEEEEEEEES1_INS9_14_Node_iteratorIS7_Lb0ELb0EEEbEDpOT_
FN:914,_ZNSt10_HashtableIPN6rclcpp19QOSEventHandlerBaseESt4pairIKS2_St6atomicIbEESaIS7_ENSt8__detail10_Select1stESt8equal_toIS2_ESt4hashIS2_ENS9_18_Mod_range_hashingENS9_20_Default_ranged_hashENS9_20_Prime_rehash_policyENS9_17_Hashtable_traitsILb0ELb0ELb1EEEE7emplaceIJS3_IPNS0_15QOSEventHandlerISt8functionIFvR31rmw_liveliness_changed_status_sEESt10shared_ptrI18rcl_subscription_sEEEbEEEES3_INS9_14_Node_iteratorIS7_Lb0ELb0EEEbEDpOT_
FNDA:0,_ZNSt10_HashtableIPN6rclcpp19QOSEventHandlerBaseESt4pairIKS2_St6atomicIbEESaIS7_ENSt8__detail10_Select1stESt8equal_toIS2_ESt4hashIS2_ENS9_18_Mod_range_hashingENS9_20_Default_ranged_hashENS9_20_Prime_rehash_policyENS9_17_Hashtable_traitsILb0ELb0ELb1EEEE7emplaceIJS3_IPNS0_15QOSEventHandlerISt8functionIFvR31rmw_liveliness_changed_status_sEESt10shared_ptrI18rcl_subscription_sEEEbEEEES3_INS9_14_Node_iteratorIS7_Lb0ELb0EEEbEDpOT_
FN:914,_ZNSt10_HashtableI29rcl_subscription_event_type_eSt4pairIKS0_St10shared_ptrIN6rclcpp19QOSEventHandlerBaseEEESaIS7_ENSt8__detail10_Select1stESt8equal_toIS0_ESt4hashIS0_ENS9_18_Mod_range_hashingENS9_20_Default_ranged_hashENS9_20_Prime_rehash_policyENS9_17_Hashtable_traitsILb0ELb0ELb1EEEE7emplaceIJS1_IS0_S3_INS4_15QOSEventHandlerISt8functionIFvR31rmw_liveliness_changed_status_sEES3_I18rcl_subscription_sEEEEEEEES1_INS9_14_Node_iteratorIS7_Lb0ELb0EEEbEDpOT_
FNDA:0,_ZNSt10_HashtableI29rcl_subscription_event_type_eSt4pairIKS0_St10shared_ptrIN6rclcpp19QOSEventHandlerBaseEEESaIS7_ENSt8__detail10_Select1stESt8equal_toIS0_ESt4hashIS0_ENS9_18_Mod_range_hashingENS9_20_Default_ranged_hashENS9_20_Prime_rehash_policyENS9_17_Hashtable_traitsILb0ELb0ELb1EEEE7emplaceIJS1_IS0_S3_INS4_15QOSEventHandlerISt8functionIFvR31rmw_liveliness_changed_status_sEES3_I18rcl_subscription_sEEEEEEEES1_INS9_14_Node_iteratorIS7_Lb0ELb0EEEbEDpOT_
FN:914,_ZNSt10_HashtableI29rcl_subscription_event_type_eSt4pairIKS0_St10shared_ptrIN6rclcpp19QOSEventHandlerBaseEEESaIS7_ENSt8__detail10_Select1stESt8equal_toIS0_ESt4hashIS0_ENS9_18_Mod_range_hashingENS9_20_Default_ranged_hashENS9_20_Prime_rehash_policyENS9_17_Hashtable_traitsILb0ELb0ELb1EEEE7emplaceIJS1_IS0_S3_INS4_15QOSEventHandlerISt8functionIFvR38rmw_requested_deadline_missed_status_sEES3_I18rcl_subscription_sEEEEEEEES1_INS9_14_Node_iteratorIS7_Lb0ELb0EEEbEDpOT_
FNDA:0,_ZNSt10_HashtableI29rcl_subscription_event_type_eSt4pairIKS0_St10shared_ptrIN6rclcpp19QOSEventHandlerBaseEEESaIS7_ENSt8__detail10_Select1stESt8equal_toIS0_ESt4hashIS0_ENS9_18_Mod_range_hashingENS9_20_Default_ranged_hashENS9_20_Prime_rehash_policyENS9_17_Hashtable_traitsILb0ELb0ELb1EEEE7emplaceIJS1_IS0_S3_INS4_15QOSEventHandlerISt8functionIFvR38rmw_requested_deadline_missed_status_sEES3_I18rcl_subscription_sEEEEEEEES1_INS9_14_Node_iteratorIS7_Lb0ELb0EEEbEDpOT_
FN:914,_ZNSt10_HashtableIPN6rclcpp19QOSEventHandlerBaseESt4pairIKS2_St6atomicIbEESaIS7_ENSt8__detail10_Select1stESt8equal_toIS2_ESt4hashIS2_ENS9_18_Mod_range_hashingENS9_20_Default_ranged_hashENS9_20_Prime_rehash_policyENS9_17_Hashtable_traitsILb0ELb0ELb1EEEE7emplaceIJS3_IPNS0_15QOSEventHandlerISt8functionIFvR38rmw_requested_deadline_missed_status_sEESt10shared_ptrI18rcl_subscription_sEEEbEEEES3_INS9_14_Node_iteratorIS7_Lb0ELb0EEEbEDpOT_
FNDA:0,_ZNSt10_HashtableIPN6rclcpp19QOSEventHandlerBaseESt4pairIKS2_St6atomicIbEESaIS7_ENSt8__detail10_Select1stESt8equal_toIS2_ESt4hashIS2_ENS9_18_Mod_range_hashingENS9_20_Default_ranged_hashENS9_20_Prime_rehash_policyENS9_17_Hashtable_traitsILb0ELb0ELb1EEEE7emplaceIJS3_IPNS0_15QOSEventHandlerISt8functionIFvR38rmw_requested_deadline_missed_status_sEESt10shared_ptrI18rcl_subscription_sEEEbEEEES3_INS9_14_Node_iteratorIS7_Lb0ELb0EEEbEDpOT_
FN:914,_ZNSt10_HashtableIPN6rclcpp19QOSEventHandlerBaseESt4pairIKS2_St6atomicIbEESaIS7_ENSt8__detail10_Select1stESt8equal_toIS2_ESt4hashIS2_ENS9_18_Mod_range_hashingENS9_20_Default_ranged_hashENS9_20_Prime_rehash_policyENS9_17_Hashtable_traitsILb0ELb0ELb1EEEE7emplaceIJS3_IPNS0_15QOSEventHandlerISt8functionIFvR35rmw_qos_incompatible_event_status_sEESt10shared_ptrI18rcl_subscription_sEEEbEEEES3_INS9_14_Node_iteratorIS7_Lb0ELb0EEEbEDpOT_
FNDA:0,_ZNSt10_HashtableIPN6rclcpp19QOSEventHandlerBaseESt4pairIKS2_St6atomicIbEESaIS7_ENSt8__detail10_Select1stESt8equal_toIS2_ESt4hashIS2_ENS9_18_Mod_range_hashingENS9_20_Default_ranged_hashENS9_20_Prime_rehash_policyENS9_17_Hashtable_traitsILb0ELb0ELb1EEEE7emplaceIJS3_IPNS0_15QOSEventHandlerISt8functionIFvR35rmw_qos_incompatible_event_status_sEESt10shared_ptrI18rcl_subscription_sEEEbEEEES3_INS9_14_Node_iteratorIS7_Lb0ELb0EEEbEDpOT_
FN:914,_ZNSt10_HashtableI26rcl_publisher_event_type_eSt4pairIKS0_St10shared_ptrIN6rclcpp19QOSEventHandlerBaseEEESaIS7_ENSt8__detail10_Select1stESt8equal_toIS0_ESt4hashIS0_ENS9_18_Mod_range_hashingENS9_20_Default_ranged_hashENS9_20_Prime_rehash_policyENS9_17_Hashtable_traitsILb0ELb0ELb1EEEE7emplaceIJS1_IS0_S3_INS4_15QOSEventHandlerIZNS4_9PublisherIN15statistics_msgs3msg15MetricsMessage_ISaIvEEESR_EC4EPNS4_15node_interfaces17NodeBaseInterfaceERKNSt7__cxx1112basic_stringIcSt11char_traitsIcESaIcEEERKNS4_3QoSERKNS4_29PublisherOptionsWithAllocatorISR_EEEUlR35rmw_qos_incompatible_event_status_sE_S3_I15rcl_publisher_sEEEEEEEES1_INS9_14_Node_iteratorIS7_Lb0ELb0EEEbEDpOT_
FNDA:0,_ZNSt10_HashtableI26rcl_publisher_event_type_eSt4pairIKS0_St10shared_ptrIN6rclcpp19QOSEventHandlerBaseEEESaIS7_ENSt8__detail10_Select1stESt8equal_toIS0_ESt4hashIS0_ENS9_18_Mod_range_hashingENS9_20_Default_ranged_hashENS9_20_Prime_rehash_policyENS9_17_Hashtable_traitsILb0ELb0ELb1EEEE7emplaceIJS1_IS0_S3_INS4_15QOSEventHandlerIZNS4_9PublisherIN15statistics_msgs3msg15MetricsMessage_ISaIvEEESR_EC4EPNS4_15node_interfaces17NodeBaseInterfaceERKNSt7__cxx1112basic_stringIcSt11char_traitsIcESaIcEEERKNS4_3QoSERKNS4_29PublisherOptionsWithAllocatorISR_EEEUlR35rmw_qos_incompatible_event_status_sE_S3_I15rcl_publisher_sEEEEEEEES1_INS9_14_Node_iteratorIS7_Lb0ELb0EEEbEDpOT_
FN:914,_ZNSt10_HashtableIPN6rclcpp19QOSEventHandlerBaseESt4pairIKS2_St6atomicIbEESaIS7_ENSt8__detail10_Select1stESt8equal_toIS2_ESt4hashIS2_ENS9_18_Mod_range_hashingENS9_20_Default_ranged_hashENS9_20_Prime_rehash_policyENS9_17_Hashtable_traitsILb0ELb0ELb1EEEE7emplaceIJS3_IPNS0_15QOSEventHandlerIZNS0_12SubscriptionIN8nav_msgs3msg9Odometry_ISaIvEEESR_SS_SS_NS0_23message_memory_strategy21MessageMemoryStrategyISS_SR_EEEC4EPNS0_15node_interfaces17NodeBaseInterfaceERK29rosidl_message_type_support_tRKNSt7__cxx1112basic_stringIcSt11char_traitsIcESaIcEEERKNS0_3QoSENS0_23AnySubscriptionCallbackISS_SR_EERKNS0_32SubscriptionOptionsWithAllocatorISR_EESt10shared_ptrISV_ES1K_INS0_16topic_statistics27SubscriptionTopicStatisticsISS_EEEEUlR35rmw_qos_incompatible_event_status_sE_S1K_I18rcl_subscription_sEEEbEEEES3_INS9_14_Node_iteratorIS7_Lb0ELb0EEEbEDpOT_
FNDA:0,_ZNSt10_HashtableIPN6rclcpp19QOSEventHandlerBaseESt4pairIKS2_St6atomicIbEESaIS7_ENSt8__detail10_Select1stESt8equal_toIS2_ESt4hashIS2_ENS9_18_Mod_range_hashingENS9_20_Default_ranged_hashENS9_20_Prime_rehash_policyENS9_17_Hashtable_traitsILb0ELb0ELb1EEEE7emplaceIJS3_IPNS0_15QOSEventHandlerIZNS0_12SubscriptionIN8nav_msgs3msg9Odometry_ISaIvEEESR_SS_SS_NS0_23message_memory_strategy21MessageMemoryStrategyISS_SR_EEEC4EPNS0_15node_interfaces17NodeBaseInterfaceERK29rosidl_message_type_support_tRKNSt7__cxx1112basic_stringIcSt11char_traitsIcESaIcEEERKNS0_3QoSENS0_23AnySubscriptionCallbackISS_SR_EERKNS0_32SubscriptionOptionsWithAllocatorISR_EESt10shared_ptrISV_ES1K_INS0_16topic_statistics27SubscriptionTopicStatisticsISS_EEEEUlR35rmw_qos_incompatible_event_status_sE_S1K_I18rcl_subscription_sEEEbEEEES3_INS9_14_Node_iteratorIS7_Lb0ELb0EEEbEDpOT_
FN:914,_ZNSt10_HashtableI26rcl_publisher_event_type_eSt4pairIKS0_St10shared_ptrIN6rclcpp19QOSEventHandlerBaseEEESaIS7_ENSt8__detail10_Select1stESt8equal_toIS0_ESt4hashIS0_ENS9_18_Mod_range_hashingENS9_20_Default_ranged_hashENS9_20_Prime_rehash_policyENS9_17_Hashtable_traitsILb0ELb0ELb1EEEE7emplaceIJS1_IS0_S3_INS4_15QOSEventHandlerIZNS4_9PublisherIN13geometry_msgs3msg6Twist_ISaIvEEESR_EC4EPNS4_15node_interfaces17NodeBaseInterfaceERKNSt7__cxx1112basic_stringIcSt11char_traitsIcESaIcEEERKNS4_3QoSERKNS4_29PublisherOptionsWithAllocatorISR_EEEUlR35rmw_qos_incompatible_event_status_sE_S3_I15rcl_publisher_sEEEEEEEES1_INS9_14_Node_iteratorIS7_Lb0ELb0EEEbEDpOT_
FNDA:0,_ZNSt10_HashtableI26rcl_publisher_event_type_eSt4pairIKS0_St10shared_ptrIN6rclcpp19QOSEventHandlerBaseEEESaIS7_ENSt8__detail10_Select1stESt8equal_toIS0_ESt4hashIS0_ENS9_18_Mod_range_hashingENS9_20_Default_ranged_hashENS9_20_Prime_rehash_policyENS9_17_Hashtable_traitsILb0ELb0ELb1EEEE7emplaceIJS1_IS0_S3_INS4_15QOSEventHandlerIZNS4_9PublisherIN13geometry_msgs3msg6Twist_ISaIvEEESR_EC4EPNS4_15node_interfaces17NodeBaseInterfaceERKNSt7__cxx1112basic_stringIcSt11char_traitsIcESaIcEEERKNS4_3QoSERKNS4_29PublisherOptionsWithAllocatorISR_EEEUlR35rmw_qos_incompatible_event_status_sE_S3_I15rcl_publisher_sEEEEEEEES1_INS9_14_Node_iteratorIS7_Lb0ELb0EEEbEDpOT_
FN:914,_ZNSt10_HashtableI29rcl_subscription_event_type_eSt4pairIKS0_St10shared_ptrIN6rclcpp19QOSEventHandlerBaseEEESaIS7_ENSt8__detail10_Select1stESt8equal_toIS0_ESt4hashIS0_ENS9_18_Mod_range_hashingENS9_20_Default_ranged_hashENS9_20_Prime_rehash_policyENS9_17_Hashtable_traitsILb0ELb0ELb1EEEE7emplaceIJS1_IS0_S3_INS4_15QOSEventHandlerIZNS4_12SubscriptionIN8nav_msgs3msg9Odometry_ISaIvEEESR_SS_SS_NS4_23message_memory_strategy21MessageMemoryStrategyISS_SR_EEEC4EPNS4_15node_interfaces17NodeBaseInterfaceERK29rosidl_message_type_support_tRKNSt7__cxx1112basic_stringIcSt11char_traitsIcESaIcEEERKNS4_3QoSENS4_23AnySubscriptionCallbackISS_SR_EERKNS4_32SubscriptionOptionsWithAllocatorISR_EES3_ISV_ES3_INS4_16topic_statistics27SubscriptionTopicStatisticsISS_EEEEUlR35rmw_qos_incompatible_event_status_sE_S3_I18rcl_subscription_sEEEEEEEES1_INS9_14_Node_iteratorIS7_Lb0ELb0EEEbEDpOT_
FNDA:0,_ZNSt10_HashtableI29rcl_subscription_event_type_eSt4pairIKS0_St10shared_ptrIN6rclcpp19QOSEventHandlerBaseEEESaIS7_ENSt8__detail10_Select1stESt8equal_toIS0_ESt4hashIS0_ENS9_18_Mod_range_hashingENS9_20_Default_ranged_hashENS9_20_Prime_rehash_policyENS9_17_Hashtable_traitsILb0ELb0ELb1EEEE7emplaceIJS1_IS0_S3_INS4_15QOSEventHandlerIZNS4_12SubscriptionIN8nav_msgs3msg9Odometry_ISaIvEEESR_SS_SS_NS4_23message_memory_strategy21MessageMemoryStrategyISS_SR_EEEC4EPNS4_15node_interfaces17NodeBaseInterfaceERK29rosidl_message_type_support_tRKNSt7__cxx1112basic_stringIcSt11char_traitsIcESaIcEEERKNS4_3QoSENS4_23AnySubscriptionCallbackISS_SR_EERKNS4_32SubscriptionOptionsWithAllocatorISR_EES3_ISV_ES3_INS4_16topic_statistics27SubscriptionTopicStatisticsISS_EEEEUlR35rmw_qos_incompatible_event_status_sE_S3_I18rcl_subscription_sEEEEEEEES1_INS9_14_Node_iteratorIS7_Lb0ELb0EEEbEDpOT_
FN:914,_ZNSt10_HashtableI26rcl_publisher_event_type_eSt4pairIKS0_St10shared_ptrIN6rclcpp19QOSEventHandlerBaseEEESaIS7_ENSt8__detail10_Select1stESt8equal_toIS0_ESt4hashIS0_ENS9_18_Mod_range_hashingENS9_20_Default_ranged_hashENS9_20_Prime_rehash_policyENS9_17_Hashtable_traitsILb0ELb0ELb1EEEE7emplaceIJS1_IS0_S3_INS4_15QOSEventHandlerIZNS4_9PublisherIN13geometry_msgs3msg12PoseStamped_ISaIvEEESR_EC4EPNS4_15node_interfaces17NodeBaseInterfaceERKNSt7__cxx1112basic_stringIcSt11char_traitsIcESaIcEEERKNS4_3QoSERKNS4_29PublisherOptionsWithAllocatorISR_EEEUlR35rmw_qos_incompatible_event_status_sE_S3_I15rcl_publisher_sEEEEEEEES1_INS9_14_Node_iteratorIS7_Lb0ELb0EEEbEDpOT_
FNDA:0,_ZNSt10_HashtableI26rcl_publisher_event_type_eSt4pairIKS0_St10shared_ptrIN6rclcpp19QOSEventHandlerBaseEEESaIS7_ENSt8__detail10_Select1stESt8equal_toIS0_ESt4hashIS0_ENS9_18_Mod_range_hashingENS9_20_Default_ranged_hashENS9_20_Prime_rehash_policyENS9_17_Hashtable_traitsILb0ELb0ELb1EEEE7emplaceIJS1_IS0_S3_INS4_15QOSEventHandlerIZNS4_9PublisherIN13geometry_msgs3msg12PoseStamped_ISaIvEEESR_EC4EPNS4_15node_interfaces17NodeBaseInterfaceERKNSt7__cxx1112basic_stringIcSt11char_traitsIcESaIcEEERKNS4_3QoSERKNS4_29PublisherOptionsWithAllocatorISR_EEEUlR35rmw_qos_incompatible_event_status_sE_S3_I15rcl_publisher_sEEEEEEEES1_INS9_14_Node_iteratorIS7_Lb0ELb0EEEbEDpOT_
FN:914,_ZNSt10_HashtableIPN6rclcpp19QOSEventHandlerBaseESt4pairIKS2_St6atomicIbEESaIS7_ENSt8__detail10_Select1stESt8equal_toIS2_ESt4hashIS2_ENS9_18_Mod_range_hashingENS9_20_Default_ranged_hashENS9_20_Prime_rehash_policyENS9_17_Hashtable_traitsILb0ELb0ELb1EEEE7emplaceIJS3_IPNS0_15QOSEventHandlerISt8functionIFvR25rmw_message_lost_status_sEESt10shared_ptrI18rcl_subscription_sEEEbEEEES3_INS9_14_Node_iteratorIS7_Lb0ELb0EEEbEDpOT_
FNDA:0,_ZNSt10_HashtableIPN6rclcpp19QOSEventHandlerBaseESt4pairIKS2_St6atomicIbEESaIS7_ENSt8__detail10_Select1stESt8equal_toIS2_ESt4hashIS2_ENS9_18_Mod_range_hashingENS9_20_Default_ranged_hashENS9_20_Prime_rehash_policyENS9_17_Hashtable_traitsILb0ELb0ELb1EEEE7emplaceIJS3_IPNS0_15QOSEventHandlerISt8functionIFvR25rmw_message_lost_status_sEESt10shared_ptrI18rcl_subscription_sEEEbEEEES3_INS9_14_Node_iteratorIS7_Lb0ELb0EEEbEDpOT_
FN:914,_ZNSt10_HashtableI29rcl_subscription_event_type_eSt4pairIKS0_St10shared_ptrIN6rclcpp19QOSEventHandlerBaseEEESaIS7_ENSt8__detail10_Select1stESt8equal_toIS0_ESt4hashIS0_ENS9_18_Mod_range_hashingENS9_20_Default_ranged_hashENS9_20_Prime_rehash_policyENS9_17_Hashtable_traitsILb0ELb0ELb1EEEE7emplaceIJS1_IS0_S3_INS4_15QOSEventHandlerISt8functionIFvR25rmw_message_lost_status_sEES3_I18rcl_subscription_sEEEEEEEES1_INS9_14_Node_iteratorIS7_Lb0ELb0EEEbEDpOT_
FNDA:0,_ZNSt10_HashtableI29rcl_subscription_event_type_eSt4pairIKS0_St10shared_ptrIN6rclcpp19QOSEventHandlerBaseEEESaIS7_ENSt8__detail10_Select1stESt8equal_toIS0_ESt4hashIS0_ENS9_18_Mod_range_hashingENS9_20_Default_ranged_hashENS9_20_Prime_rehash_policyENS9_17_Hashtable_traitsILb0ELb0ELb1EEEE7emplaceIJS1_IS0_S3_INS4_15QOSEventHandlerISt8functionIFvR25rmw_message_lost_status_sEES3_I18rcl_subscription_sEEEEEEEES1_INS9_14_Node_iteratorIS7_Lb0ELb0EEEbEDpOT_
FN:914,_ZNSt10_HashtableI26rcl_publisher_event_type_eSt4pairIKS0_St10shared_ptrIN6rclcpp19QOSEventHandlerBaseEEESaIS7_ENSt8__detail10_Select1stESt8equal_toIS0_ESt4hashIS0_ENS9_18_Mod_range_hashingENS9_20_Default_ranged_hashENS9_20_Prime_rehash_policyENS9_17_Hashtable_traitsILb0ELb0ELb1EEEE7emplaceIJS1_IS0_S3_INS4_15QOSEventHandlerISt8functionIFvR35rmw_qos_incompatible_event_status_sEES3_I15rcl_publisher_sEEEEEEEES1_INS9_14_Node_iteratorIS7_Lb0ELb0EEEbEDpOT_
FNDA:0,_ZNSt10_HashtableI26rcl_publisher_event_type_eSt4pairIKS0_St10shared_ptrIN6rclcpp19QOSEventHandlerBaseEEESaIS7_ENSt8__detail10_Select1stESt8equal_toIS0_ESt4hashIS0_ENS9_18_Mod_range_hashingENS9_20_Default_ranged_hashENS9_20_Prime_rehash_policyENS9_17_Hashtable_traitsILb0ELb0ELb1EEEE7emplaceIJS1_IS0_S3_INS4_15QOSEventHandlerISt8functionIFvR35rmw_qos_incompatible_event_status_sEES3_I15rcl_publisher_sEEEEEEEES1_INS9_14_Node_iteratorIS7_Lb0ELb0EEEbEDpOT_
FN:914,_ZNSt10_HashtableI26rcl_publisher_event_type_eSt4pairIKS0_St10shared_ptrIN6rclcpp19QOSEventHandlerBaseEEESaIS7_ENSt8__detail10_Select1stESt8equal_toIS0_ESt4hashIS0_ENS9_18_Mod_range_hashingENS9_20_Default_ranged_hashENS9_20_Prime_rehash_policyENS9_17_Hashtable_traitsILb0ELb0ELb1EEEE7emplaceIJS1_IS0_S3_INS4_15QOSEventHandlerISt8functionIFvR28rmw_liveliness_lost_status_sEES3_I15rcl_publisher_sEEEEEEEES1_INS9_14_Node_iteratorIS7_Lb0ELb0EEEbEDpOT_
FNDA:0,_ZNSt10_HashtableI26rcl_publisher_event_type_eSt4pairIKS0_St10shared_ptrIN6rclcpp19QOSEventHandlerBaseEEESaIS7_ENSt8__detail10_Select1stESt8equal_toIS0_ESt4hashIS0_ENS9_18_Mod_range_hashingENS9_20_Default_ranged_hashENS9_20_Prime_rehash_policyENS9_17_Hashtable_traitsILb0ELb0ELb1EEEE7emplaceIJS1_IS0_S3_INS4_15QOSEventHandlerISt8functionIFvR28rmw_liveliness_lost_status_sEES3_I15rcl_publisher_sEEEEEEEES1_INS9_14_Node_iteratorIS7_Lb0ELb0EEEbEDpOT_
FN:914,_ZNSt10_HashtableI26rcl_publisher_event_type_eSt4pairIKS0_St10shared_ptrIN6rclcpp19QOSEventHandlerBaseEEESaIS7_ENSt8__detail10_Select1stESt8equal_toIS0_ESt4hashIS0_ENS9_18_Mod_range_hashingENS9_20_Default_ranged_hashENS9_20_Prime_rehash_policyENS9_17_Hashtable_traitsILb0ELb0ELb1EEEE7emplaceIJS1_IS0_S3_INS4_15QOSEventHandlerISt8functionIFvR36rmw_offered_deadline_missed_status_sEES3_I15rcl_publisher_sEEEEEEEES1_INS9_14_Node_iteratorIS7_Lb0ELb0EEEbEDpOT_
FNDA:0,_ZNSt10_HashtableI26rcl_publisher_event_type_eSt4pairIKS0_St10shared_ptrIN6rclcpp19QOSEventHandlerBaseEEESaIS7_ENSt8__detail10_Select1stESt8equal_toIS0_ESt4hashIS0_ENS9_18_Mod_range_hashingENS9_20_Default_ranged_hashENS9_20_Prime_rehash_policyENS9_17_Hashtable_traitsILb0ELb0ELb1EEEE7emplaceIJS1_IS0_S3_INS4_15QOSEventHandlerISt8functionIFvR36rmw_offered_deadline_missed_status_sEES3_I15rcl_publisher_sEEEEEEEES1_INS9_14_Node_iteratorIS7_Lb0ELb0EEEbEDpOT_
FN:933,_ZNSt10_HashtableImSt4pairIKmSt8weak_ptrIN6rclcpp12experimental28SubscriptionIntraProcessBaseEEESaIS7_ENSt8__detail10_Select1stESt8equal_toImESt4hashImENS9_18_Mod_range_hashingENS9_20_Default_ranged_hashENS9_20_Prime_rehash_policyENS9_17_Hashtable_traitsILb0ELb0ELb1EEEE5eraseENS9_14_Node_iteratorIS7_Lb0ELb0EEE
FNDA:0,_ZNSt10_HashtableImSt4pairIKmSt8weak_ptrIN6rclcpp12experimental28SubscriptionIntraProcessBaseEEESaIS7_ENSt8__detail10_Select1stESt8equal_toImESt4hashImENS9_18_Mod_range_hashingENS9_20_Default_ranged_hashENS9_20_Prime_rehash_policyENS9_17_Hashtable_traitsILb0ELb0ELb1EEEE5eraseENS9_14_Node_iteratorIS7_Lb0ELb0EEE
FN:937,_ZNSt10_HashtableImSt4pairIKmSt8weak_ptrIN6rclcpp12experimental28SubscriptionIntraProcessBaseEEESaIS7_ENSt8__detail10_Select1stESt8equal_toImESt4hashImENS9_18_Mod_range_hashingENS9_20_Default_ranged_hashENS9_20_Prime_rehash_policyENS9_17_Hashtable_traitsILb0ELb0ELb1EEEE5eraseERS1_
FNDA:0,_ZNSt10_HashtableImSt4pairIKmSt8weak_ptrIN6rclcpp12experimental28SubscriptionIntraProcessBaseEEESaIS7_ENSt8__detail10_Select1stESt8equal_toImESt4hashImENS9_18_Mod_range_hashingENS9_20_Default_ranged_hashENS9_20_Prime_rehash_policyENS9_17_Hashtable_traitsILb0ELb0ELb1EEEE5eraseERS1_
FN:1588,_ZNSt10_HashtableISt10type_indexSt4pairIKS0_St10shared_ptrIvEESaIS5_ENSt8__detail10_Select1stESt8equal_toIS0_ESt4hashIS0_ENS7_18_Mod_range_hashingENS7_20_Default_ranged_hashENS7_20_Prime_rehash_policyENS7_17_Hashtable_traitsILb0ELb0ELb1EEEE4findERS2_
FNDA:0,_ZNSt10_HashtableISt10type_indexSt4pairIKS0_St10shared_ptrIvEESaIS5_ENSt8__detail10_Select1stESt8equal_toIS0_ESt4hashIS0_ENS7_18_Mod_range_hashingENS7_20_Default_ranged_hashENS7_20_Prime_rehash_policyENS7_17_Hashtable_traitsILb0ELb0ELb1EEEE4findERS2_
FN:1588,_ZNSt10_HashtableImSt4pairIKmN6rclcpp12experimental19IntraProcessManager21SplittedSubscriptionsEESaIS6_ENSt8__detail10_Select1stESt8equal_toImESt4hashImENS8_18_Mod_range_hashingENS8_20_Default_ranged_hashENS8_20_Prime_rehash_policyENS8_17_Hashtable_traitsILb0ELb0ELb1EEEE4findERS1_
FNDA:0,_ZNSt10_HashtableImSt4pairIKmN6rclcpp12experimental19IntraProcessManager21SplittedSubscriptionsEESaIS6_ENSt8__detail10_Select1stESt8equal_toImESt4hashImENS8_18_Mod_range_hashingENS8_20_Default_ranged_hashENS8_20_Prime_rehash_policyENS8_17_Hashtable_traitsILb0ELb0ELb1EEEE4findERS1_
FN:1588,_ZNSt10_HashtableImSt4pairIKmSt8weak_ptrIN6rclcpp12experimental28SubscriptionIntraProcessBaseEEESaIS7_ENSt8__detail10_Select1stESt8equal_toImESt4hashImENS9_18_Mod_range_hashingENS9_20_Default_ranged_hashENS9_20_Prime_rehash_policyENS9_17_Hashtable_traitsILb0ELb0ELb1EEEE4findERS1_
FNDA:0,_ZNSt10_HashtableImSt4pairIKmSt8weak_ptrIN6rclcpp12experimental28SubscriptionIntraProcessBaseEEESaIS7_ENSt8__detail10_Select1stESt8equal_toImESt4hashImENS9_18_Mod_range_hashingENS9_20_Default_ranged_hashENS9_20_Prime_rehash_policyENS9_17_Hashtable_traitsILb0ELb0ELb1EEEE4findERS1_
FN:1827,_ZNKSt10_HashtableI26rcl_publisher_event_type_eSt4pairIKS0_St10shared_ptrIN6rclcpp19QOSEventHandlerBaseEEESaIS7_ENSt8__detail10_Select1stESt8equal_toIS0_ESt4hashIS0_ENS9_18_Mod_range_hashingENS9_20_Default_ranged_hashENS9_20_Prime_rehash_policyENS9_17_Hashtable_traitsILb0ELb0ELb1EEEE19_M_find_before_nodeEmRS2_m
FNDA:0,_ZNKSt10_HashtableI26rcl_publisher_event_type_eSt4pairIKS0_St10shared_ptrIN6rclcpp19QOSEventHandlerBaseEEESaIS7_ENSt8__detail10_Select1stESt8equal_toIS0_ESt4hashIS0_ENS9_18_Mod_range_hashingENS9_20_Default_ranged_hashENS9_20_Prime_rehash_policyENS9_17_Hashtable_traitsILb0ELb0ELb1EEEE19_M_find_before_nodeEmRS2_m
FN:1827,_ZNKSt10_HashtableI29rcl_subscription_event_type_eSt4pairIKS0_St10shared_ptrIN6rclcpp19QOSEventHandlerBaseEEESaIS7_ENSt8__detail10_Select1stESt8equal_toIS0_ESt4hashIS0_ENS9_18_Mod_range_hashingENS9_20_Default_ranged_hashENS9_20_Prime_rehash_policyENS9_17_Hashtable_traitsILb0ELb0ELb1EEEE19_M_find_before_nodeEmRS2_m
FNDA:0,_ZNKSt10_HashtableI29rcl_subscription_event_type_eSt4pairIKS0_St10shared_ptrIN6rclcpp19QOSEventHandlerBaseEEESaIS7_ENSt8__detail10_Select1stESt8equal_toIS0_ESt4hashIS0_ENS9_18_Mod_range_hashingENS9_20_Default_ranged_hashENS9_20_Prime_rehash_policyENS9_17_Hashtable_traitsILb0ELb0ELb1EEEE19_M_find_before_nodeEmRS2_m
FN:1827,_ZNKSt10_HashtableImSt4pairIKmN6rclcpp12experimental19IntraProcessManager21SplittedSubscriptionsEESaIS6_ENSt8__detail10_Select1stESt8equal_toImESt4hashImENS8_18_Mod_range_hashingENS8_20_Default_ranged_hashENS8_20_Prime_rehash_policyENS8_17_Hashtable_traitsILb0ELb0ELb1EEEE19_M_find_before_nodeEmRS1_m
FNDA:0,_ZNKSt10_HashtableImSt4pairIKmN6rclcpp12experimental19IntraProcessManager21SplittedSubscriptionsEESaIS6_ENSt8__detail10_Select1stESt8equal_toImESt4hashImENS8_18_Mod_range_hashingENS8_20_Default_ranged_hashENS8_20_Prime_rehash_policyENS8_17_Hashtable_traitsILb0ELb0ELb1EEEE19_M_find_before_nodeEmRS1_m
FN:1827,_ZNKSt10_HashtableIPN6rclcpp19QOSEventHandlerBaseESt4pairIKS2_St6atomicIbEESaIS7_ENSt8__detail10_Select1stESt8equal_toIS2_ESt4hashIS2_ENS9_18_Mod_range_hashingENS9_20_Default_ranged_hashENS9_20_Prime_rehash_policyENS9_17_Hashtable_traitsILb0ELb0ELb1EEEE19_M_find_before_nodeEmRS4_m
FNDA:0,_ZNKSt10_HashtableIPN6rclcpp19QOSEventHandlerBaseESt4pairIKS2_St6atomicIbEESaIS7_ENSt8__detail10_Select1stESt8equal_toIS2_ESt4hashIS2_ENS9_18_Mod_range_hashingENS9_20_Default_ranged_hashENS9_20_Prime_rehash_policyENS9_17_Hashtable_traitsILb0ELb0ELb1EEEE19_M_find_before_nodeEmRS4_m
FN:1827,_ZNKSt10_HashtableImSt4pairIKmSt8weak_ptrIN6rclcpp12experimental28SubscriptionIntraProcessBaseEEESaIS7_ENSt8__detail10_Select1stESt8equal_toImESt4hashImENS9_18_Mod_range_hashingENS9_20_Default_ranged_hashENS9_20_Prime_rehash_policyENS9_17_Hashtable_traitsILb0ELb0ELb1EEEE19_M_find_before_nodeEmRS1_m
FNDA:0,_ZNKSt10_HashtableImSt4pairIKmSt8weak_ptrIN6rclcpp12experimental28SubscriptionIntraProcessBaseEEESaIS7_ENSt8__detail10_Select1stESt8equal_toImESt4hashImENS9_18_Mod_range_hashingENS9_20_Default_ranged_hashENS9_20_Prime_rehash_policyENS9_17_Hashtable_traitsILb0ELb0ELb1EEEE19_M_find_before_nodeEmRS1_m
FN:1827,_ZNKSt10_HashtableISt10type_indexSt4pairIKS0_St10shared_ptrIvEESaIS5_ENSt8__detail10_Select1stESt8equal_toIS0_ESt4hashIS0_ENS7_18_Mod_range_hashingENS7_20_Default_ranged_hashENS7_20_Prime_rehash_policyENS7_17_Hashtable_traitsILb0ELb0ELb1EEEE19_M_find_before_nodeEmRS2_m
FNDA:0,_ZNKSt10_HashtableISt10type_indexSt4pairIKS0_St10shared_ptrIvEESaIS5_ENSt8__detail10_Select1stESt8equal_toIS0_ESt4hashIS0_ENS7_18_Mod_range_hashingENS7_20_Default_ranged_hashENS7_20_Prime_rehash_policyENS7_17_Hashtable_traitsILb0ELb0ELb1EEEE19_M_find_before_nodeEmRS2_m
FN:1886,_ZNSt10_HashtableI29rcl_subscription_event_type_eSt4pairIKS0_St10shared_ptrIN6rclcpp19QOSEventHandlerBaseEEESaIS7_ENSt8__detail10_Select1stESt8equal_toIS0_ESt4hashIS0_ENS9_18_Mod_range_hashingENS9_20_Default_ranged_hashENS9_20_Prime_rehash_policyENS9_17_Hashtable_traitsILb0ELb0ELb1EEEE22_M_insert_bucket_beginEmPNS9_10_Hash_nodeIS7_Lb0EEE
FNDA:0,_ZNSt10_HashtableI29rcl_subscription_event_type_eSt4pairIKS0_St10shared_ptrIN6rclcpp19QOSEventHandlerBaseEEESaIS7_ENSt8__detail10_Select1stESt8equal_toIS0_ESt4hashIS0_ENS9_18_Mod_range_hashingENS9_20_Default_ranged_hashENS9_20_Prime_rehash_policyENS9_17_Hashtable_traitsILb0ELb0ELb1EEEE22_M_insert_bucket_beginEmPNS9_10_Hash_nodeIS7_Lb0EEE
FN:1886,_ZNSt10_HashtableISt10type_indexSt4pairIKS0_St10shared_ptrIvEESaIS5_ENSt8__detail10_Select1stESt8equal_toIS0_ESt4hashIS0_ENS7_18_Mod_range_hashingENS7_20_Default_ranged_hashENS7_20_Prime_rehash_policyENS7_17_Hashtable_traitsILb0ELb0ELb1EEEE22_M_insert_bucket_beginEmPNS7_10_Hash_nodeIS5_Lb0EEE
FNDA:0,_ZNSt10_HashtableISt10type_indexSt4pairIKS0_St10shared_ptrIvEESaIS5_ENSt8__detail10_Select1stESt8equal_toIS0_ESt4hashIS0_ENS7_18_Mod_range_hashingENS7_20_Default_ranged_hashENS7_20_Prime_rehash_policyENS7_17_Hashtable_traitsILb0ELb0ELb1EEEE22_M_insert_bucket_beginEmPNS7_10_Hash_nodeIS5_Lb0EEE
FN:1886,_ZNSt10_HashtableIPN6rclcpp19QOSEventHandlerBaseESt4pairIKS2_St6atomicIbEESaIS7_ENSt8__detail10_Select1stESt8equal_toIS2_ESt4hashIS2_ENS9_18_Mod_range_hashingENS9_20_Default_ranged_hashENS9_20_Prime_rehash_policyENS9_17_Hashtable_traitsILb0ELb0ELb1EEEE22_M_insert_bucket_beginEmPNS9_10_Hash_nodeIS7_Lb0EEE
FNDA:0,_ZNSt10_HashtableIPN6rclcpp19QOSEventHandlerBaseESt4pairIKS2_St6atomicIbEESaIS7_ENSt8__detail10_Select1stESt8equal_toIS2_ESt4hashIS2_ENS9_18_Mod_range_hashingENS9_20_Default_ranged_hashENS9_20_Prime_rehash_policyENS9_17_Hashtable_traitsILb0ELb0ELb1EEEE22_M_insert_bucket_beginEmPNS9_10_Hash_nodeIS7_Lb0EEE
FN:1886,_ZNSt10_HashtableI26rcl_publisher_event_type_eSt4pairIKS0_St10shared_ptrIN6rclcpp19QOSEventHandlerBaseEEESaIS7_ENSt8__detail10_Select1stESt8equal_toIS0_ESt4hashIS0_ENS9_18_Mod_range_hashingENS9_20_Default_ranged_hashENS9_20_Prime_rehash_policyENS9_17_Hashtable_traitsILb0ELb0ELb1EEEE22_M_insert_bucket_beginEmPNS9_10_Hash_nodeIS7_Lb0EEE
FNDA:0,_ZNSt10_HashtableI26rcl_publisher_event_type_eSt4pairIKS0_St10shared_ptrIN6rclcpp19QOSEventHandlerBaseEEESaIS7_ENSt8__detail10_Select1stESt8equal_toIS0_ESt4hashIS0_ENS9_18_Mod_range_hashingENS9_20_Default_ranged_hashENS9_20_Prime_rehash_policyENS9_17_Hashtable_traitsILb0ELb0ELb1EEEE22_M_insert_bucket_beginEmPNS9_10_Hash_nodeIS7_Lb0EEE
FN:1919,_ZNSt10_HashtableImSt4pairIKmSt8weak_ptrIN6rclcpp12experimental28SubscriptionIntraProcessBaseEEESaIS7_ENSt8__detail10_Select1stESt8equal_toImESt4hashImENS9_18_Mod_range_hashingENS9_20_Default_ranged_hashENS9_20_Prime_rehash_policyENS9_17_Hashtable_traitsILb0ELb0ELb1EEEE22_M_remove_bucket_beginEmPNS9_10_Hash_nodeIS7_Lb0EEEm
FNDA:0,_ZNSt10_HashtableImSt4pairIKmSt8weak_ptrIN6rclcpp12experimental28SubscriptionIntraProcessBaseEEESaIS7_ENSt8__detail10_Select1stESt8equal_toImESt4hashImENS9_18_Mod_range_hashingENS9_20_Default_ranged_hashENS9_20_Prime_rehash_policyENS9_17_Hashtable_traitsILb0ELb0ELb1EEEE22_M_remove_bucket_beginEmPNS9_10_Hash_nodeIS7_Lb0EEEm
FN:1943,_ZNSt10_HashtableImSt4pairIKmSt8weak_ptrIN6rclcpp12experimental28SubscriptionIntraProcessBaseEEESaIS7_ENSt8__detail10_Select1stESt8equal_toImESt4hashImENS9_18_Mod_range_hashingENS9_20_Default_ranged_hashENS9_20_Prime_rehash_policyENS9_17_Hashtable_traitsILb0ELb0ELb1EEEE20_M_get_previous_nodeEmPNS9_10_Hash_nodeIS7_Lb0EEE
FNDA:0,_ZNSt10_HashtableImSt4pairIKmSt8weak_ptrIN6rclcpp12experimental28SubscriptionIntraProcessBaseEEESaIS7_ENSt8__detail10_Select1stESt8equal_toImESt4hashImENS9_18_Mod_range_hashingENS9_20_Default_ranged_hashENS9_20_Prime_rehash_policyENS9_17_Hashtable_traitsILb0ELb0ELb1EEEE20_M_get_previous_nodeEmPNS9_10_Hash_nodeIS7_Lb0EEE
FN:1960,_ZNSt10_HashtableI29rcl_subscription_event_type_eSt4pairIKS0_St10shared_ptrIN6rclcpp19QOSEventHandlerBaseEEESaIS7_ENSt8__detail10_Select1stESt8equal_toIS0_ESt4hashIS0_ENS9_18_Mod_range_hashingENS9_20_Default_ranged_hashENS9_20_Prime_rehash_policyENS9_17_Hashtable_traitsILb0ELb0ELb1EEEE10_M_emplaceIJS1_IS0_S3_INS4_15QOSEventHandlerISt8functionIFvR35rmw_qos_incompatible_event_status_sEES3_I18rcl_subscription_sEEEEEEEES1_INS9_14_Node_iteratorIS7_Lb0ELb0EEEbESt17integral_constantIbLb1EEDpOT_
FNDA:0,_ZNSt10_HashtableI29rcl_subscription_event_type_eSt4pairIKS0_St10shared_ptrIN6rclcpp19QOSEventHandlerBaseEEESaIS7_ENSt8__detail10_Select1stESt8equal_toIS0_ESt4hashIS0_ENS9_18_Mod_range_hashingENS9_20_Default_ranged_hashENS9_20_Prime_rehash_policyENS9_17_Hashtable_traitsILb0ELb0ELb1EEEE10_M_emplaceIJS1_IS0_S3_INS4_15QOSEventHandlerISt8functionIFvR35rmw_qos_incompatible_event_status_sEES3_I18rcl_subscription_sEEEEEEEES1_INS9_14_Node_iteratorIS7_Lb0ELb0EEEbESt17integral_constantIbLb1EEDpOT_
FN:1960,_ZNSt10_HashtableIPN6rclcpp19QOSEventHandlerBaseESt4pairIKS2_St6atomicIbEESaIS7_ENSt8__detail10_Select1stESt8equal_toIS2_ESt4hashIS2_ENS9_18_Mod_range_hashingENS9_20_Default_ranged_hashENS9_20_Prime_rehash_policyENS9_17_Hashtable_traitsILb0ELb0ELb1EEEE10_M_emplaceIJS3_IPNS0_15QOSEventHandlerIZNS0_12SubscriptionIN8nav_msgs3msg9Odometry_ISaIvEEESR_SS_SS_NS0_23message_memory_strategy21MessageMemoryStrategyISS_SR_EEEC4EPNS0_15node_interfaces17NodeBaseInterfaceERK29rosidl_message_type_support_tRKNSt7__cxx1112basic_stringIcSt11char_traitsIcESaIcEEERKNS0_3QoSENS0_23AnySubscriptionCallbackISS_SR_EERKNS0_32SubscriptionOptionsWithAllocatorISR_EESt10shared_ptrISV_ES1K_INS0_16topic_statistics27SubscriptionTopicStatisticsISS_EEEEUlR35rmw_qos_incompatible_event_status_sE_S1K_I18rcl_subscription_sEEEbEEEES3_INS9_14_Node_iteratorIS7_Lb0ELb0EEEbESt17integral_constantIbLb1EEDpOT_
FNDA:0,_ZNSt10_HashtableIPN6rclcpp19QOSEventHandlerBaseESt4pairIKS2_St6atomicIbEESaIS7_ENSt8__detail10_Select1stESt8equal_toIS2_ESt4hashIS2_ENS9_18_Mod_range_hashingENS9_20_Default_ranged_hashENS9_20_Prime_rehash_policyENS9_17_Hashtable_traitsILb0ELb0ELb1EEEE10_M_emplaceIJS3_IPNS0_15QOSEventHandlerIZNS0_12SubscriptionIN8nav_msgs3msg9Odometry_ISaIvEEESR_SS_SS_NS0_23message_memory_strategy21MessageMemoryStrategyISS_SR_EEEC4EPNS0_15node_interfaces17NodeBaseInterfaceERK29rosidl_message_type_support_tRKNSt7__cxx1112basic_stringIcSt11char_traitsIcESaIcEEERKNS0_3QoSENS0_23AnySubscriptionCallbackISS_SR_EERKNS0_32SubscriptionOptionsWithAllocatorISR_EESt10shared_ptrISV_ES1K_INS0_16topic_statistics27SubscriptionTopicStatisticsISS_EEEEUlR35rmw_qos_incompatible_event_status_sE_S1K_I18rcl_subscription_sEEEbEEEES3_INS9_14_Node_iteratorIS7_Lb0ELb0EEEbESt17integral_constantIbLb1EEDpOT_
FN:1960,_ZNSt10_HashtableIPN6rclcpp19QOSEventHandlerBaseESt4pairIKS2_St6atomicIbEESaIS7_ENSt8__detail10_Select1stESt8equal_toIS2_ESt4hashIS2_ENS9_18_Mod_range_hashingENS9_20_Default_ranged_hashENS9_20_Prime_rehash_policyENS9_17_Hashtable_traitsILb0ELb0ELb1EEEE10_M_emplaceIJS3_IPNS0_15QOSEventHandlerISt8functionIFvR35rmw_qos_incompatible_event_status_sEESt10shared_ptrI18rcl_subscription_sEEEbEEEES3_INS9_14_Node_iteratorIS7_Lb0ELb0EEEbESt17integral_constantIbLb1EEDpOT_
FNDA:0,_ZNSt10_HashtableIPN6rclcpp19QOSEventHandlerBaseESt4pairIKS2_St6atomicIbEESaIS7_ENSt8__detail10_Select1stESt8equal_toIS2_ESt4hashIS2_ENS9_18_Mod_range_hashingENS9_20_Default_ranged_hashENS9_20_Prime_rehash_policyENS9_17_Hashtable_traitsILb0ELb0ELb1EEEE10_M_emplaceIJS3_IPNS0_15QOSEventHandlerISt8functionIFvR35rmw_qos_incompatible_event_status_sEESt10shared_ptrI18rcl_subscription_sEEEbEEEES3_INS9_14_Node_iteratorIS7_Lb0ELb0EEEbESt17integral_constantIbLb1EEDpOT_
FN:1960,_ZNSt10_HashtableI26rcl_publisher_event_type_eSt4pairIKS0_St10shared_ptrIN6rclcpp19QOSEventHandlerBaseEEESaIS7_ENSt8__detail10_Select1stESt8equal_toIS0_ESt4hashIS0_ENS9_18_Mod_range_hashingENS9_20_Default_ranged_hashENS9_20_Prime_rehash_policyENS9_17_Hashtable_traitsILb0ELb0ELb1EEEE10_M_emplaceIJS1_IS0_S3_INS4_15QOSEventHandlerISt8functionIFvR35rmw_qos_incompatible_event_status_sEES3_I15rcl_publisher_sEEEEEEEES1_INS9_14_Node_iteratorIS7_Lb0ELb0EEEbESt17integral_constantIbLb1EEDpOT_
FNDA:0,_ZNSt10_HashtableI26rcl_publisher_event_type_eSt4pairIKS0_St10shared_ptrIN6rclcpp19QOSEventHandlerBaseEEESaIS7_ENSt8__detail10_Select1stESt8equal_toIS0_ESt4hashIS0_ENS9_18_Mod_range_hashingENS9_20_Default_ranged_hashENS9_20_Prime_rehash_policyENS9_17_Hashtable_traitsILb0ELb0ELb1EEEE10_M_emplaceIJS1_IS0_S3_INS4_15QOSEventHandlerISt8functionIFvR35rmw_qos_incompatible_event_status_sEES3_I15rcl_publisher_sEEEEEEEES1_INS9_14_Node_iteratorIS7_Lb0ELb0EEEbESt17integral_constantIbLb1EEDpOT_
FN:1960,_ZNSt10_HashtableI26rcl_publisher_event_type_eSt4pairIKS0_St10shared_ptrIN6rclcpp19QOSEventHandlerBaseEEESaIS7_ENSt8__detail10_Select1stESt8equal_toIS0_ESt4hashIS0_ENS9_18_Mod_range_hashingENS9_20_Default_ranged_hashENS9_20_Prime_rehash_policyENS9_17_Hashtable_traitsILb0ELb0ELb1EEEE10_M_emplaceIJS1_IS0_S3_INS4_15QOSEventHandlerISt8functionIFvR28rmw_liveliness_lost_status_sEES3_I15rcl_publisher_sEEEEEEEES1_INS9_14_Node_iteratorIS7_Lb0ELb0EEEbESt17integral_constantIbLb1EEDpOT_
FNDA:0,_ZNSt10_HashtableI26rcl_publisher_event_type_eSt4pairIKS0_St10shared_ptrIN6rclcpp19QOSEventHandlerBaseEEESaIS7_ENSt8__detail10_Select1stESt8equal_toIS0_ESt4hashIS0_ENS9_18_Mod_range_hashingENS9_20_Default_ranged_hashENS9_20_Prime_rehash_policyENS9_17_Hashtable_traitsILb0ELb0ELb1EEEE10_M_emplaceIJS1_IS0_S3_INS4_15QOSEventHandlerISt8functionIFvR28rmw_liveliness_lost_status_sEES3_I15rcl_publisher_sEEEEEEEES1_INS9_14_Node_iteratorIS7_Lb0ELb0EEEbESt17integral_constantIbLb1EEDpOT_
FN:1960,_ZNSt10_HashtableI29rcl_subscription_event_type_eSt4pairIKS0_St10shared_ptrIN6rclcpp19QOSEventHandlerBaseEEESaIS7_ENSt8__detail10_Select1stESt8equal_toIS0_ESt4hashIS0_ENS9_18_Mod_range_hashingENS9_20_Default_ranged_hashENS9_20_Prime_rehash_policyENS9_17_Hashtable_traitsILb0ELb0ELb1EEEE10_M_emplaceIJS1_IS0_S3_INS4_15QOSEventHandlerISt8functionIFvR31rmw_liveliness_changed_status_sEES3_I18rcl_subscription_sEEEEEEEES1_INS9_14_Node_iteratorIS7_Lb0ELb0EEEbESt17integral_constantIbLb1EEDpOT_
FNDA:0,_ZNSt10_HashtableI29rcl_subscription_event_type_eSt4pairIKS0_St10shared_ptrIN6rclcpp19QOSEventHandlerBaseEEESaIS7_ENSt8__detail10_Select1stESt8equal_toIS0_ESt4hashIS0_ENS9_18_Mod_range_hashingENS9_20_Default_ranged_hashENS9_20_Prime_rehash_policyENS9_17_Hashtable_traitsILb0ELb0ELb1EEEE10_M_emplaceIJS1_IS0_S3_INS4_15QOSEventHandlerISt8functionIFvR31rmw_liveliness_changed_status_sEES3_I18rcl_subscription_sEEEEEEEES1_INS9_14_Node_iteratorIS7_Lb0ELb0EEEbESt17integral_constantIbLb1EEDpOT_
FN:1960,_ZNSt10_HashtableIPN6rclcpp19QOSEventHandlerBaseESt4pairIKS2_St6atomicIbEESaIS7_ENSt8__detail10_Select1stESt8equal_toIS2_ESt4hashIS2_ENS9_18_Mod_range_hashingENS9_20_Default_ranged_hashENS9_20_Prime_rehash_policyENS9_17_Hashtable_traitsILb0ELb0ELb1EEEE10_M_emplaceIJS3_IPNS0_15QOSEventHandlerISt8functionIFvR25rmw_message_lost_status_sEESt10shared_ptrI18rcl_subscription_sEEEbEEEES3_INS9_14_Node_iteratorIS7_Lb0ELb0EEEbESt17integral_constantIbLb1EEDpOT_
FNDA:0,_ZNSt10_HashtableIPN6rclcpp19QOSEventHandlerBaseESt4pairIKS2_St6atomicIbEESaIS7_ENSt8__detail10_Select1stESt8equal_toIS2_ESt4hashIS2_ENS9_18_Mod_range_hashingENS9_20_Default_ranged_hashENS9_20_Prime_rehash_policyENS9_17_Hashtable_traitsILb0ELb0ELb1EEEE10_M_emplaceIJS3_IPNS0_15QOSEventHandlerISt8functionIFvR25rmw_message_lost_status_sEESt10shared_ptrI18rcl_subscription_sEEEbEEEES3_INS9_14_Node_iteratorIS7_Lb0ELb0EEEbESt17integral_constantIbLb1EEDpOT_
FN:1960,_ZNSt10_HashtableI26rcl_publisher_event_type_eSt4pairIKS0_St10shared_ptrIN6rclcpp19QOSEventHandlerBaseEEESaIS7_ENSt8__detail10_Select1stESt8equal_toIS0_ESt4hashIS0_ENS9_18_Mod_range_hashingENS9_20_Default_ranged_hashENS9_20_Prime_rehash_policyENS9_17_Hashtable_traitsILb0ELb0ELb1EEEE10_M_emplaceIJS1_IS0_S3_INS4_15QOSEventHandlerIZNS4_9PublisherIN15statistics_msgs3msg15MetricsMessage_ISaIvEEESR_EC4EPNS4_15node_interfaces17NodeBaseInterfaceERKNSt7__cxx1112basic_stringIcSt11char_traitsIcESaIcEEERKNS4_3QoSERKNS4_29PublisherOptionsWithAllocatorISR_EEEUlR35rmw_qos_incompatible_event_status_sE_S3_I15rcl_publisher_sEEEEEEEES1_INS9_14_Node_iteratorIS7_Lb0ELb0EEEbESt17integral_constantIbLb1EEDpOT_
FNDA:0,_ZNSt10_HashtableI26rcl_publisher_event_type_eSt4pairIKS0_St10shared_ptrIN6rclcpp19QOSEventHandlerBaseEEESaIS7_ENSt8__detail10_Select1stESt8equal_toIS0_ESt4hashIS0_ENS9_18_Mod_range_hashingENS9_20_Default_ranged_hashENS9_20_Prime_rehash_policyENS9_17_Hashtable_traitsILb0ELb0ELb1EEEE10_M_emplaceIJS1_IS0_S3_INS4_15QOSEventHandlerIZNS4_9PublisherIN15statistics_msgs3msg15MetricsMessage_ISaIvEEESR_EC4EPNS4_15node_interfaces17NodeBaseInterfaceERKNSt7__cxx1112basic_stringIcSt11char_traitsIcESaIcEEERKNS4_3QoSERKNS4_29PublisherOptionsWithAllocatorISR_EEEUlR35rmw_qos_incompatible_event_status_sE_S3_I15rcl_publisher_sEEEEEEEES1_INS9_14_Node_iteratorIS7_Lb0ELb0EEEbESt17integral_constantIbLb1EEDpOT_
FN:1960,_ZNSt10_HashtableIPN6rclcpp19QOSEventHandlerBaseESt4pairIKS2_St6atomicIbEESaIS7_ENSt8__detail10_Select1stESt8equal_toIS2_ESt4hashIS2_ENS9_18_Mod_range_hashingENS9_20_Default_ranged_hashENS9_20_Prime_rehash_policyENS9_17_Hashtable_traitsILb0ELb0ELb1EEEE10_M_emplaceIJS3_IPNS0_15QOSEventHandlerISt8functionIFvR38rmw_requested_deadline_missed_status_sEESt10shared_ptrI18rcl_subscription_sEEEbEEEES3_INS9_14_Node_iteratorIS7_Lb0ELb0EEEbESt17integral_constantIbLb1EEDpOT_
FNDA:0,_ZNSt10_HashtableIPN6rclcpp19QOSEventHandlerBaseESt4pairIKS2_St6atomicIbEESaIS7_ENSt8__detail10_Select1stESt8equal_toIS2_ESt4hashIS2_ENS9_18_Mod_range_hashingENS9_20_Default_ranged_hashENS9_20_Prime_rehash_policyENS9_17_Hashtable_traitsILb0ELb0ELb1EEEE10_M_emplaceIJS3_IPNS0_15QOSEventHandlerISt8functionIFvR38rmw_requested_deadline_missed_status_sEESt10shared_ptrI18rcl_subscription_sEEEbEEEES3_INS9_14_Node_iteratorIS7_Lb0ELb0EEEbESt17integral_constantIbLb1EEDpOT_
FN:1960,_ZNSt10_HashtableI29rcl_subscription_event_type_eSt4pairIKS0_St10shared_ptrIN6rclcpp19QOSEventHandlerBaseEEESaIS7_ENSt8__detail10_Select1stESt8equal_toIS0_ESt4hashIS0_ENS9_18_Mod_range_hashingENS9_20_Default_ranged_hashENS9_20_Prime_rehash_policyENS9_17_Hashtable_traitsILb0ELb0ELb1EEEE10_M_emplaceIJS1_IS0_S3_INS4_15QOSEventHandlerIZNS4_12SubscriptionIN8nav_msgs3msg9Odometry_ISaIvEEESR_SS_SS_NS4_23message_memory_strategy21MessageMemoryStrategyISS_SR_EEEC4EPNS4_15node_interfaces17NodeBaseInterfaceERK29rosidl_message_type_support_tRKNSt7__cxx1112basic_stringIcSt11char_traitsIcESaIcEEERKNS4_3QoSENS4_23AnySubscriptionCallbackISS_SR_EERKNS4_32SubscriptionOptionsWithAllocatorISR_EES3_ISV_ES3_INS4_16topic_statistics27SubscriptionTopicStatisticsISS_EEEEUlR35rmw_qos_incompatible_event_status_sE_S3_I18rcl_subscription_sEEEEEEEES1_INS9_14_Node_iteratorIS7_Lb0ELb0EEEbESt17integral_constantIbLb1EEDpOT_
FNDA:0,_ZNSt10_HashtableI29rcl_subscription_event_type_eSt4pairIKS0_St10shared_ptrIN6rclcpp19QOSEventHandlerBaseEEESaIS7_ENSt8__detail10_Select1stESt8equal_toIS0_ESt4hashIS0_ENS9_18_Mod_range_hashingENS9_20_Default_ranged_hashENS9_20_Prime_rehash_policyENS9_17_Hashtable_traitsILb0ELb0ELb1EEEE10_M_emplaceIJS1_IS0_S3_INS4_15QOSEventHandlerIZNS4_12SubscriptionIN8nav_msgs3msg9Odometry_ISaIvEEESR_SS_SS_NS4_23message_memory_strategy21MessageMemoryStrategyISS_SR_EEEC4EPNS4_15node_interfaces17NodeBaseInterfaceERK29rosidl_message_type_support_tRKNSt7__cxx1112basic_stringIcSt11char_traitsIcESaIcEEERKNS4_3QoSENS4_23AnySubscriptionCallbackISS_SR_EERKNS4_32SubscriptionOptionsWithAllocatorISR_EES3_ISV_ES3_INS4_16topic_statistics27SubscriptionTopicStatisticsISS_EEEEUlR35rmw_qos_incompatible_event_status_sE_S3_I18rcl_subscription_sEEEEEEEES1_INS9_14_Node_iteratorIS7_Lb0ELb0EEEbESt17integral_constantIbLb1EEDpOT_
FN:1960,_ZNSt10_HashtableI29rcl_subscription_event_type_eSt4pairIKS0_St10shared_ptrIN6rclcpp19QOSEventHandlerBaseEEESaIS7_ENSt8__detail10_Select1stESt8equal_toIS0_ESt4hashIS0_ENS9_18_Mod_range_hashingENS9_20_Default_ranged_hashENS9_20_Prime_rehash_policyENS9_17_Hashtable_traitsILb0ELb0ELb1EEEE10_M_emplaceIJS1_IS0_S3_INS4_15QOSEventHandlerISt8functionIFvR38rmw_requested_deadline_missed_status_sEES3_I18rcl_subscription_sEEEEEEEES1_INS9_14_Node_iteratorIS7_Lb0ELb0EEEbESt17integral_constantIbLb1EEDpOT_
FNDA:0,_ZNSt10_HashtableI29rcl_subscription_event_type_eSt4pairIKS0_St10shared_ptrIN6rclcpp19QOSEventHandlerBaseEEESaIS7_ENSt8__detail10_Select1stESt8equal_toIS0_ESt4hashIS0_ENS9_18_Mod_range_hashingENS9_20_Default_ranged_hashENS9_20_Prime_rehash_policyENS9_17_Hashtable_traitsILb0ELb0ELb1EEEE10_M_emplaceIJS1_IS0_S3_INS4_15QOSEventHandlerISt8functionIFvR38rmw_requested_deadline_missed_status_sEES3_I18rcl_subscription_sEEEEEEEES1_INS9_14_Node_iteratorIS7_Lb0ELb0EEEbESt17integral_constantIbLb1EEDpOT_
FN:1960,_ZNSt10_HashtableIPN6rclcpp19QOSEventHandlerBaseESt4pairIKS2_St6atomicIbEESaIS7_ENSt8__detail10_Select1stESt8equal_toIS2_ESt4hashIS2_ENS9_18_Mod_range_hashingENS9_20_Default_ranged_hashENS9_20_Prime_rehash_policyENS9_17_Hashtable_traitsILb0ELb0ELb1EEEE10_M_emplaceIJS3_IPNS0_15QOSEventHandlerISt8functionIFvR31rmw_liveliness_changed_status_sEESt10shared_ptrI18rcl_subscription_sEEEbEEEES3_INS9_14_Node_iteratorIS7_Lb0ELb0EEEbESt17integral_constantIbLb1EEDpOT_
FNDA:0,_ZNSt10_HashtableIPN6rclcpp19QOSEventHandlerBaseESt4pairIKS2_St6atomicIbEESaIS7_ENSt8__detail10_Select1stESt8equal_toIS2_ESt4hashIS2_ENS9_18_Mod_range_hashingENS9_20_Default_ranged_hashENS9_20_Prime_rehash_policyENS9_17_Hashtable_traitsILb0ELb0ELb1EEEE10_M_emplaceIJS3_IPNS0_15QOSEventHandlerISt8functionIFvR31rmw_liveliness_changed_status_sEESt10shared_ptrI18rcl_subscription_sEEEbEEEES3_INS9_14_Node_iteratorIS7_Lb0ELb0EEEbESt17integral_constantIbLb1EEDpOT_
FN:1960,_ZNSt10_HashtableI26rcl_publisher_event_type_eSt4pairIKS0_St10shared_ptrIN6rclcpp19QOSEventHandlerBaseEEESaIS7_ENSt8__detail10_Select1stESt8equal_toIS0_ESt4hashIS0_ENS9_18_Mod_range_hashingENS9_20_Default_ranged_hashENS9_20_Prime_rehash_policyENS9_17_Hashtable_traitsILb0ELb0ELb1EEEE10_M_emplaceIJS1_IS0_S3_INS4_15QOSEventHandlerIZNS4_9PublisherIN13geometry_msgs3msg6Twist_ISaIvEEESR_EC4EPNS4_15node_interfaces17NodeBaseInterfaceERKNSt7__cxx1112basic_stringIcSt11char_traitsIcESaIcEEERKNS4_3QoSERKNS4_29PublisherOptionsWithAllocatorISR_EEEUlR35rmw_qos_incompatible_event_status_sE_S3_I15rcl_publisher_sEEEEEEEES1_INS9_14_Node_iteratorIS7_Lb0ELb0EEEbESt17integral_constantIbLb1EEDpOT_
FNDA:0,_ZNSt10_HashtableI26rcl_publisher_event_type_eSt4pairIKS0_St10shared_ptrIN6rclcpp19QOSEventHandlerBaseEEESaIS7_ENSt8__detail10_Select1stESt8equal_toIS0_ESt4hashIS0_ENS9_18_Mod_range_hashingENS9_20_Default_ranged_hashENS9_20_Prime_rehash_policyENS9_17_Hashtable_traitsILb0ELb0ELb1EEEE10_M_emplaceIJS1_IS0_S3_INS4_15QOSEventHandlerIZNS4_9PublisherIN13geometry_msgs3msg6Twist_ISaIvEEESR_EC4EPNS4_15node_interfaces17NodeBaseInterfaceERKNSt7__cxx1112basic_stringIcSt11char_traitsIcESaIcEEERKNS4_3QoSERKNS4_29PublisherOptionsWithAllocatorISR_EEEUlR35rmw_qos_incompatible_event_status_sE_S3_I15rcl_publisher_sEEEEEEEES1_INS9_14_Node_iteratorIS7_Lb0ELb0EEEbESt17integral_constantIbLb1EEDpOT_
FN:1960,_ZNSt10_HashtableI29rcl_subscription_event_type_eSt4pairIKS0_St10shared_ptrIN6rclcpp19QOSEventHandlerBaseEEESaIS7_ENSt8__detail10_Select1stESt8equal_toIS0_ESt4hashIS0_ENS9_18_Mod_range_hashingENS9_20_Default_ranged_hashENS9_20_Prime_rehash_policyENS9_17_Hashtable_traitsILb0ELb0ELb1EEEE10_M_emplaceIJS1_IS0_S3_INS4_15QOSEventHandlerISt8functionIFvR25rmw_message_lost_status_sEES3_I18rcl_subscription_sEEEEEEEES1_INS9_14_Node_iteratorIS7_Lb0ELb0EEEbESt17integral_constantIbLb1EEDpOT_
FNDA:0,_ZNSt10_HashtableI29rcl_subscription_event_type_eSt4pairIKS0_St10shared_ptrIN6rclcpp19QOSEventHandlerBaseEEESaIS7_ENSt8__detail10_Select1stESt8equal_toIS0_ESt4hashIS0_ENS9_18_Mod_range_hashingENS9_20_Default_ranged_hashENS9_20_Prime_rehash_policyENS9_17_Hashtable_traitsILb0ELb0ELb1EEEE10_M_emplaceIJS1_IS0_S3_INS4_15QOSEventHandlerISt8functionIFvR25rmw_message_lost_status_sEES3_I18rcl_subscription_sEEEEEEEES1_INS9_14_Node_iteratorIS7_Lb0ELb0EEEbESt17integral_constantIbLb1EEDpOT_
FN:1960,_ZNSt10_HashtableI26rcl_publisher_event_type_eSt4pairIKS0_St10shared_ptrIN6rclcpp19QOSEventHandlerBaseEEESaIS7_ENSt8__detail10_Select1stESt8equal_toIS0_ESt4hashIS0_ENS9_18_Mod_range_hashingENS9_20_Default_ranged_hashENS9_20_Prime_rehash_policyENS9_17_Hashtable_traitsILb0ELb0ELb1EEEE10_M_emplaceIJS1_IS0_S3_INS4_15QOSEventHandlerISt8functionIFvR36rmw_offered_deadline_missed_status_sEES3_I15rcl_publisher_sEEEEEEEES1_INS9_14_Node_iteratorIS7_Lb0ELb0EEEbESt17integral_constantIbLb1EEDpOT_
FNDA:0,_ZNSt10_HashtableI26rcl_publisher_event_type_eSt4pairIKS0_St10shared_ptrIN6rclcpp19QOSEventHandlerBaseEEESaIS7_ENSt8__detail10_Select1stESt8equal_toIS0_ESt4hashIS0_ENS9_18_Mod_range_hashingENS9_20_Default_ranged_hashENS9_20_Prime_rehash_policyENS9_17_Hashtable_traitsILb0ELb0ELb1EEEE10_M_emplaceIJS1_IS0_S3_INS4_15QOSEventHandlerISt8functionIFvR36rmw_offered_deadline_missed_status_sEES3_I15rcl_publisher_sEEEEEEEES1_INS9_14_Node_iteratorIS7_Lb0ELb0EEEbESt17integral_constantIbLb1EEDpOT_
FN:1960,_ZNSt10_HashtableI26rcl_publisher_event_type_eSt4pairIKS0_St10shared_ptrIN6rclcpp19QOSEventHandlerBaseEEESaIS7_ENSt8__detail10_Select1stESt8equal_toIS0_ESt4hashIS0_ENS9_18_Mod_range_hashingENS9_20_Default_ranged_hashENS9_20_Prime_rehash_policyENS9_17_Hashtable_traitsILb0ELb0ELb1EEEE10_M_emplaceIJS1_IS0_S3_INS4_15QOSEventHandlerIZNS4_9PublisherIN13geometry_msgs3msg12PoseStamped_ISaIvEEESR_EC4EPNS4_15node_interfaces17NodeBaseInterfaceERKNSt7__cxx1112basic_stringIcSt11char_traitsIcESaIcEEERKNS4_3QoSERKNS4_29PublisherOptionsWithAllocatorISR_EEEUlR35rmw_qos_incompatible_event_status_sE_S3_I15rcl_publisher_sEEEEEEEES1_INS9_14_Node_iteratorIS7_Lb0ELb0EEEbESt17integral_constantIbLb1EEDpOT_
FNDA:0,_ZNSt10_HashtableI26rcl_publisher_event_type_eSt4pairIKS0_St10shared_ptrIN6rclcpp19QOSEventHandlerBaseEEESaIS7_ENSt8__detail10_Select1stESt8equal_toIS0_ESt4hashIS0_ENS9_18_Mod_range_hashingENS9_20_Default_ranged_hashENS9_20_Prime_rehash_policyENS9_17_Hashtable_traitsILb0ELb0ELb1EEEE10_M_emplaceIJS1_IS0_S3_INS4_15QOSEventHandlerIZNS4_9PublisherIN13geometry_msgs3msg12PoseStamped_ISaIvEEESR_EC4EPNS4_15node_interfaces17NodeBaseInterfaceERKNSt7__cxx1112basic_stringIcSt11char_traitsIcESaIcEEERKNS4_3QoSERKNS4_29PublisherOptionsWithAllocatorISR_EEEUlR35rmw_qos_incompatible_event_status_sE_S3_I15rcl_publisher_sEEEEEEEES1_INS9_14_Node_iteratorIS7_Lb0ELb0EEEbESt17integral_constantIbLb1EEDpOT_
FN:2008,_ZNSt10_HashtableIPN6rclcpp19QOSEventHandlerBaseESt4pairIKS2_St6atomicIbEESaIS7_ENSt8__detail10_Select1stESt8equal_toIS2_ESt4hashIS2_ENS9_18_Mod_range_hashingENS9_20_Default_ranged_hashENS9_20_Prime_rehash_policyENS9_17_Hashtable_traitsILb0ELb0ELb1EEEE21_M_insert_unique_nodeEmmPNS9_10_Hash_nodeIS7_Lb0EEEm
FNDA:0,_ZNSt10_HashtableIPN6rclcpp19QOSEventHandlerBaseESt4pairIKS2_St6atomicIbEESaIS7_ENSt8__detail10_Select1stESt8equal_toIS2_ESt4hashIS2_ENS9_18_Mod_range_hashingENS9_20_Default_ranged_hashENS9_20_Prime_rehash_policyENS9_17_Hashtable_traitsILb0ELb0ELb1EEEE21_M_insert_unique_nodeEmmPNS9_10_Hash_nodeIS7_Lb0EEEm
FN:2008,_ZNSt10_HashtableI26rcl_publisher_event_type_eSt4pairIKS0_St10shared_ptrIN6rclcpp19QOSEventHandlerBaseEEESaIS7_ENSt8__detail10_Select1stESt8equal_toIS0_ESt4hashIS0_ENS9_18_Mod_range_hashingENS9_20_Default_ranged_hashENS9_20_Prime_rehash_policyENS9_17_Hashtable_traitsILb0ELb0ELb1EEEE21_M_insert_unique_nodeEmmPNS9_10_Hash_nodeIS7_Lb0EEEm
FNDA:0,_ZNSt10_HashtableI26rcl_publisher_event_type_eSt4pairIKS0_St10shared_ptrIN6rclcpp19QOSEventHandlerBaseEEESaIS7_ENSt8__detail10_Select1stESt8equal_toIS0_ESt4hashIS0_ENS9_18_Mod_range_hashingENS9_20_Default_ranged_hashENS9_20_Prime_rehash_policyENS9_17_Hashtable_traitsILb0ELb0ELb1EEEE21_M_insert_unique_nodeEmmPNS9_10_Hash_nodeIS7_Lb0EEEm
FN:2008,_ZNSt10_HashtableISt10type_indexSt4pairIKS0_St10shared_ptrIvEESaIS5_ENSt8__detail10_Select1stESt8equal_toIS0_ESt4hashIS0_ENS7_18_Mod_range_hashingENS7_20_Default_ranged_hashENS7_20_Prime_rehash_policyENS7_17_Hashtable_traitsILb0ELb0ELb1EEEE21_M_insert_unique_nodeEmmPNS7_10_Hash_nodeIS5_Lb0EEEm
FNDA:0,_ZNSt10_HashtableISt10type_indexSt4pairIKS0_St10shared_ptrIvEESaIS5_ENSt8__detail10_Select1stESt8equal_toIS0_ESt4hashIS0_ENS7_18_Mod_range_hashingENS7_20_Default_ranged_hashENS7_20_Prime_rehash_policyENS7_17_Hashtable_traitsILb0ELb0ELb1EEEE21_M_insert_unique_nodeEmmPNS7_10_Hash_nodeIS5_Lb0EEEm
FN:2008,_ZNSt10_HashtableI29rcl_subscription_event_type_eSt4pairIKS0_St10shared_ptrIN6rclcpp19QOSEventHandlerBaseEEESaIS7_ENSt8__detail10_Select1stESt8equal_toIS0_ESt4hashIS0_ENS9_18_Mod_range_hashingENS9_20_Default_ranged_hashENS9_20_Prime_rehash_policyENS9_17_Hashtable_traitsILb0ELb0ELb1EEEE21_M_insert_unique_nodeEmmPNS9_10_Hash_nodeIS7_Lb0EEEm
FNDA:0,_ZNSt10_HashtableI29rcl_subscription_event_type_eSt4pairIKS0_St10shared_ptrIN6rclcpp19QOSEventHandlerBaseEEESaIS7_ENSt8__detail10_Select1stESt8equal_toIS0_ESt4hashIS0_ENS9_18_Mod_range_hashingENS9_20_Default_ranged_hashENS9_20_Prime_rehash_policyENS9_17_Hashtable_traitsILb0ELb0ELb1EEEE21_M_insert_unique_nodeEmmPNS9_10_Hash_nodeIS7_Lb0EEEm
FN:2146,_ZNSt10_HashtableImSt4pairIKmSt8weak_ptrIN6rclcpp12experimental28SubscriptionIntraProcessBaseEEESaIS7_ENSt8__detail10_Select1stESt8equal_toImESt4hashImENS9_18_Mod_range_hashingENS9_20_Default_ranged_hashENS9_20_Prime_rehash_policyENS9_17_Hashtable_traitsILb0ELb0ELb1EEEE5eraseENS9_20_Node_const_iteratorIS7_Lb0ELb0EEE
FNDA:0,_ZNSt10_HashtableImSt4pairIKmSt8weak_ptrIN6rclcpp12experimental28SubscriptionIntraProcessBaseEEESaIS7_ENSt8__detail10_Select1stESt8equal_toImESt4hashImENS9_18_Mod_range_hashingENS9_20_Default_ranged_hashENS9_20_Prime_rehash_policyENS9_17_Hashtable_traitsILb0ELb0ELb1EEEE5eraseENS9_20_Node_const_iteratorIS7_Lb0ELb0EEE
FN:2166,_ZNSt10_HashtableImSt4pairIKmSt8weak_ptrIN6rclcpp12experimental28SubscriptionIntraProcessBaseEEESaIS7_ENSt8__detail10_Select1stESt8equal_toImESt4hashImENS9_18_Mod_range_hashingENS9_20_Default_ranged_hashENS9_20_Prime_rehash_policyENS9_17_Hashtable_traitsILb0ELb0ELb1EEEE8_M_eraseEmPNS9_15_Hash_node_baseEPNS9_10_Hash_nodeIS7_Lb0EEE
FNDA:0,_ZNSt10_HashtableImSt4pairIKmSt8weak_ptrIN6rclcpp12experimental28SubscriptionIntraProcessBaseEEESaIS7_ENSt8__detail10_Select1stESt8equal_toImESt4hashImENS9_18_Mod_range_hashingENS9_20_Default_ranged_hashENS9_20_Prime_rehash_policyENS9_17_Hashtable_traitsILb0ELb0ELb1EEEE8_M_eraseEmPNS9_15_Hash_node_baseEPNS9_10_Hash_nodeIS7_Lb0EEE
FN:2194,_ZNSt10_HashtableImSt4pairIKmSt8weak_ptrIN6rclcpp12experimental28SubscriptionIntraProcessBaseEEESaIS7_ENSt8__detail10_Select1stESt8equal_toImESt4hashImENS9_18_Mod_range_hashingENS9_20_Default_ranged_hashENS9_20_Prime_rehash_policyENS9_17_Hashtable_traitsILb0ELb0ELb1EEEE8_M_eraseESt17integral_constantIbLb1EERS1_
FNDA:0,_ZNSt10_HashtableImSt4pairIKmSt8weak_ptrIN6rclcpp12experimental28SubscriptionIntraProcessBaseEEESaIS7_ENSt8__detail10_Select1stESt8equal_toImESt4hashImENS9_18_Mod_range_hashingENS9_20_Default_ranged_hashENS9_20_Prime_rehash_policyENS9_17_Hashtable_traitsILb0ELb0ELb1EEEE8_M_eraseESt17integral_constantIbLb1EERS1_
FN:2355,_ZNSt10_HashtableI26rcl_publisher_event_type_eSt4pairIKS0_St10shared_ptrIN6rclcpp19QOSEventHandlerBaseEEESaIS7_ENSt8__detail10_Select1stESt8equal_toIS0_ESt4hashIS0_ENS9_18_Mod_range_hashingENS9_20_Default_ranged_hashENS9_20_Prime_rehash_policyENS9_17_Hashtable_traitsILb0ELb0ELb1EEEE9_M_rehashEmRKm
FNDA:0,_ZNSt10_HashtableI26rcl_publisher_event_type_eSt4pairIKS0_St10shared_ptrIN6rclcpp19QOSEventHandlerBaseEEESaIS7_ENSt8__detail10_Select1stESt8equal_toIS0_ESt4hashIS0_ENS9_18_Mod_range_hashingENS9_20_Default_ranged_hashENS9_20_Prime_rehash_policyENS9_17_Hashtable_traitsILb0ELb0ELb1EEEE9_M_rehashEmRKm
FN:2355,_ZNSt10_HashtableISt10type_indexSt4pairIKS0_St10shared_ptrIvEESaIS5_ENSt8__detail10_Select1stESt8equal_toIS0_ESt4hashIS0_ENS7_18_Mod_range_hashingENS7_20_Default_ranged_hashENS7_20_Prime_rehash_policyENS7_17_Hashtable_traitsILb0ELb0ELb1EEEE9_M_rehashEmRKm
FNDA:0,_ZNSt10_HashtableISt10type_indexSt4pairIKS0_St10shared_ptrIvEESaIS5_ENSt8__detail10_Select1stESt8equal_toIS0_ESt4hashIS0_ENS7_18_Mod_range_hashingENS7_20_Default_ranged_hashENS7_20_Prime_rehash_policyENS7_17_Hashtable_traitsILb0ELb0ELb1EEEE9_M_rehashEmRKm
FN:2355,_ZNSt10_HashtableIPN6rclcpp19QOSEventHandlerBaseESt4pairIKS2_St6atomicIbEESaIS7_ENSt8__detail10_Select1stESt8equal_toIS2_ESt4hashIS2_ENS9_18_Mod_range_hashingENS9_20_Default_ranged_hashENS9_20_Prime_rehash_policyENS9_17_Hashtable_traitsILb0ELb0ELb1EEEE9_M_rehashEmRKm
FNDA:0,_ZNSt10_HashtableIPN6rclcpp19QOSEventHandlerBaseESt4pairIKS2_St6atomicIbEESaIS7_ENSt8__detail10_Select1stESt8equal_toIS2_ESt4hashIS2_ENS9_18_Mod_range_hashingENS9_20_Default_ranged_hashENS9_20_Prime_rehash_policyENS9_17_Hashtable_traitsILb0ELb0ELb1EEEE9_M_rehashEmRKm
FN:2355,_ZNSt10_HashtableI29rcl_subscription_event_type_eSt4pairIKS0_St10shared_ptrIN6rclcpp19QOSEventHandlerBaseEEESaIS7_ENSt8__detail10_Select1stESt8equal_toIS0_ESt4hashIS0_ENS9_18_Mod_range_hashingENS9_20_Default_ranged_hashENS9_20_Prime_rehash_policyENS9_17_Hashtable_traitsILb0ELb0ELb1EEEE9_M_rehashEmRKm
FNDA:0,_ZNSt10_HashtableI29rcl_subscription_event_type_eSt4pairIKS0_St10shared_ptrIN6rclcpp19QOSEventHandlerBaseEEESaIS7_ENSt8__detail10_Select1stESt8equal_toIS0_ESt4hashIS0_ENS9_18_Mod_range_hashingENS9_20_Default_ranged_hashENS9_20_Prime_rehash_policyENS9_17_Hashtable_traitsILb0ELb0ELb1EEEE9_M_rehashEmRKm
FN:2378,_ZNSt10_HashtableISt10type_indexSt4pairIKS0_St10shared_ptrIvEESaIS5_ENSt8__detail10_Select1stESt8equal_toIS0_ESt4hashIS0_ENS7_18_Mod_range_hashingENS7_20_Default_ranged_hashENS7_20_Prime_rehash_policyENS7_17_Hashtable_traitsILb0ELb0ELb1EEEE13_M_rehash_auxEmSt17integral_constantIbLb1EE
FNDA:0,_ZNSt10_HashtableISt10type_indexSt4pairIKS0_St10shared_ptrIvEESaIS5_ENSt8__detail10_Select1stESt8equal_toIS0_ESt4hashIS0_ENS7_18_Mod_range_hashingENS7_20_Default_ranged_hashENS7_20_Prime_rehash_policyENS7_17_Hashtable_traitsILb0ELb0ELb1EEEE13_M_rehash_auxEmSt17integral_constantIbLb1EE
FN:2378,_ZNSt10_HashtableI26rcl_publisher_event_type_eSt4pairIKS0_St10shared_ptrIN6rclcpp19QOSEventHandlerBaseEEESaIS7_ENSt8__detail10_Select1stESt8equal_toIS0_ESt4hashIS0_ENS9_18_Mod_range_hashingENS9_20_Default_ranged_hashENS9_20_Prime_rehash_policyENS9_17_Hashtable_traitsILb0ELb0ELb1EEEE13_M_rehash_auxEmSt17integral_constantIbLb1EE
FNDA:0,_ZNSt10_HashtableI26rcl_publisher_event_type_eSt4pairIKS0_St10shared_ptrIN6rclcpp19QOSEventHandlerBaseEEESaIS7_ENSt8__detail10_Select1stESt8equal_toIS0_ESt4hashIS0_ENS9_18_Mod_range_hashingENS9_20_Default_ranged_hashENS9_20_Prime_rehash_policyENS9_17_Hashtable_traitsILb0ELb0ELb1EEEE13_M_rehash_auxEmSt17integral_constantIbLb1EE
FN:2378,_ZNSt10_HashtableI29rcl_subscription_event_type_eSt4pairIKS0_St10shared_ptrIN6rclcpp19QOSEventHandlerBaseEEESaIS7_ENSt8__detail10_Select1stESt8equal_toIS0_ESt4hashIS0_ENS9_18_Mod_range_hashingENS9_20_Default_ranged_hashENS9_20_Prime_rehash_policyENS9_17_Hashtable_traitsILb0ELb0ELb1EEEE13_M_rehash_auxEmSt17integral_constantIbLb1EE
FNDA:0,_ZNSt10_HashtableI29rcl_subscription_event_type_eSt4pairIKS0_St10shared_ptrIN6rclcpp19QOSEventHandlerBaseEEESaIS7_ENSt8__detail10_Select1stESt8equal_toIS0_ESt4hashIS0_ENS9_18_Mod_range_hashingENS9_20_Default_ranged_hashENS9_20_Prime_rehash_policyENS9_17_Hashtable_traitsILb0ELb0ELb1EEEE13_M_rehash_auxEmSt17integral_constantIbLb1EE
FN:2378,_ZNSt10_HashtableIPN6rclcpp19QOSEventHandlerBaseESt4pairIKS2_St6atomicIbEESaIS7_ENSt8__detail10_Select1stESt8equal_toIS2_ESt4hashIS2_ENS9_18_Mod_range_hashingENS9_20_Default_ranged_hashENS9_20_Prime_rehash_policyENS9_17_Hashtable_traitsILb0ELb0ELb1EEEE13_M_rehash_auxEmSt17integral_constantIbLb1EE
FNDA:0,_ZNSt10_HashtableIPN6rclcpp19QOSEventHandlerBaseESt4pairIKS2_St6atomicIbEESaIS7_ENSt8__detail10_Select1stESt8equal_toIS2_ESt4hashIS2_ENS9_18_Mod_range_hashingENS9_20_Default_ranged_hashENS9_20_Prime_rehash_policyENS9_17_Hashtable_traitsILb0ELb0ELb1EEEE13_M_rehash_auxEmSt17integral_constantIbLb1EE
DA:302,0
DA:303,0
DA:304,0
DA:305,0
DA:302,0
DA:303,0
DA:304,0
DA:305,0
DA:302,0
DA:303,0
DA:304,0
DA:305,0
DA:302,0
DA:303,0
DA:304,0
DA:305,0
DA:302,0
DA:303,0
DA:304,0
DA:305,0
DA:302,0
DA:303,0
DA:304,0
DA:305,0
DA:302,0
DA:303,0
DA:304,0
DA:305,0
DA:302,0
DA:303,0
DA:304,0
DA:305,0
DA:302,0
DA:303,0
DA:304,0
DA:305,0
DA:302,0
DA:303,0
DA:304,0
DA:305,0
DA:302,0
DA:303,0
DA:304,0
DA:305,0
DA:302,0
DA:303,0
DA:304,0
DA:305,0
DA:302,0
DA:303,0
DA:304,0
DA:305,0
DA:302,0
DA:303,0
DA:304,0
DA:305,0
DA:302,0
DA:303,0
DA:304,0
DA:305,0
DA:302,0
DA:303,0
DA:304,0
DA:305,0
DA:302,0
DA:303,0
DA:304,0
DA:305,0
DA:308,0
DA:308,0
DA:308,0
DA:308,0
DA:421,0
DA:422,0
DA:421,0
DA:422,0
DA:421,0
DA:422,0
DA:421,0
DA:422,0
DA:432,0
DA:434,0
DA:436,0
DA:437,0
DA:440,0
DA:432,0
DA:434,0
DA:436,0
DA:437,0
DA:440,0
DA:432,0
DA:434,0
DA:436,0
DA:437,0
DA:440,0
DA:432,0
DA:434,0
DA:436,0
DA:437,0
DA:440,0
DA:444,0
DA:446,0
DA:447,0
DA:449,0
DA:444,0
DA:446,0
DA:447,0
DA:449,0
DA:444,0
DA:446,0
DA:447,0
DA:449,0
DA:444,0
DA:446,0
DA:447,0
DA:449,0
DA:453,0
DA:454,0
DA:453,0
DA:454,0
DA:453,0
DA:454,0
DA:453,0
DA:454,0
DA:462,0
DA:463,0
DA:462,0
DA:463,0
DA:462,0
DA:463,0
DA:462,0
DA:463,0
DA:629,0
DA:630,0
DA:629,0
DA:630,0
DA:629,0
DA:630,0
DA:790,0
DA:791,0
DA:790,0
DA:791,0
DA:790,0
DA:791,0
DA:790,0
DA:791,0
DA:790,0
DA:791,0
DA:790,0
DA:791,0
DA:794,0
DA:795,0
DA:794,0
DA:795,0
DA:794,0
DA:795,0
DA:794,0
DA:795,0
DA:794,0
DA:795,0
DA:794,0
DA:795,0
DA:807,0
DA:810,0
DA:811,0
DA:812,0
DA:813,0
DA:807,0
DA:810,0
DA:811,0
DA:812,0
DA:813,0
DA:807,0
DA:810,0
DA:811,0
DA:812,0
DA:813,0
DA:807,0
DA:810,0
DA:811,0
DA:812,0
DA:813,0
DA:807,0
DA:810,0
DA:811,0
DA:812,0
DA:813,0
DA:807,0
DA:810,0
DA:811,0
DA:812,0
DA:813,0
DA:914,0
DA:915,0
DA:914,0
DA:915,0
DA:914,0
DA:915,0
DA:914,0
DA:915,0
DA:914,0
DA:915,0
DA:914,0
DA:915,0
DA:914,0
DA:915,0
DA:914,0
DA:915,0
DA:914,0
DA:915,0
DA:914,0
DA:915,0
DA:914,0
DA:915,0
DA:914,0
DA:915,0
DA:914,0
DA:915,0
DA:914,0
DA:915,0
DA:914,0
DA:915,0
DA:914,0
DA:915,0
DA:933,0
DA:934,0
DA:937,0
DA:938,0
DA:1588,0
DA:1593,0
DA:1594,0
DA:1595,0
DA:1588,0
DA:1593,0
DA:1594,0
DA:1595,0
DA:1588,0
DA:1593,0
DA:1594,0
DA:1595,0
DA:1827,0
DA:1833,0
DA:1834,0
DA:1835,0
DA:1837,0
DA:1838,0
DA:1840,0
DA:1841,0
DA:1843,0
DA:1844,0
DA:1845,0
DA:1848,0
DA:1827,0
DA:1833,0
DA:1834,0
DA:1835,0
DA:1837,0
DA:1838,0
DA:1840,0
DA:1841,0
DA:1843,0
DA:1844,0
DA:1845,0
DA:1848,0
DA:1827,0
DA:1833,0
DA:1834,0
DA:1835,0
DA:1837,0
DA:1838,0
DA:1840,0
DA:1841,0
DA:1843,0
DA:1844,0
DA:1845,0
DA:1848,0
DA:1827,0
DA:1833,0
DA:1834,0
DA:1835,0
DA:1837,0
DA:1838,0
DA:1840,0
DA:1841,0
DA:1843,0
DA:1844,0
DA:1845,0
DA:1848,0
DA:1827,0
DA:1833,0
DA:1834,0
DA:1835,0
DA:1837,0
DA:1838,0
DA:1840,0
DA:1841,0
DA:1843,0
DA:1844,0
DA:1845,0
DA:1848,0
DA:1827,0
DA:1833,0
DA:1834,0
DA:1835,0
DA:1837,0
DA:1838,0
DA:1840,0
DA:1841,0
DA:1843,0
DA:1844,0
DA:1845,0
DA:1848,0
DA:1886,0
DA:1890,0
DA:1894,0
DA:1895,0
DA:1902,0
DA:1903,0
DA:1905,0
DA:1908,0
DA:1910,0
DA:1912,0
DA:1886,0
DA:1890,0
DA:1894,0
DA:1895,0
DA:1902,0
DA:1903,0
DA:1905,0
DA:1908,0
DA:1910,0
DA:1912,0
DA:1886,0
DA:1890,0
DA:1894,0
DA:1895,0
DA:1902,0
DA:1903,0
DA:1905,0
DA:1908,0
DA:1910,0
DA:1912,0
DA:1886,0
DA:1890,0
DA:1894,0
DA:1895,0
DA:1902,0
DA:1903,0
DA:1905,0
DA:1908,0
DA:1910,0
DA:1912,0
DA:1919,0
DA:1924,0
DA:1928,0
DA:1929,0
DA:1932,0
DA:1933,0
DA:1934,0
DA:1936,0
DA:1943,0
DA:1948,0
DA:1949,0
DA:1950,0
DA:1951,0
DA:1960,0
DA:1966,0
DA:1967,0
DA:1968,0
DA:1969,0
DA:1970,0
DA:1972,0
DA:1975,0
DA:1976,0
DA:1977,0
DA:1978,0
DA:1960,0
DA:1966,0
DA:1967,0
DA:1968,0
DA:1969,0
DA:1970,0
DA:1972,0
DA:1975,0
DA:1976,0
DA:1977,0
DA:1978,0
DA:1960,0
DA:1966,0
DA:1967,0
DA:1968,0
DA:1969,0
DA:1970,0
DA:1972,0
DA:1975,0
DA:1976,0
DA:1977,0
DA:1978,0
DA:1960,0
DA:1966,0
DA:1967,0
DA:1968,0
DA:1969,0
DA:1970,0
DA:1972,0
DA:1975,0
DA:1976,0
DA:1977,0
DA:1978,0
DA:1960,0
DA:1966,0
DA:1967,0
DA:1968,0
DA:1969,0
DA:1970,0
DA:1972,0
DA:1975,0
DA:1976,0
DA:1977,0
DA:1978,0
DA:1960,0
DA:1966,0
DA:1967,0
DA:1968,0
DA:1969,0
DA:1970,0
DA:1972,0
DA:1975,0
DA:1976,0
DA:1977,0
DA:1978,0
DA:1960,0
DA:1966,0
DA:1967,0
DA:1968,0
DA:1969,0
DA:1970,0
DA:1972,0
DA:1975,0
DA:1976,0
DA:1977,0
DA:1978,0
DA:1960,0
DA:1966,0
DA:1967,0
DA:1968,0
DA:1969,0
DA:1970,0
DA:1972,0
DA:1975,0
DA:1976,0
DA:1977,0
DA:1978,0
DA:1960,0
DA:1966,0
DA:1967,0
DA:1968,0
DA:1969,0
DA:1970,0
DA:1972,0
DA:1975,0
DA:1976,0
DA:1977,0
DA:1978,0
DA:1960,0
DA:1966,0
DA:1967,0
DA:1968,0
DA:1969,0
DA:1970,0
DA:1972,0
DA:1975,0
DA:1976,0
DA:1977,0
DA:1978,0
DA:1960,0
DA:1966,0
DA:1967,0
DA:1968,0
DA:1969,0
DA:1970,0
DA:1972,0
DA:1975,0
DA:1976,0
DA:1977,0
DA:1978,0
DA:1960,0
DA:1966,0
DA:1967,0
DA:1968,0
DA:1969,0
DA:1970,0
DA:1972,0
DA:1975,0
DA:1976,0
DA:1977,0
DA:1978,0
DA:1960,0
DA:1966,0
DA:1967,0
DA:1968,0
DA:1969,0
DA:1970,0
DA:1972,0
DA:1975,0
DA:1976,0
DA:1977,0
DA:1978,0
DA:1960,0
DA:1966,0
DA:1967,0
DA:1968,0
DA:1969,0
DA:1970,0
DA:1972,0
DA:1975,0
DA:1976,0
DA:1977,0
DA:1978,0
DA:1960,0
DA:1966,0
DA:1967,0
DA:1968,0
DA:1969,0
DA:1970,0
DA:1972,0
DA:1975,0
DA:1976,0
DA:1977,0
DA:1978,0
DA:1960,0
DA:1966,0
DA:1967,0
DA:1968,0
DA:1969,0
DA:1970,0
DA:1972,0
DA:1975,0
DA:1976,0
DA:1977,0
DA:1978,0
DA:2008,0
DA:2014,0
DA:2016,0
DA:2019,0
DA:2021,0
DA:2022,0
DA:2025,0
DA:2028,0
DA:2029,0
DA:2030,0
DA:2008,0
DA:2014,0
DA:2016,0
DA:2019,0
DA:2021,0
DA:2022,0
DA:2025,0
DA:2028,0
DA:2029,0
DA:2030,0
DA:2008,0
DA:2014,0
DA:2016,0
DA:2019,0
DA:2021,0
DA:2022,0
DA:2025,0
DA:2028,0
DA:2029,0
DA:2030,0
DA:2008,0
DA:2014,0
DA:2016,0
DA:2019,0
DA:2021,0
DA:2022,0
DA:2025,0
DA:2028,0
DA:2029,0
DA:2030,0
DA:2146,0
DA:2151,0
DA:2152,0
DA:2157,0
DA:2158,0
DA:2166,0
DA:2171,0
DA:2172,0
DA:2173,0
DA:2174,0
DA:2176,0
DA:2177,0
DA:2178,0
DA:2181,0
DA:2182,0
DA:2183,0
DA:2184,0
DA:2186,0
DA:2194,0
DA:2199,0
DA:2200,0
DA:2203,0
DA:2204,0
DA:2205,0
DA:2208,0
DA:2209,0
DA:2210,0
DA:2355,0
DA:2361,0
DA:2363,0
DA:2367,0
DA:2368,0
DA:2370,0
DA:2355,0
DA:2361,0
DA:2363,0
DA:2367,0
DA:2368,0
DA:2370,0
DA:2355,0
DA:2361,0
DA:2363,0
DA:2367,0
DA:2368,0
DA:2370,0
DA:2355,0
DA:2361,0
DA:2363,0
DA:2367,0
DA:2368,0
DA:2370,0
DA:2378,0
DA:2382,0
DA:2383,0
DA:2384,0
DA:2385,0
DA:2386,0
DA:2388,0
DA:2390,0
DA:2391,0
DA:2393,0
DA:2394,0
DA:2395,0
DA:2396,0
DA:2397,0
DA:2398,0
DA:2402,0
DA:2403,0
DA:2406,0
DA:2409,0
DA:2410,0
DA:2411,0
DA:2412,0
DA:2378,0
DA:2382,0
DA:2383,0
DA:2384,0
DA:2385,0
DA:2386,0
DA:2388,0
DA:2390,0
DA:2391,0
DA:2393,0
DA:2394,0
DA:2395,0
DA:2396,0
DA:2397,0
DA:2398,0
DA:2402,0
DA:2403,0
DA:2406,0
DA:2409,0
DA:2410,0
DA:2411,0
DA:2412,0
DA:2378,0
DA:2382,0
DA:2383,0
DA:2384,0
DA:2385,0
DA:2386,0
DA:2388,0
DA:2390,0
DA:2391,0
DA:2393,0
DA:2394,0
DA:2395,0
DA:2396,0
DA:2397,0
DA:2398,0
DA:2402,0
DA:2403,0
DA:2406,0
DA:2409,0
DA:2410,0
DA:2411,0
DA:2412,0
DA:2378,0
DA:2382,0
DA:2383,0
DA:2384,0
DA:2385,0
DA:2386,0
DA:2388,0
DA:2390,0
DA:2391,0
DA:2393,0
DA:2394,0
DA:2395,0
DA:2396,0
DA:2397,0
DA:2398,0
DA:2402,0
DA:2403,0
DA:2406,0
DA:2409,0
DA:2410,0
DA:2411,0
DA:2412,0
end_of_record
SF:/home/tarun/ros2_final/src/inspection_bot/src/InspectorBot.cpp
FN:24,_ZN12InspectorBotC2Ev
FNDA:0,_ZN12InspectorBotC2Ev
FN:35,_ZN12InspectorBot12goToLocationEv
FNDA:0,_ZN12InspectorBot12goToLocationEv
FN:70,_ZN12InspectorBot6setLocEff
FNDA:0,_ZN12InspectorBot6setLocEff
FN:80,_ZN12InspectorBot7getLocxEv
FNDA:0,_ZN12InspectorBot7getLocxEv
FN:87,_ZN12InspectorBot7getLocyEv
FNDA:0,_ZN12InspectorBot7getLocyEv
FN:95,_ZN12InspectorBot9rotateBotEv
FNDA:0,_ZN12InspectorBot9rotateBotEv
FN:127,_ZN12InspectorBot18continueInspectionEv
FNDA:0,_ZN12InspectorBot18continueInspectionEv
FN:161,_ZN12InspectorBot18inspectionCallbackESt10shared_ptrIN8nav_msgs3msg9Odometry_ISaIvEEEE
FNDA:0,_ZN12InspectorBot18inspectionCallbackESt10shared_ptrIN8nav_msgs3msg9Odometry_ISaIvEEEE
FN:176,_ZN12InspectorBot26continueInspectionCallbackESt10shared_ptrIN8nav_msgs3msg9Odometry_ISaIvEEEE
FNDA:0,_ZN12InspectorBot26continueInspectionCallbackESt10shared_ptrIN8nav_msgs3msg9Odometry_ISaIvEEEE
DA:24,0
DA:25,0
DA:26,0
DA:27,0
DA:35,0
DA:36,0
DA:38,0
DA:41,0
DA:43,0
DA:44,0
DA:45,0
DA:46,0
DA:47,0
DA:48,0
DA:49,0
DA:50,0
DA:51,0
DA:52,0
DA:53,0
DA:55,0
DA:56,0
DA:57,0
DA:58,0
DA:59,0
DA:61,0
DA:62,0
DA:70,0
DA:71,0
DA:72,0
DA:73,0
DA:80,0
DA:87,0
DA:95,0
DA:96,0
DA:100,0
DA:102,0
DA:103,0
DA:104,0
DA:105,0
DA:106,0
DA:107,0
DA:108,0
DA:109,0
DA:111,0
DA:112,0
DA:113,0
DA:114,0
DA:115,0
DA:116,0
DA:119,0
DA:127,0
DA:129,0
DA:132,0
DA:133,0
DA:135,0
DA:137,0
DA:138,0
DA:139,0
DA:140,0
DA:141,0
DA:142,0
DA:143,0
DA:144,0
DA:145,0
DA:146,0
DA:148,0
DA:149,0
DA:150,0
DA:151,0
DA:152,0
DA:154,0
DA:161,0
DA:162,0
DA:163,0
DA:164,0
DA:166,0
DA:167,0
DA:169,0
DA:176,0
DA:178,0
DA:179,0
DA:180,0
DA:182,0
DA:185,0
end_of_record
SF:/usr/include/c++/11/bits/stl_algo.h
FN:4059,_ZSt5countIN9__gnu_cxx17__normal_iteratorIPKN6rclcpp13QosPolicyKindESt6vectorIS3_SaIS3_EEEES3_ENSt15iterator_traitsIT_E15difference_typeESB_SB_RKT0_
FNDA:0,_ZSt5countIN9__gnu_cxx17__normal_iteratorIPKN6rclcpp13QosPolicyKindESt6vectorIS3_SaIS3_EEEES3_ENSt15iterator_traitsIT_E15difference_typeESB_SB_RKT0_
DA:4059,0
DA:4067,0
DA:4068,0
end_of_record
SF:/usr/include/c++/11/ext/type_traits.h
FN:152,_ZN9__gnu_cxx17__is_null_pointerIcEEbPT_
FNDA:0,_ZN9__gnu_cxx17__is_null_pointerIcEEbPT_
FN:152,_ZN9__gnu_cxx17__is_null_pointerIKcEEbPT_
FNDA:0,_ZN9__gnu_cxx17__is_null_pointerIKcEEbPT_
DA:152,0
DA:153,0
DA:152,0
DA:153,0
end_of_record
SF:/opt/ros/humble/include/rclcpp/rclcpp/get_message_type_support_handle.hpp
FN:48,_ZN6rclcpp31get_message_type_support_handleIN15statistics_msgs3msg15MetricsMessage_ISaIvEEEEENSt9enable_ifIXsrN23rosidl_generator_traits10is_messageIT_EE5valueERK29rosidl_message_type_support_tE4typeEv
FNDA:0,_ZN6rclcpp31get_message_type_support_handleIN15statistics_msgs3msg15MetricsMessage_ISaIvEEEEENSt9enable_ifIXsrN23rosidl_generator_traits10is_messageIT_EE5valueERK29rosidl_message_type_support_tE4typeEv
FN:48,_ZN6rclcpp31get_message_type_support_handleIN13geometry_msgs3msg6Twist_ISaIvEEEEENSt9enable_ifIXsrN23rosidl_generator_traits10is_messageIT_EE5valueERK29rosidl_message_type_support_tE4typeEv
FNDA:0,_ZN6rclcpp31get_message_type_support_handleIN13geometry_msgs3msg6Twist_ISaIvEEEEENSt9enable_ifIXsrN23rosidl_generator_traits10is_messageIT_EE5valueERK29rosidl_message_type_support_tE4typeEv
FN:48,_ZN6rclcpp31get_message_type_support_handleIN13geometry_msgs3msg12PoseStamped_ISaIvEEEEENSt9enable_ifIXsrN23rosidl_generator_traits10is_messageIT_EE5valueERK29rosidl_message_type_support_tE4typeEv
FNDA:0,_ZN6rclcpp31get_message_type_support_handleIN13geometry_msgs3msg12PoseStamped_ISaIvEEEEENSt9enable_ifIXsrN23rosidl_generator_traits10is_messageIT_EE5valueERK29rosidl_message_type_support_tE4typeEv
FN:48,_ZN6rclcpp31get_message_type_support_handleIN8nav_msgs3msg9Odometry_ISaIvEEEEENSt9enable_ifIXsrN23rosidl_generator_traits10is_messageIT_EE5valueERK29rosidl_message_type_support_tE4typeEv
FNDA:0,_ZN6rclcpp31get_message_type_support_handleIN8nav_msgs3msg9Odometry_ISaIvEEEEENSt9enable_ifIXsrN23rosidl_generator_traits10is_messageIT_EE5valueERK29rosidl_message_type_support_tE4typeEv
DA:48,0
DA:50,0
DA:51,0
DA:52,0
DA:54,0
DA:48,0
DA:50,0
DA:51,0
DA:52,0
DA:54,0
DA:48,0
DA:50,0
DA:51,0
DA:52,0
DA:54,0
DA:48,0
DA:50,0
DA:51,0
DA:52,0
DA:54,0
end_of_record
SF:/usr/include/c++/11/bits/exception.h
FN:64,_ZNSt9exceptionC2Ev
FNDA:0,_ZNSt9exceptionC2Ev
DA:64,0
end_of_record
SF:/usr/include/c++/11/bits/alloc_traits.h
FN:463,_ZNSt16allocator_traitsISaISt23_Sp_counted_ptr_inplaceIN6rclcpp15QOSEventHandlerIZNS1_12SubscriptionIN8nav_msgs3msg9Odometry_ISaIvEEES7_S8_S8_NS1_23message_memory_strategy21MessageMemoryStrategyIS8_S7_EEEC4EPNS1_15node_interfaces17NodeBaseInterfaceERK29rosidl_message_type_support_tRKNSt7__cxx1112basic_stringIcSt11char_traitsIcESaIcEEERKNS1_3QoSENS1_23AnySubscriptionCallbackIS8_S7_EERKNS1_32SubscriptionOptionsWithAllocatorIS7_EESt10shared_ptrISB_ES10_INS1_16topic_statistics27SubscriptionTopicStatisticsIS8_EEEEUlR35rmw_qos_incompatible_event_status_sE_S10_I18rcl_subscription_sEEESaIS1B_ELN9__gnu_cxx12_Lock_policyE2EEEE8allocateERS1G_m
FNDA:0,_ZNSt16allocator_traitsISaISt23_Sp_counted_ptr_inplaceIN6rclcpp15QOSEventHandlerIZNS1_12SubscriptionIN8nav_msgs3msg9Odometry_ISaIvEEES7_S8_S8_NS1_23message_memory_strategy21MessageMemoryStrategyIS8_S7_EEEC4EPNS1_15node_interfaces17NodeBaseInterfaceERK29rosidl_message_type_support_tRKNSt7__cxx1112basic_stringIcSt11char_traitsIcESaIcEEERKNS1_3QoSENS1_23AnySubscriptionCallbackIS8_S7_EERKNS1_32SubscriptionOptionsWithAllocatorIS7_EESt10shared_ptrISB_ES10_INS1_16topic_statistics27SubscriptionTopicStatisticsIS8_EEEEUlR35rmw_qos_incompatible_event_status_sE_S10_I18rcl_subscription_sEEESaIS1B_ELN9__gnu_cxx12_Lock_policyE2EEEE8allocateERS1G_m
FN:463,_ZNSt16allocator_traitsISaISt23_Sp_counted_ptr_inplaceIN6rclcpp15QOSEventHandlerISt8functionIFvR25rmw_message_lost_status_sEESt10shared_ptrI18rcl_subscription_sEEESaISB_ELN9__gnu_cxx12_Lock_policyE2EEEE8allocateERSG_m
FNDA:0,_ZNSt16allocator_traitsISaISt23_Sp_counted_ptr_inplaceIN6rclcpp15QOSEventHandlerISt8functionIFvR25rmw_message_lost_status_sEESt10shared_ptrI18rcl_subscription_sEEESaISB_ELN9__gnu_cxx12_Lock_policyE2EEEE8allocateERSG_m
FN:463,_ZNSt16allocator_traitsISaISt23_Sp_counted_ptr_inplaceIN6rclcpp16topic_statistics27SubscriptionTopicStatisticsIN8nav_msgs3msg9Odometry_ISaIvEEEEESaIS9_ELN9__gnu_cxx12_Lock_policyE2EEEE8allocateERSE_m
FNDA:0,_ZNSt16allocator_traitsISaISt23_Sp_counted_ptr_inplaceIN6rclcpp16topic_statistics27SubscriptionTopicStatisticsIN8nav_msgs3msg9Odometry_ISaIvEEEEESaIS9_ELN9__gnu_cxx12_Lock_policyE2EEEE8allocateERSE_m
FN:463,_ZNSt16allocator_traitsISaIN6rclcpp13QosPolicyKindEEE8allocateERS2_m
FNDA:0,_ZNSt16allocator_traitsISaIN6rclcpp13QosPolicyKindEEE8allocateERS2_m
FN:463,_ZNSt16allocator_traitsISaISt23_Sp_counted_ptr_inplaceIN6rclcpp15QOSEventHandlerISt8functionIFvR28rmw_liveliness_lost_status_sEESt10shared_ptrI15rcl_publisher_sEEESaISB_ELN9__gnu_cxx12_Lock_policyE2EEEE8allocateERSG_m
FNDA:0,_ZNSt16allocator_traitsISaISt23_Sp_counted_ptr_inplaceIN6rclcpp15QOSEventHandlerISt8functionIFvR28rmw_liveliness_lost_status_sEESt10shared_ptrI15rcl_publisher_sEEESaISB_ELN9__gnu_cxx12_Lock_policyE2EEEE8allocateERSG_m
FN:463,_ZNSt16allocator_traitsISaISt19_Sp_counted_deleterIPN13geometry_msgs3msg6Twist_ISaIvEEESt14default_deleteIS5_ES4_LN9__gnu_cxx12_Lock_policyE2EEEE8allocateERSC_m
FNDA:0,_ZNSt16allocator_traitsISaISt19_Sp_counted_deleterIPN13geometry_msgs3msg6Twist_ISaIvEEESt14default_deleteIS5_ES4_LN9__gnu_cxx12_Lock_policyE2EEEE8allocateERSC_m
FN:463,_ZNSt16allocator_traitsISaIN8nav_msgs3msg9Odometry_ISaIvEEEEE8allocateERS5_m
FNDA:0,_ZNSt16allocator_traitsISaIN8nav_msgs3msg9Odometry_ISaIvEEEEE8allocateERS5_m
FN:463,_ZNSt16allocator_traitsISaISt19_Sp_counted_deleterIPN13geometry_msgs3msg12PoseStamped_ISaIvEEESt14default_deleteIS5_ES4_LN9__gnu_cxx12_Lock_policyE2EEEE8allocateERSC_m
FNDA:0,_ZNSt16allocator_traitsISaISt19_Sp_counted_deleterIPN13geometry_msgs3msg12PoseStamped_ISaIvEEESt14default_deleteIS5_ES4_LN9__gnu_cxx12_Lock_policyE2EEEE8allocateERSC_m
FN:463,_ZNSt16allocator_traitsISaISt23_Sp_counted_ptr_inplaceIN6rclcpp23message_memory_strategy21MessageMemoryStrategyIN8nav_msgs3msg9Odometry_ISaIvEEES7_EESaIS9_ELN9__gnu_cxx12_Lock_policyE2EEEE8allocateERSE_m
FNDA:0,_ZNSt16allocator_traitsISaISt23_Sp_counted_ptr_inplaceIN6rclcpp23message_memory_strategy21MessageMemoryStrategyIN8nav_msgs3msg9Odometry_ISaIvEEES7_EESaIS9_ELN9__gnu_cxx12_Lock_policyE2EEEE8allocateERSE_m
FN:463,_ZNSt16allocator_traitsISaISt23_Sp_counted_ptr_inplaceIN13geometry_msgs3msg12PoseStamped_ISaIvEEESaIS5_ELN9__gnu_cxx12_Lock_policyE2EEEE8allocateERSA_m
FNDA:0,_ZNSt16allocator_traitsISaISt23_Sp_counted_ptr_inplaceIN13geometry_msgs3msg12PoseStamped_ISaIvEEESaIS5_ELN9__gnu_cxx12_Lock_policyE2EEEE8allocateERSA_m
FN:463,_ZNSt16allocator_traitsISaISt19_Sp_counted_deleterIPN8nav_msgs3msg9Odometry_ISaIvEEESt14default_deleteIS5_ES4_LN9__gnu_cxx12_Lock_policyE2EEEE8allocateERSC_m
FNDA:0,_ZNSt16allocator_traitsISaISt19_Sp_counted_deleterIPN8nav_msgs3msg9Odometry_ISaIvEEESt14default_deleteIS5_ES4_LN9__gnu_cxx12_Lock_policyE2EEEE8allocateERSC_m
FN:463,_ZNSt16allocator_traitsISaISt23_Sp_counted_ptr_inplaceISaIvESaIS1_ELN9__gnu_cxx12_Lock_policyE2EEEE8allocateERS6_m
FNDA:0,_ZNSt16allocator_traitsISaISt23_Sp_counted_ptr_inplaceISaIvESaIS1_ELN9__gnu_cxx12_Lock_policyE2EEEE8allocateERS6_m
FN:463,_ZNSt16allocator_traitsISaIN6rclcpp17SerializedMessageEEE8allocateERS2_m
FNDA:0,_ZNSt16allocator_traitsISaIN6rclcpp17SerializedMessageEEE8allocateERS2_m
FN:463,_ZNSt16allocator_traitsISaISt23_Sp_counted_ptr_inplaceIN6rclcpp15QOSEventHandlerISt8functionIFvR35rmw_qos_incompatible_event_status_sEESt10shared_ptrI15rcl_publisher_sEEESaISB_ELN9__gnu_cxx12_Lock_policyE2EEEE8allocateERSG_m
FNDA:0,_ZNSt16allocator_traitsISaISt23_Sp_counted_ptr_inplaceIN6rclcpp15QOSEventHandlerISt8functionIFvR35rmw_qos_incompatible_event_status_sEESt10shared_ptrI15rcl_publisher_sEEESaISB_ELN9__gnu_cxx12_Lock_policyE2EEEE8allocateERSG_m
FN:463,_ZNSt16allocator_traitsISaISt19_Sp_counted_deleterIPN6rclcpp17SerializedMessageESt14default_deleteIS2_ESaIvELN9__gnu_cxx12_Lock_policyE2EEEE8allocateERSA_m
FNDA:0,_ZNSt16allocator_traitsISaISt19_Sp_counted_deleterIPN6rclcpp17SerializedMessageESt14default_deleteIS2_ESaIvELN9__gnu_cxx12_Lock_policyE2EEEE8allocateERSA_m
FN:463,_ZNSt16allocator_traitsISaISt23_Sp_counted_ptr_inplaceIN6rclcpp4NodeESaIS2_ELN9__gnu_cxx12_Lock_policyE2EEEE8allocateERS7_m
FNDA:0,_ZNSt16allocator_traitsISaISt23_Sp_counted_ptr_inplaceIN6rclcpp4NodeESaIS2_ELN9__gnu_cxx12_Lock_policyE2EEEE8allocateERS7_m
FN:463,_ZNSt16allocator_traitsISaIPNSt8__detail15_Hash_node_baseEEE8allocateERS3_m
FNDA:0,_ZNSt16allocator_traitsISaIPNSt8__detail15_Hash_node_baseEEE8allocateERS3_m
FN:463,_ZNSt16allocator_traitsISaISt23_Sp_counted_ptr_inplaceIN8nav_msgs3msg9Odometry_ISaIvEEESaIS5_ELN9__gnu_cxx12_Lock_policyE2EEEE8allocateERSA_m
FNDA:0,_ZNSt16allocator_traitsISaISt23_Sp_counted_ptr_inplaceIN8nav_msgs3msg9Odometry_ISaIvEEESaIS5_ELN9__gnu_cxx12_Lock_policyE2EEEE8allocateERSA_m
FN:463,_ZNSt16allocator_traitsISaISt23_Sp_counted_ptr_inplaceIN6rclcpp9PublisherIN15statistics_msgs3msg15MetricsMessage_ISaIvEEES6_EESaIS8_ELN9__gnu_cxx12_Lock_policyE2EEEE8allocateERSD_m
FNDA:0,_ZNSt16allocator_traitsISaISt23_Sp_counted_ptr_inplaceIN6rclcpp9PublisherIN15statistics_msgs3msg15MetricsMessage_ISaIvEEES6_EESaIS8_ELN9__gnu_cxx12_Lock_policyE2EEEE8allocateERSD_m
FN:463,_ZNSt16allocator_traitsISaISt23_Sp_counted_ptr_inplaceISaIN8nav_msgs3msg9Odometry_ISaIvEEEESaIS6_ELN9__gnu_cxx12_Lock_policyE2EEEE8allocateERSB_m
FNDA:0,_ZNSt16allocator_traitsISaISt23_Sp_counted_ptr_inplaceISaIN8nav_msgs3msg9Odometry_ISaIvEEEESaIS6_ELN9__gnu_cxx12_Lock_policyE2EEEE8allocateERSB_m
FN:463,_ZNSt16allocator_traitsISaISt10unique_ptrIN8nav_msgs3msg9Odometry_ISaIvEEESt14default_deleteIS5_EEEE8allocateERS9_m
FNDA:0,_ZNSt16allocator_traitsISaISt10unique_ptrIN8nav_msgs3msg9Odometry_ISaIvEEESt14default_deleteIS5_EEEE8allocateERS9_m
FN:463,_ZNSt16allocator_traitsISaISt23_Sp_counted_ptr_inplaceIN15statistics_msgs3msg15MetricsMessage_ISaIvEEESaIS5_ELN9__gnu_cxx12_Lock_policyE2EEEE8allocateERSA_m
FNDA:0,_ZNSt16allocator_traitsISaISt23_Sp_counted_ptr_inplaceIN15statistics_msgs3msg15MetricsMessage_ISaIvEEESaIS5_ELN9__gnu_cxx12_Lock_policyE2EEEE8allocateERSA_m
FN:463,_ZNSt16allocator_traitsISaISt10shared_ptrIKN8nav_msgs3msg9Odometry_ISaIvEEEEEE8allocateERS8_m
FNDA:0,_ZNSt16allocator_traitsISaISt10shared_ptrIKN8nav_msgs3msg9Odometry_ISaIvEEEEEE8allocateERS8_m
FN:463,_ZNSt16allocator_traitsISaISt23_Sp_counted_ptr_inplaceIN6rclcpp12SubscriptionIN8nav_msgs3msg9Odometry_ISaIvEEES6_S7_S7_NS1_23message_memory_strategy21MessageMemoryStrategyIS7_S6_EEEESaISB_ELN9__gnu_cxx12_Lock_policyE2EEEE8allocateERSG_m
FNDA:0,_ZNSt16allocator_traitsISaISt23_Sp_counted_ptr_inplaceIN6rclcpp12SubscriptionIN8nav_msgs3msg9Odometry_ISaIvEEES6_S7_S7_NS1_23message_memory_strategy21MessageMemoryStrategyIS7_S6_EEEESaISB_ELN9__gnu_cxx12_Lock_policyE2EEEE8allocateERSG_m
FN:463,_ZNSt16allocator_traitsISaISt23_Sp_counted_ptr_inplaceISaIN6rclcpp17SerializedMessageEESaIS3_ELN9__gnu_cxx12_Lock_policyE2EEEE8allocateERS8_m
FNDA:0,_ZNSt16allocator_traitsISaISt23_Sp_counted_ptr_inplaceISaIN6rclcpp17SerializedMessageEESaIS3_ELN9__gnu_cxx12_Lock_policyE2EEEE8allocateERS8_m
FN:463,_ZNSt16allocator_traitsISaISt23_Sp_counted_ptr_inplaceIN6rclcpp9WallTimerIZNS1_6detail19create_subscriptionIN8nav_msgs3msg9Odometry_ISaIvEEESt5_BindIFM12InspectorBotFvSt10shared_ptrIS9_EEPSB_St12_PlaceholderILi1EEEES8_NS1_12SubscriptionIS9_S8_S9_S9_NS1_23message_memory_strategy21MessageMemoryStrategyIS9_S8_EEEESO_NS1_4NodeESQ_S9_EESC_IT2_ERT4_RT5_RKNSt7__cxx1112basic_stringIcSt11char_traitsIcESaIcEEERKNS1_3QoSEOT0_RKNS1_32SubscriptionOptionsWithAllocatorIT1_EENT3_9SharedPtrEEUlvE_LPv0EEESaIS1J_ELN9__gnu_cxx12_Lock_policyE2EEEE8allocateERS1O_m
FNDA:0,_ZNSt16allocator_traitsISaISt23_Sp_counted_ptr_inplaceIN6rclcpp9WallTimerIZNS1_6detail19create_subscriptionIN8nav_msgs3msg9Odometry_ISaIvEEESt5_BindIFM12InspectorBotFvSt10shared_ptrIS9_EEPSB_St12_PlaceholderILi1EEEES8_NS1_12SubscriptionIS9_S8_S9_S9_NS1_23message_memory_strategy21MessageMemoryStrategyIS9_S8_EEEESO_NS1_4NodeESQ_S9_EESC_IT2_ERT4_RT5_RKNSt7__cxx1112basic_stringIcSt11char_traitsIcESaIcEEERKNS1_3QoSEOT0_RKNS1_32SubscriptionOptionsWithAllocatorIT1_EENT3_9SharedPtrEEUlvE_LPv0EEESaIS1J_ELN9__gnu_cxx12_Lock_policyE2EEEE8allocateERS1O_m
FN:463,_ZNSt16allocator_traitsISaISt19_Sp_counted_deleterIPN15statistics_msgs3msg15MetricsMessage_ISaIvEEESt14default_deleteIS5_ES4_LN9__gnu_cxx12_Lock_policyE2EEEE8allocateERSC_m
FNDA:0,_ZNSt16allocator_traitsISaISt19_Sp_counted_deleterIPN15statistics_msgs3msg15MetricsMessage_ISaIvEEESt14default_deleteIS5_ES4_LN9__gnu_cxx12_Lock_policyE2EEEE8allocateERSC_m
FN:463,_ZNSt16allocator_traitsISaISt19_Sp_counted_deleterIPN8nav_msgs3msg9Odometry_ISaIvEEEZN6rclcpp12SubscriptionIS5_S4_S5_S5_NS7_23message_memory_strategy21MessageMemoryStrategyIS5_S4_EEE21handle_loaned_messageEPvRKNS7_11MessageInfoEEUlS6_E_S4_LN9__gnu_cxx12_Lock_policyE2EEEE8allocateERSL_m
FNDA:0,_ZNSt16allocator_traitsISaISt19_Sp_counted_deleterIPN8nav_msgs3msg9Odometry_ISaIvEEEZN6rclcpp12SubscriptionIS5_S4_S5_S5_NS7_23message_memory_strategy21MessageMemoryStrategyIS5_S4_EEE21handle_loaned_messageEPvRKNS7_11MessageInfoEEUlS6_E_S4_LN9__gnu_cxx12_Lock_policyE2EEEE8allocateERSL_m
FN:463,_ZNSt16allocator_traitsISaISt23_Sp_counted_ptr_inplaceISaIcESaIS1_ELN9__gnu_cxx12_Lock_policyE2EEEE8allocateERS6_m
FNDA:0,_ZNSt16allocator_traitsISaISt23_Sp_counted_ptr_inplaceISaIcESaIS1_ELN9__gnu_cxx12_Lock_policyE2EEEE8allocateERS6_m
FN:463,_ZNSt16allocator_traitsISaISt19_Sp_counted_deleterIPN6rclcpp12experimental19IntraProcessManagerEZNS1_7Context15get_sub_contextIS3_JEEESt10shared_ptrIT_EDpOT0_EUlS4_E_SaIvELN9__gnu_cxx12_Lock_policyE2EEEE8allocateERSI_m
FNDA:0,_ZNSt16allocator_traitsISaISt19_Sp_counted_deleterIPN6rclcpp12experimental19IntraProcessManagerEZNS1_7Context15get_sub_contextIS3_JEEESt10shared_ptrIT_EDpOT0_EUlS4_E_SaIvELN9__gnu_cxx12_Lock_policyE2EEEE8allocateERSI_m
FN:463,_ZNSt16allocator_traitsISaISt23_Sp_counted_ptr_inplaceIN6rclcpp9PublisherIN13geometry_msgs3msg6Twist_ISaIvEEES6_EESaIS8_ELN9__gnu_cxx12_Lock_policyE2EEEE8allocateERSD_m
FNDA:0,_ZNSt16allocator_traitsISaISt23_Sp_counted_ptr_inplaceIN6rclcpp9PublisherIN13geometry_msgs3msg6Twist_ISaIvEEES6_EESaIS8_ELN9__gnu_cxx12_Lock_policyE2EEEE8allocateERSD_m
FN:463,_ZNSt16allocator_traitsISaISt10unique_ptrIN23libstatistics_collector26topic_statistics_collector24TopicStatisticsCollectorIN8nav_msgs3msg9Odometry_ISaIvEEEEESt14default_deleteIS9_EEEE8allocateERSD_m
FNDA:0,_ZNSt16allocator_traitsISaISt10unique_ptrIN23libstatistics_collector26topic_statistics_collector24TopicStatisticsCollectorIN8nav_msgs3msg9Odometry_ISaIvEEEEESt14default_deleteIS9_EEEE8allocateERSD_m
FN:463,_ZNSt16allocator_traitsISaINSt8__detail10_Hash_nodeISt4pairIKSt10type_indexSt10shared_ptrIvEELb0EEEEE8allocateERS9_m
FNDA:0,_ZNSt16allocator_traitsISaINSt8__detail10_Hash_nodeISt4pairIKSt10type_indexSt10shared_ptrIvEELb0EEEEE8allocateERS9_m
FN:463,_ZNSt16allocator_traitsISaISt23_Sp_counted_ptr_inplaceIN6rclcpp9PublisherIN13geometry_msgs3msg12PoseStamped_ISaIvEEES6_EESaIS8_ELN9__gnu_cxx12_Lock_policyE2EEEE8allocateERSD_m
FNDA:0,_ZNSt16allocator_traitsISaISt23_Sp_counted_ptr_inplaceIN6rclcpp9PublisherIN13geometry_msgs3msg12PoseStamped_ISaIvEEES6_EESaIS8_ELN9__gnu_cxx12_Lock_policyE2EEEE8allocateERSD_m
FN:463,_ZNSt16allocator_traitsISaISt23_Sp_counted_ptr_inplaceIN6rclcpp15QOSEventHandlerISt8functionIFvR36rmw_offered_deadline_missed_status_sEESt10shared_ptrI15rcl_publisher_sEEESaISB_ELN9__gnu_cxx12_Lock_policyE2EEEE8allocateERSG_m
FNDA:0,_ZNSt16allocator_traitsISaISt23_Sp_counted_ptr_inplaceIN6rclcpp15QOSEventHandlerISt8functionIFvR36rmw_offered_deadline_missed_status_sEESt10shared_ptrI15rcl_publisher_sEEESaISB_ELN9__gnu_cxx12_Lock_policyE2EEEE8allocateERSG_m
FN:463,_ZNSt16allocator_traitsISaISt23_Sp_counted_ptr_inplaceIN13geometry_msgs3msg6Twist_ISaIvEEESaIS5_ELN9__gnu_cxx12_Lock_policyE2EEEE8allocateERSA_m
FNDA:0,_ZNSt16allocator_traitsISaISt23_Sp_counted_ptr_inplaceIN13geometry_msgs3msg6Twist_ISaIvEEESaIS5_ELN9__gnu_cxx12_Lock_policyE2EEEE8allocateERSA_m
FN:463,_ZNSt16allocator_traitsISaISt23_Sp_counted_ptr_inplaceIN6rclcpp15QOSEventHandlerIZNS1_9PublisherIN13geometry_msgs3msg12PoseStamped_ISaIvEEES7_EC4EPNS1_15node_interfaces17NodeBaseInterfaceERKNSt7__cxx1112basic_stringIcSt11char_traitsIcESaIcEEERKNS1_3QoSERKNS1_29PublisherOptionsWithAllocatorIS7_EEEUlR35rmw_qos_incompatible_event_status_sE_St10shared_ptrI15rcl_publisher_sEEESaISY_ELN9__gnu_cxx12_Lock_policyE2EEEE8allocateERS13_m
FNDA:0,_ZNSt16allocator_traitsISaISt23_Sp_counted_ptr_inplaceIN6rclcpp15QOSEventHandlerIZNS1_9PublisherIN13geometry_msgs3msg12PoseStamped_ISaIvEEES7_EC4EPNS1_15node_interfaces17NodeBaseInterfaceERKNSt7__cxx1112basic_stringIcSt11char_traitsIcESaIcEEERKNS1_3QoSERKNS1_29PublisherOptionsWithAllocatorIS7_EEEUlR35rmw_qos_incompatible_event_status_sE_St10shared_ptrI15rcl_publisher_sEEESaISY_ELN9__gnu_cxx12_Lock_policyE2EEEE8allocateERS13_m
FN:463,_ZNSt16allocator_traitsISaISt23_Sp_counted_ptr_inplaceIN6rclcpp15QOSEventHandlerISt8functionIFvR38rmw_requested_deadline_missed_status_sEESt10shared_ptrI18rcl_subscription_sEEESaISB_ELN9__gnu_cxx12_Lock_policyE2EEEE8allocateERSG_m
FNDA:0,_ZNSt16allocator_traitsISaISt23_Sp_counted_ptr_inplaceIN6rclcpp15QOSEventHandlerISt8functionIFvR38rmw_requested_deadline_missed_status_sEESt10shared_ptrI18rcl_subscription_sEEESaISB_ELN9__gnu_cxx12_Lock_policyE2EEEE8allocateERSG_m
FN:463,_ZNSt16allocator_traitsISaINSt8__detail10_Hash_nodeISt4pairIKPN6rclcpp19QOSEventHandlerBaseESt6atomicIbEELb0EEEEE8allocateERSB_m
FNDA:0,_ZNSt16allocator_traitsISaINSt8__detail10_Hash_nodeISt4pairIKPN6rclcpp19QOSEventHandlerBaseESt6atomicIbEELb0EEEEE8allocateERSB_m
FN:463,_ZNSt16allocator_traitsISaISt23_Sp_counted_ptr_inplaceIN6rclcpp5ClockESaIS2_ELN9__gnu_cxx12_Lock_policyE2EEEE8allocateERS7_m
FNDA:0,_ZNSt16allocator_traitsISaISt23_Sp_counted_ptr_inplaceIN6rclcpp5ClockESaIS2_ELN9__gnu_cxx12_Lock_policyE2EEEE8allocateERS7_m
FN:463,_ZNSt16allocator_traitsISaIN13geometry_msgs3msg12PoseStamped_ISaIvEEEEE8allocateERS5_m
FNDA:0,_ZNSt16allocator_traitsISaIN13geometry_msgs3msg12PoseStamped_ISaIvEEEEE8allocateERS5_m
FN:463,_ZNSt16allocator_traitsISaISt23_Sp_counted_ptr_inplaceIN6rclcpp15QOSEventHandlerIZNS1_9PublisherIN15statistics_msgs3msg15MetricsMessage_ISaIvEEES7_EC4EPNS1_15node_interfaces17NodeBaseInterfaceERKNSt7__cxx1112basic_stringIcSt11char_traitsIcESaIcEEERKNS1_3QoSERKNS1_29PublisherOptionsWithAllocatorIS7_EEEUlR35rmw_qos_incompatible_event_status_sE_St10shared_ptrI15rcl_publisher_sEEESaISY_ELN9__gnu_cxx12_Lock_policyE2EEEE8allocateERS13_m
FNDA:0,_ZNSt16allocator_traitsISaISt23_Sp_counted_ptr_inplaceIN6rclcpp15QOSEventHandlerIZNS1_9PublisherIN15statistics_msgs3msg15MetricsMessage_ISaIvEEES7_EC4EPNS1_15node_interfaces17NodeBaseInterfaceERKNSt7__cxx1112basic_stringIcSt11char_traitsIcESaIcEEERKNS1_3QoSERKNS1_29PublisherOptionsWithAllocatorIS7_EEEUlR35rmw_qos_incompatible_event_status_sE_St10shared_ptrI15rcl_publisher_sEEESaISY_ELN9__gnu_cxx12_Lock_policyE2EEEE8allocateERS13_m
FN:463,_ZNSt16allocator_traitsISaIN13geometry_msgs3msg6Twist_ISaIvEEEEE8allocateERS5_m
FNDA:0,_ZNSt16allocator_traitsISaIN13geometry_msgs3msg6Twist_ISaIvEEEEE8allocateERS5_m
FN:463,_ZNSt16allocator_traitsISaISt23_Sp_counted_ptr_inplaceIN6rclcpp17SerializedMessageESaIS2_ELN9__gnu_cxx12_Lock_policyE2EEEE8allocateERS7_m
FNDA:0,_ZNSt16allocator_traitsISaISt23_Sp_counted_ptr_inplaceIN6rclcpp17SerializedMessageESaIS2_ELN9__gnu_cxx12_Lock_policyE2EEEE8allocateERS7_m
FN:463,_ZNSt16allocator_traitsISaISt23_Sp_counted_ptr_inplaceIN6rclcpp15QOSEventHandlerISt8functionIFvR31rmw_liveliness_changed_status_sEESt10shared_ptrI18rcl_subscription_sEEESaISB_ELN9__gnu_cxx12_Lock_policyE2EEEE8allocateERSG_m
FNDA:0,_ZNSt16allocator_traitsISaISt23_Sp_counted_ptr_inplaceIN6rclcpp15QOSEventHandlerISt8functionIFvR31rmw_liveliness_changed_status_sEESt10shared_ptrI18rcl_subscription_sEEESaISB_ELN9__gnu_cxx12_Lock_policyE2EEEE8allocateERSG_m
FN:463,_ZNSt16allocator_traitsISaISt23_Sp_counted_ptr_inplaceIN6rclcpp12experimental24SubscriptionIntraProcessIN8nav_msgs3msg9Odometry_ISaIvEEES8_SaIS8_ESt14default_deleteIS8_ES8_S7_EESaISC_ELN9__gnu_cxx12_Lock_policyE2EEEE8allocateERSH_m
FNDA:0,_ZNSt16allocator_traitsISaISt23_Sp_counted_ptr_inplaceIN6rclcpp12experimental24SubscriptionIntraProcessIN8nav_msgs3msg9Odometry_ISaIvEEES8_SaIS8_ESt14default_deleteIS8_ES8_S7_EESaISC_ELN9__gnu_cxx12_Lock_policyE2EEEE8allocateERSH_m
FN:463,_ZNSt16allocator_traitsISaISt23_Sp_counted_ptr_inplaceI36rmw_offered_deadline_missed_status_sSaIS1_ELN9__gnu_cxx12_Lock_policyE2EEEE8allocateERS6_m
FNDA:0,_ZNSt16allocator_traitsISaISt23_Sp_counted_ptr_inplaceI36rmw_offered_deadline_missed_status_sSaIS1_ELN9__gnu_cxx12_Lock_policyE2EEEE8allocateERS6_m
FN:463,_ZNSt16allocator_traitsISaImEE8allocateERS0_m
FNDA:0,_ZNSt16allocator_traitsISaImEE8allocateERS0_m
FN:463,_ZNSt16allocator_traitsISaIN15statistics_msgs3msg15MetricsMessage_ISaIvEEEEE8allocateERS5_m
FNDA:0,_ZNSt16allocator_traitsISaIN15statistics_msgs3msg15MetricsMessage_ISaIvEEEEE8allocateERS5_m
FN:463,_ZNSt16allocator_traitsISaINSt7__cxx1112basic_stringIcSt11char_traitsIcESaIcEEEEE8allocateERS6_m
FNDA:12,_ZNSt16allocator_traitsISaINSt7__cxx1112basic_stringIcSt11char_traitsIcESaIcEEEEE8allocateERS6_m
FN:463,_ZNSt16allocator_traitsISaISt23_Sp_counted_ptr_inplaceI28rmw_liveliness_lost_status_sSaIS1_ELN9__gnu_cxx12_Lock_policyE2EEEE8allocateERS6_m
FNDA:0,_ZNSt16allocator_traitsISaISt23_Sp_counted_ptr_inplaceI28rmw_liveliness_lost_status_sSaIS1_ELN9__gnu_cxx12_Lock_policyE2EEEE8allocateERS6_m
FN:463,_ZNSt16allocator_traitsISaINSt8__detail10_Hash_nodeISt4pairIK26rcl_publisher_event_type_eSt10shared_ptrIN6rclcpp19QOSEventHandlerBaseEEELb0EEEEE8allocateERSB_m
FNDA:0,_ZNSt16allocator_traitsISaINSt8__detail10_Hash_nodeISt4pairIK26rcl_publisher_event_type_eSt10shared_ptrIN6rclcpp19QOSEventHandlerBaseEEELb0EEEEE8allocateERSB_m
FN:463,_ZNSt16allocator_traitsISaISt23_Sp_counted_ptr_inplaceIN6rclcpp15QOSEventHandlerIZNS1_9PublisherIN13geometry_msgs3msg6Twist_ISaIvEEES7_EC4EPNS1_15node_interfaces17NodeBaseInterfaceERKNSt7__cxx1112basic_stringIcSt11char_traitsIcESaIcEEERKNS1_3QoSERKNS1_29PublisherOptionsWithAllocatorIS7_EEEUlR35rmw_qos_incompatible_event_status_sE_St10shared_ptrI15rcl_publisher_sEEESaISY_ELN9__gnu_cxx12_Lock_policyE2EEEE8allocateERS13_m
FNDA:0,_ZNSt16allocator_traitsISaISt23_Sp_counted_ptr_inplaceIN6rclcpp15QOSEventHandlerIZNS1_9PublisherIN13geometry_msgs3msg6Twist_ISaIvEEES7_EC4EPNS1_15node_interfaces17NodeBaseInterfaceERKNSt7__cxx1112basic_stringIcSt11char_traitsIcESaIcEEERKNS1_3QoSERKNS1_29PublisherOptionsWithAllocatorIS7_EEEUlR35rmw_qos_incompatible_event_status_sE_St10shared_ptrI15rcl_publisher_sEEESaISY_ELN9__gnu_cxx12_Lock_policyE2EEEE8allocateERS13_m
FN:463,_ZNSt16allocator_traitsISaINSt8__detail10_Hash_nodeISt4pairIK29rcl_subscription_event_type_eSt10shared_ptrIN6rclcpp19QOSEventHandlerBaseEEELb0EEEEE8allocateERSB_m
FNDA:0,_ZNSt16allocator_traitsISaINSt8__detail10_Hash_nodeISt4pairIK29rcl_subscription_event_type_eSt10shared_ptrIN6rclcpp19QOSEventHandlerBaseEEELb0EEEEE8allocateERSB_m
FN:463,_ZNSt16allocator_traitsISaISt23_Sp_counted_ptr_inplaceIN6rclcpp15QOSEventHandlerISt8functionIFvR35rmw_qos_incompatible_event_status_sEESt10shared_ptrI18rcl_subscription_sEEESaISB_ELN9__gnu_cxx12_Lock_policyE2EEEE8allocateERSG_m
FNDA:0,_ZNSt16allocator_traitsISaISt23_Sp_counted_ptr_inplaceIN6rclcpp15QOSEventHandlerISt8functionIFvR35rmw_qos_incompatible_event_status_sEESt10shared_ptrI18rcl_subscription_sEEESaISB_ELN9__gnu_cxx12_Lock_policyE2EEEE8allocateERSG_m
FN:463,_ZNSt16allocator_traitsISaISt23_Sp_counted_ptr_inplaceI38rmw_requested_deadline_missed_status_sSaIS1_ELN9__gnu_cxx12_Lock_policyE2EEEE8allocateERS6_m
FNDA:0,_ZNSt16allocator_traitsISaISt23_Sp_counted_ptr_inplaceI38rmw_requested_deadline_missed_status_sSaIS1_ELN9__gnu_cxx12_Lock_policyE2EEEE8allocateERS6_m
FN:463,_ZNSt16allocator_traitsISaISt23_Sp_counted_ptr_inplaceI25rmw_message_lost_status_sSaIS1_ELN9__gnu_cxx12_Lock_policyE2EEEE8allocateERS6_m
FNDA:0,_ZNSt16allocator_traitsISaISt23_Sp_counted_ptr_inplaceI25rmw_message_lost_status_sSaIS1_ELN9__gnu_cxx12_Lock_policyE2EEEE8allocateERS6_m
FN:463,_ZNSt16allocator_traitsISaIN15statistics_msgs3msg19StatisticDataPoint_ISaIvEEEEE8allocateERS5_m
FNDA:0,_ZNSt16allocator_traitsISaIN15statistics_msgs3msg19StatisticDataPoint_ISaIvEEEEE8allocateERS5_m
FN:463,_ZNSt16allocator_traitsISaIhEE8allocateERS0_m
FNDA:0,_ZNSt16allocator_traitsISaIhEE8allocateERS0_m
FN:463,_ZNSt16allocator_traitsISaISt23_Sp_counted_ptr_inplaceI31rmw_liveliness_changed_status_sSaIS1_ELN9__gnu_cxx12_Lock_policyE2EEEE8allocateERS6_m
FNDA:0,_ZNSt16allocator_traitsISaISt23_Sp_counted_ptr_inplaceI31rmw_liveliness_changed_status_sSaIS1_ELN9__gnu_cxx12_Lock_policyE2EEEE8allocateERS6_m
FN:463,_ZNSt16allocator_traitsISaISt23_Sp_counted_ptr_inplaceISt4pairISt10shared_ptrIKN8nav_msgs3msg9Odometry_ISaIvEEEESt10unique_ptrIS7_St14default_deleteIS7_EEESaISE_ELN9__gnu_cxx12_Lock_policyE2EEEE8allocateERSJ_m
FNDA:0,_ZNSt16allocator_traitsISaISt23_Sp_counted_ptr_inplaceISt4pairISt10shared_ptrIKN8nav_msgs3msg9Odometry_ISaIvEEEESt10unique_ptrIS7_St14default_deleteIS7_EEESaISE_ELN9__gnu_cxx12_Lock_policyE2EEEE8allocateERSJ_m
FN:463,_ZNSt16allocator_traitsISaIlEE8allocateERS0_m
FNDA:0,_ZNSt16allocator_traitsISaIlEE8allocateERS0_m
FN:463,_ZNSt16allocator_traitsISaIdEE8allocateERS0_m
FNDA:0,_ZNSt16allocator_traitsISaIdEE8allocateERS0_m
FN:463,_ZNSt16allocator_traitsISaISt23_Sp_counted_ptr_inplaceI35rmw_qos_incompatible_event_status_sSaIS1_ELN9__gnu_cxx12_Lock_policyE2EEEE8allocateERS6_m
FNDA:0,_ZNSt16allocator_traitsISaISt23_Sp_counted_ptr_inplaceI35rmw_qos_incompatible_event_status_sSaIS1_ELN9__gnu_cxx12_Lock_policyE2EEEE8allocateERS6_m
FN:463,_ZNSt16allocator_traitsISaIN14rcl_interfaces3msg19FloatingPointRange_ISaIvEEEEE8allocateERS5_m
FNDA:0,_ZNSt16allocator_traitsISaIN14rcl_interfaces3msg19FloatingPointRange_ISaIvEEEEE8allocateERS5_m
FN:463,_ZNSt16allocator_traitsISaIN14rcl_interfaces3msg13IntegerRange_ISaIvEEEEE8allocateERS5_m
FNDA:0,_ZNSt16allocator_traitsISaIN14rcl_interfaces3msg13IntegerRange_ISaIvEEEEE8allocateERS5_m
FN:463,_ZNSt16allocator_traitsISaIcEE8allocateERS0_m
FNDA:0,_ZNSt16allocator_traitsISaIcEE8allocateERS0_m
FN:495,_ZNSt16allocator_traitsISaISt23_Sp_counted_ptr_inplaceISaIN8nav_msgs3msg9Odometry_ISaIvEEEESaIS6_ELN9__gnu_cxx12_Lock_policyE2EEEE10deallocateERSB_PSA_m
FNDA:0,_ZNSt16allocator_traitsISaISt23_Sp_counted_ptr_inplaceISaIN8nav_msgs3msg9Odometry_ISaIvEEEESaIS6_ELN9__gnu_cxx12_Lock_policyE2EEEE10deallocateERSB_PSA_m
FN:495,_ZNSt16allocator_traitsISaINSt8__detail10_Hash_nodeISt4pairIKPN6rclcpp19QOSEventHandlerBaseESt6atomicIbEELb0EEEEE10deallocateERSB_PSA_m
FNDA:0,_ZNSt16allocator_traitsISaINSt8__detail10_Hash_nodeISt4pairIKPN6rclcpp19QOSEventHandlerBaseESt6atomicIbEELb0EEEEE10deallocateERSB_PSA_m
FN:495,_ZNSt16allocator_traitsISaISt23_Sp_counted_ptr_inplaceIN6rclcpp12experimental24SubscriptionIntraProcessIN8nav_msgs3msg9Odometry_ISaIvEEES8_SaIS8_ESt14default_deleteIS8_ES8_S7_EESaISC_ELN9__gnu_cxx12_Lock_policyE2EEEE10deallocateERSH_PSG_m
FNDA:0,_ZNSt16allocator_traitsISaISt23_Sp_counted_ptr_inplaceIN6rclcpp12experimental24SubscriptionIntraProcessIN8nav_msgs3msg9Odometry_ISaIvEEES8_SaIS8_ESt14default_deleteIS8_ES8_S7_EESaISC_ELN9__gnu_cxx12_Lock_policyE2EEEE10deallocateERSH_PSG_m
FN:495,_ZNSt16allocator_traitsISaISt23_Sp_counted_ptr_inplaceIN6rclcpp15QOSEventHandlerISt8functionIFvR36rmw_offered_deadline_missed_status_sEESt10shared_ptrI15rcl_publisher_sEEESaISB_ELN9__gnu_cxx12_Lock_policyE2EEEE10deallocateERSG_PSF_m
FNDA:0,_ZNSt16allocator_traitsISaISt23_Sp_counted_ptr_inplaceIN6rclcpp15QOSEventHandlerISt8functionIFvR36rmw_offered_deadline_missed_status_sEESt10shared_ptrI15rcl_publisher_sEEESaISB_ELN9__gnu_cxx12_Lock_policyE2EEEE10deallocateERSG_PSF_m
FN:495,_ZNSt16allocator_traitsISaISt23_Sp_counted_ptr_inplaceISaIN6rclcpp17SerializedMessageEESaIS3_ELN9__gnu_cxx12_Lock_policyE2EEEE10deallocateERS8_PS7_m
FNDA:0,_ZNSt16allocator_traitsISaISt23_Sp_counted_ptr_inplaceISaIN6rclcpp17SerializedMessageEESaIS3_ELN9__gnu_cxx12_Lock_policyE2EEEE10deallocateERS8_PS7_m
FN:495,_ZNSt16allocator_traitsISaISt23_Sp_counted_ptr_inplaceIN6rclcpp5ClockESaIS2_ELN9__gnu_cxx12_Lock_policyE2EEEE10deallocateERS7_PS6_m
FNDA:0,_ZNSt16allocator_traitsISaISt23_Sp_counted_ptr_inplaceIN6rclcpp5ClockESaIS2_ELN9__gnu_cxx12_Lock_policyE2EEEE10deallocateERS7_PS6_m
FN:495,_ZNSt16allocator_traitsISaISt23_Sp_counted_ptr_inplaceISaIcESaIS1_ELN9__gnu_cxx12_Lock_policyE2EEEE10deallocateERS6_PS5_m
FNDA:0,_ZNSt16allocator_traitsISaISt23_Sp_counted_ptr_inplaceISaIcESaIS1_ELN9__gnu_cxx12_Lock_policyE2EEEE10deallocateERS6_PS5_m
FN:495,_ZNSt16allocator_traitsISaIPKcEE10deallocateERS2_PS1_m
FNDA:0,_ZNSt16allocator_traitsISaIPKcEE10deallocateERS2_PS1_m
FN:495,_ZNSt16allocator_traitsISaISt23_Sp_counted_ptr_inplaceIN6rclcpp15QOSEventHandlerIZNS1_9PublisherIN13geometry_msgs3msg12PoseStamped_ISaIvEEES7_EC4EPNS1_15node_interfaces17NodeBaseInterfaceERKNSt7__cxx1112basic_stringIcSt11char_traitsIcESaIcEEERKNS1_3QoSERKNS1_29PublisherOptionsWithAllocatorIS7_EEEUlR35rmw_qos_incompatible_event_status_sE_St10shared_ptrI15rcl_publisher_sEEESaISY_ELN9__gnu_cxx12_Lock_policyE2EEEE10deallocateERS13_PS12_m
FNDA:0,_ZNSt16allocator_traitsISaISt23_Sp_counted_ptr_inplaceIN6rclcpp15QOSEventHandlerIZNS1_9PublisherIN13geometry_msgs3msg12PoseStamped_ISaIvEEES7_EC4EPNS1_15node_interfaces17NodeBaseInterfaceERKNSt7__cxx1112basic_stringIcSt11char_traitsIcESaIcEEERKNS1_3QoSERKNS1_29PublisherOptionsWithAllocatorIS7_EEEUlR35rmw_qos_incompatible_event_status_sE_St10shared_ptrI15rcl_publisher_sEEESaISY_ELN9__gnu_cxx12_Lock_policyE2EEEE10deallocateERS13_PS12_m
FN:495,_ZNSt16allocator_traitsISaISt23_Sp_counted_ptr_inplaceIN6rclcpp15QOSEventHandlerISt8functionIFvR28rmw_liveliness_lost_status_sEESt10shared_ptrI15rcl_publisher_sEEESaISB_ELN9__gnu_cxx12_Lock_policyE2EEEE10deallocateERSG_PSF_m
FNDA:0,_ZNSt16allocator_traitsISaISt23_Sp_counted_ptr_inplaceIN6rclcpp15QOSEventHandlerISt8functionIFvR28rmw_liveliness_lost_status_sEESt10shared_ptrI15rcl_publisher_sEEESaISB_ELN9__gnu_cxx12_Lock_policyE2EEEE10deallocateERSG_PSF_m
FN:495,_ZNSt16allocator_traitsISaISt23_Sp_counted_ptr_inplaceIN6rclcpp16topic_statistics27SubscriptionTopicStatisticsIN8nav_msgs3msg9Odometry_ISaIvEEEEESaIS9_ELN9__gnu_cxx12_Lock_policyE2EEEE10deallocateERSE_PSD_m
FNDA:0,_ZNSt16allocator_traitsISaISt23_Sp_counted_ptr_inplaceIN6rclcpp16topic_statistics27SubscriptionTopicStatisticsIN8nav_msgs3msg9Odometry_ISaIvEEEEESaIS9_ELN9__gnu_cxx12_Lock_policyE2EEEE10deallocateERSE_PSD_m
FN:495,_ZNSt16allocator_traitsISaISt23_Sp_counted_ptr_inplaceIN6rclcpp15QOSEventHandlerISt8functionIFvR35rmw_qos_incompatible_event_status_sEESt10shared_ptrI15rcl_publisher_sEEESaISB_ELN9__gnu_cxx12_Lock_policyE2EEEE10deallocateERSG_PSF_m
FNDA:0,_ZNSt16allocator_traitsISaISt23_Sp_counted_ptr_inplaceIN6rclcpp15QOSEventHandlerISt8functionIFvR35rmw_qos_incompatible_event_status_sEESt10shared_ptrI15rcl_publisher_sEEESaISB_ELN9__gnu_cxx12_Lock_policyE2EEEE10deallocateERSG_PSF_m
FN:495,_ZNSt16allocator_traitsISaISt23_Sp_counted_ptr_inplaceISaIvESaIS1_ELN9__gnu_cxx12_Lock_policyE2EEEE10deallocateERS6_PS5_m
FNDA:0,_ZNSt16allocator_traitsISaISt23_Sp_counted_ptr_inplaceISaIvESaIS1_ELN9__gnu_cxx12_Lock_policyE2EEEE10deallocateERS6_PS5_m
FN:495,_ZNSt16allocator_traitsISaIcEE10deallocateERS0_Pcm
FNDA:0,_ZNSt16allocator_traitsISaIcEE10deallocateERS0_Pcm
FN:495,_ZNSt16allocator_traitsISaIN15statistics_msgs3msg19StatisticDataPoint_ISaIvEEEEE10deallocateERS5_PS4_m
FNDA:0,_ZNSt16allocator_traitsISaIN15statistics_msgs3msg19StatisticDataPoint_ISaIvEEEEE10deallocateERS5_PS4_m
FN:495,_ZNSt16allocator_traitsISaINSt7__cxx1112basic_stringIcSt11char_traitsIcESaIcEEEEE10deallocateERS6_PS5_m
FNDA:12,_ZNSt16allocator_traitsISaINSt7__cxx1112basic_stringIcSt11char_traitsIcESaIcEEEEE10deallocateERS6_PS5_m
FN:495,_ZNSt16allocator_traitsISaImEE10deallocateERS0_Pmm
FNDA:0,_ZNSt16allocator_traitsISaImEE10deallocateERS0_Pmm
FN:495,_ZNSt16allocator_traitsISaIhEE10deallocateERS0_Phm
FNDA:0,_ZNSt16allocator_traitsISaIhEE10deallocateERS0_Phm
FN:495,_ZNSt16allocator_traitsISaIlEE10deallocateERS0_Plm
FNDA:0,_ZNSt16allocator_traitsISaIlEE10deallocateERS0_Plm
FN:495,_ZNSt16allocator_traitsISaIdEE10deallocateERS0_Pdm
FNDA:0,_ZNSt16allocator_traitsISaIdEE10deallocateERS0_Pdm
FN:495,_ZNSt16allocator_traitsISaIN6rclcpp9ParameterEEE10deallocateERS2_PS1_m
FNDA:0,_ZNSt16allocator_traitsISaIN6rclcpp9ParameterEEE10deallocateERS2_PS1_m
FN:495,_ZNSt16allocator_traitsISaIN6rclcpp13QosPolicyKindEEE10deallocateERS2_PS1_m
FNDA:0,_ZNSt16allocator_traitsISaIN6rclcpp13QosPolicyKindEEE10deallocateERS2_PS1_m
FN:495,_ZNSt16allocator_traitsISaIN14rcl_interfaces3msg19FloatingPointRange_ISaIvEEEEE10deallocateERS5_PS4_m
FNDA:0,_ZNSt16allocator_traitsISaIN14rcl_interfaces3msg19FloatingPointRange_ISaIvEEEEE10deallocateERS5_PS4_m
FN:495,_ZNSt16allocator_traitsISaIN14rcl_interfaces3msg13IntegerRange_ISaIvEEEEE10deallocateERS5_PS4_m
FNDA:0,_ZNSt16allocator_traitsISaIN14rcl_interfaces3msg13IntegerRange_ISaIvEEEEE10deallocateERS5_PS4_m
FN:495,_ZNSt16allocator_traitsISaINSt8__detail10_Hash_nodeISt4pairIK26rcl_publisher_event_type_eSt10shared_ptrIN6rclcpp19QOSEventHandlerBaseEEELb0EEEEE10deallocateERSB_PSA_m
FNDA:0,_ZNSt16allocator_traitsISaINSt8__detail10_Hash_nodeISt4pairIK26rcl_publisher_event_type_eSt10shared_ptrIN6rclcpp19QOSEventHandlerBaseEEELb0EEEEE10deallocateERSB_PSA_m
FN:495,_ZNSt16allocator_traitsISaINSt8__detail10_Hash_nodeISt4pairIK29rcl_subscription_event_type_eSt10shared_ptrIN6rclcpp19QOSEventHandlerBaseEEELb0EEEEE10deallocateERSB_PSA_m
FNDA:0,_ZNSt16allocator_traitsISaINSt8__detail10_Hash_nodeISt4pairIK29rcl_subscription_event_type_eSt10shared_ptrIN6rclcpp19QOSEventHandlerBaseEEELb0EEEEE10deallocateERSB_PSA_m
FN:495,_ZNSt16allocator_traitsISaIN15statistics_msgs3msg15MetricsMessage_ISaIvEEEEE10deallocateERS5_PS4_m
FNDA:0,_ZNSt16allocator_traitsISaIN15statistics_msgs3msg15MetricsMessage_ISaIvEEEEE10deallocateERS5_PS4_m
FN:495,_ZNSt16allocator_traitsISaISt23_Sp_counted_ptr_inplaceIN6rclcpp4NodeESaIS2_ELN9__gnu_cxx12_Lock_policyE2EEEE10deallocateERS7_PS6_m
FNDA:0,_ZNSt16allocator_traitsISaISt23_Sp_counted_ptr_inplaceIN6rclcpp4NodeESaIS2_ELN9__gnu_cxx12_Lock_policyE2EEEE10deallocateERS7_PS6_m
FN:495,_ZNSt16allocator_traitsISaISt10unique_ptrIN23libstatistics_collector26topic_statistics_collector24TopicStatisticsCollectorIN8nav_msgs3msg9Odometry_ISaIvEEEEESt14default_deleteIS9_EEEE10deallocateERSD_PSC_m
FNDA:0,_ZNSt16allocator_traitsISaISt10unique_ptrIN23libstatistics_collector26topic_statistics_collector24TopicStatisticsCollectorIN8nav_msgs3msg9Odometry_ISaIvEEEEESt14default_deleteIS9_EEEE10deallocateERSD_PSC_m
FN:495,_ZNSt16allocator_traitsISaISt23_Sp_counted_ptr_inplaceIN6rclcpp23message_memory_strategy21MessageMemoryStrategyIN8nav_msgs3msg9Odometry_ISaIvEEES7_EESaIS9_ELN9__gnu_cxx12_Lock_policyE2EEEE10deallocateERSE_PSD_m
FNDA:0,_ZNSt16allocator_traitsISaISt23_Sp_counted_ptr_inplaceIN6rclcpp23message_memory_strategy21MessageMemoryStrategyIN8nav_msgs3msg9Odometry_ISaIvEEES7_EESaIS9_ELN9__gnu_cxx12_Lock_policyE2EEEE10deallocateERSE_PSD_m
FN:495,_ZNSt16allocator_traitsISaIPNSt8__detail15_Hash_node_baseEEE10deallocateERS3_PS2_m
FNDA:0,_ZNSt16allocator_traitsISaIPNSt8__detail15_Hash_node_baseEEE10deallocateERS3_PS2_m
FN:495,_ZNSt16allocator_traitsISaISt19_Sp_counted_deleterIPN6rclcpp17SerializedMessageESt14default_deleteIS2_ESaIvELN9__gnu_cxx12_Lock_policyE2EEEE10deallocateERSA_PS9_m
FNDA:0,_ZNSt16allocator_traitsISaISt19_Sp_counted_deleterIPN6rclcpp17SerializedMessageESt14default_deleteIS2_ESaIvELN9__gnu_cxx12_Lock_policyE2EEEE10deallocateERSA_PS9_m
FN:495,_ZNSt16allocator_traitsISaISt23_Sp_counted_ptr_inplaceIN13geometry_msgs3msg12PoseStamped_ISaIvEEESaIS5_ELN9__gnu_cxx12_Lock_policyE2EEEE10deallocateERSA_PS9_m
FNDA:0,_ZNSt16allocator_traitsISaISt23_Sp_counted_ptr_inplaceIN13geometry_msgs3msg12PoseStamped_ISaIvEEESaIS5_ELN9__gnu_cxx12_Lock_policyE2EEEE10deallocateERSA_PS9_m
FN:495,_ZNSt16allocator_traitsISaISt23_Sp_counted_ptr_inplaceIN13geometry_msgs3msg6Twist_ISaIvEEESaIS5_ELN9__gnu_cxx12_Lock_policyE2EEEE10deallocateERSA_PS9_m
FNDA:0,_ZNSt16allocator_traitsISaISt23_Sp_counted_ptr_inplaceIN13geometry_msgs3msg6Twist_ISaIvEEESaIS5_ELN9__gnu_cxx12_Lock_policyE2EEEE10deallocateERSA_PS9_m
FN:495,_ZNSt16allocator_traitsISaISt23_Sp_counted_ptr_inplaceIN6rclcpp9PublisherIN13geometry_msgs3msg12PoseStamped_ISaIvEEES6_EESaIS8_ELN9__gnu_cxx12_Lock_policyE2EEEE10deallocateERSD_PSC_m
FNDA:0,_ZNSt16allocator_traitsISaISt23_Sp_counted_ptr_inplaceIN6rclcpp9PublisherIN13geometry_msgs3msg12PoseStamped_ISaIvEEES6_EESaIS8_ELN9__gnu_cxx12_Lock_policyE2EEEE10deallocateERSD_PSC_m
FN:495,_ZNSt16allocator_traitsISaINSt8__detail10_Hash_nodeISt4pairIKSt10type_indexSt10shared_ptrIvEELb0EEEEE10deallocateERS9_PS8_m
FNDA:0,_ZNSt16allocator_traitsISaINSt8__detail10_Hash_nodeISt4pairIKSt10type_indexSt10shared_ptrIvEELb0EEEEE10deallocateERS9_PS8_m
FN:495,_ZNSt16allocator_traitsISaISt23_Sp_counted_ptr_inplaceIN6rclcpp9PublisherIN13geometry_msgs3msg6Twist_ISaIvEEES6_EESaIS8_ELN9__gnu_cxx12_Lock_policyE2EEEE10deallocateERSD_PSC_m
FNDA:0,_ZNSt16allocator_traitsISaISt23_Sp_counted_ptr_inplaceIN6rclcpp9PublisherIN13geometry_msgs3msg6Twist_ISaIvEEES6_EESaIS8_ELN9__gnu_cxx12_Lock_policyE2EEEE10deallocateERSD_PSC_m
FN:495,_ZNSt16allocator_traitsISaISt19_Sp_counted_deleterIPN6rclcpp12experimental19IntraProcessManagerEZNS1_7Context15get_sub_contextIS3_JEEESt10shared_ptrIT_EDpOT0_EUlS4_E_SaIvELN9__gnu_cxx12_Lock_policyE2EEEE10deallocateERSI_PSH_m
FNDA:0,_ZNSt16allocator_traitsISaISt19_Sp_counted_deleterIPN6rclcpp12experimental19IntraProcessManagerEZNS1_7Context15get_sub_contextIS3_JEEESt10shared_ptrIT_EDpOT0_EUlS4_E_SaIvELN9__gnu_cxx12_Lock_policyE2EEEE10deallocateERSI_PSH_m
FN:495,_ZNSt16allocator_traitsISaISt23_Sp_counted_ptr_inplaceIN6rclcpp9PublisherIN15statistics_msgs3msg15MetricsMessage_ISaIvEEES6_EESaIS8_ELN9__gnu_cxx12_Lock_policyE2EEEE10deallocateERSD_PSC_m
FNDA:0,_ZNSt16allocator_traitsISaISt23_Sp_counted_ptr_inplaceIN6rclcpp9PublisherIN15statistics_msgs3msg15MetricsMessage_ISaIvEEES6_EESaIS8_ELN9__gnu_cxx12_Lock_policyE2EEEE10deallocateERSD_PSC_m
FN:495,_ZNSt16allocator_traitsISaISt23_Sp_counted_ptr_inplaceIN6rclcpp9WallTimerIZNS1_6detail19create_subscriptionIN8nav_msgs3msg9Odometry_ISaIvEEESt5_BindIFM12InspectorBotFvSt10shared_ptrIS9_EEPSB_St12_PlaceholderILi1EEEES8_NS1_12SubscriptionIS9_S8_S9_S9_NS1_23message_memory_strategy21MessageMemoryStrategyIS9_S8_EEEESO_NS1_4NodeESQ_S9_EESC_IT2_ERT4_RT5_RKNSt7__cxx1112basic_stringIcSt11char_traitsIcESaIcEEERKNS1_3QoSEOT0_RKNS1_32SubscriptionOptionsWithAllocatorIT1_EENT3_9SharedPtrEEUlvE_LPv0EEESaIS1J_ELN9__gnu_cxx12_Lock_policyE2EEEE10deallocateERS1O_PS1N_m
FNDA:0,_ZNSt16allocator_traitsISaISt23_Sp_counted_ptr_inplaceIN6rclcpp9WallTimerIZNS1_6detail19create_subscriptionIN8nav_msgs3msg9Odometry_ISaIvEEESt5_BindIFM12InspectorBotFvSt10shared_ptrIS9_EEPSB_St12_PlaceholderILi1EEEES8_NS1_12SubscriptionIS9_S8_S9_S9_NS1_23message_memory_strategy21MessageMemoryStrategyIS9_S8_EEEESO_NS1_4NodeESQ_S9_EESC_IT2_ERT4_RT5_RKNSt7__cxx1112basic_stringIcSt11char_traitsIcESaIcEEERKNS1_3QoSEOT0_RKNS1_32SubscriptionOptionsWithAllocatorIT1_EENT3_9SharedPtrEEUlvE_LPv0EEESaIS1J_ELN9__gnu_cxx12_Lock_policyE2EEEE10deallocateERS1O_PS1N_m
FN:495,_ZNSt16allocator_traitsISaISt23_Sp_counted_ptr_inplaceIN6rclcpp12SubscriptionIN8nav_msgs3msg9Odometry_ISaIvEEES6_S7_S7_NS1_23message_memory_strategy21MessageMemoryStrategyIS7_S6_EEEESaISB_ELN9__gnu_cxx12_Lock_policyE2EEEE10deallocateERSG_PSF_m
FNDA:0,_ZNSt16allocator_traitsISaISt23_Sp_counted_ptr_inplaceIN6rclcpp12SubscriptionIN8nav_msgs3msg9Odometry_ISaIvEEES6_S7_S7_NS1_23message_memory_strategy21MessageMemoryStrategyIS7_S6_EEEESaISB_ELN9__gnu_cxx12_Lock_policyE2EEEE10deallocateERSG_PSF_m
FN:495,_ZNSt16allocator_traitsISaINSt8__detail10_Hash_nodeISt4pairIKmSt8weak_ptrIN6rclcpp12experimental28SubscriptionIntraProcessBaseEEELb0EEEEE10deallocateERSB_PSA_m
FNDA:0,_ZNSt16allocator_traitsISaINSt8__detail10_Hash_nodeISt4pairIKmSt8weak_ptrIN6rclcpp12experimental28SubscriptionIntraProcessBaseEEELb0EEEEE10deallocateERSB_PSA_m
FN:495,_ZNSt16allocator_traitsISaISt23_Sp_counted_ptr_inplaceIN15statistics_msgs3msg15MetricsMessage_ISaIvEEESaIS5_ELN9__gnu_cxx12_Lock_policyE2EEEE10deallocateERSA_PS9_m
FNDA:0,_ZNSt16allocator_traitsISaISt23_Sp_counted_ptr_inplaceIN15statistics_msgs3msg15MetricsMessage_ISaIvEEESaIS5_ELN9__gnu_cxx12_Lock_policyE2EEEE10deallocateERSA_PS9_m
FN:495,_ZNSt16allocator_traitsISaISt23_Sp_counted_ptr_inplaceI31rmw_liveliness_changed_status_sSaIS1_ELN9__gnu_cxx12_Lock_policyE2EEEE10deallocateERS6_PS5_m
FNDA:0,_ZNSt16allocator_traitsISaISt23_Sp_counted_ptr_inplaceI31rmw_liveliness_changed_status_sSaIS1_ELN9__gnu_cxx12_Lock_policyE2EEEE10deallocateERS6_PS5_m
FN:495,_ZNSt16allocator_traitsISaISt23_Sp_counted_ptr_inplaceIN6rclcpp15QOSEventHandlerISt8functionIFvR38rmw_requested_deadline_missed_status_sEESt10shared_ptrI18rcl_subscription_sEEESaISB_ELN9__gnu_cxx12_Lock_policyE2EEEE10deallocateERSG_PSF_m
FNDA:0,_ZNSt16allocator_traitsISaISt23_Sp_counted_ptr_inplaceIN6rclcpp15QOSEventHandlerISt8functionIFvR38rmw_requested_deadline_missed_status_sEESt10shared_ptrI18rcl_subscription_sEEESaISB_ELN9__gnu_cxx12_Lock_policyE2EEEE10deallocateERSG_PSF_m
FN:495,_ZNSt16allocator_traitsISaISt19_Sp_counted_deleterIPN8nav_msgs3msg9Odometry_ISaIvEEEZN6rclcpp12SubscriptionIS5_S4_S5_S5_NS7_23message_memory_strategy21MessageMemoryStrategyIS5_S4_EEE21handle_loaned_messageEPvRKNS7_11MessageInfoEEUlS6_E_S4_LN9__gnu_cxx12_Lock_policyE2EEEE10deallocateERSL_PSK_m
FNDA:0,_ZNSt16allocator_traitsISaISt19_Sp_counted_deleterIPN8nav_msgs3msg9Odometry_ISaIvEEEZN6rclcpp12SubscriptionIS5_S4_S5_S5_NS7_23message_memory_strategy21MessageMemoryStrategyIS5_S4_EEE21handle_loaned_messageEPvRKNS7_11MessageInfoEEUlS6_E_S4_LN9__gnu_cxx12_Lock_policyE2EEEE10deallocateERSL_PSK_m
FN:495,_ZNSt16allocator_traitsISaISt23_Sp_counted_ptr_inplaceIN8nav_msgs3msg9Odometry_ISaIvEEESaIS5_ELN9__gnu_cxx12_Lock_policyE2EEEE10deallocateERSA_PS9_m
FNDA:0,_ZNSt16allocator_traitsISaISt23_Sp_counted_ptr_inplaceIN8nav_msgs3msg9Odometry_ISaIvEEESaIS5_ELN9__gnu_cxx12_Lock_policyE2EEEE10deallocateERSA_PS9_m
FN:495,_ZNSt16allocator_traitsISaISt23_Sp_counted_ptr_inplaceIN6rclcpp15QOSEventHandlerISt8functionIFvR31rmw_liveliness_changed_status_sEESt10shared_ptrI18rcl_subscription_sEEESaISB_ELN9__gnu_cxx12_Lock_policyE2EEEE10deallocateERSG_PSF_m
FNDA:0,_ZNSt16allocator_traitsISaISt23_Sp_counted_ptr_inplaceIN6rclcpp15QOSEventHandlerISt8functionIFvR31rmw_liveliness_changed_status_sEESt10shared_ptrI18rcl_subscription_sEEESaISB_ELN9__gnu_cxx12_Lock_policyE2EEEE10deallocateERSG_PSF_m
FN:495,_ZNSt16allocator_traitsISaISt23_Sp_counted_ptr_inplaceIN6rclcpp15QOSEventHandlerISt8functionIFvR35rmw_qos_incompatible_event_status_sEESt10shared_ptrI18rcl_subscription_sEEESaISB_ELN9__gnu_cxx12_Lock_policyE2EEEE10deallocateERSG_PSF_m
FNDA:0,_ZNSt16allocator_traitsISaISt23_Sp_counted_ptr_inplaceIN6rclcpp15QOSEventHandlerISt8functionIFvR35rmw_qos_incompatible_event_status_sEESt10shared_ptrI18rcl_subscription_sEEESaISB_ELN9__gnu_cxx12_Lock_policyE2EEEE10deallocateERSG_PSF_m
FN:495,_ZNSt16allocator_traitsISaISt23_Sp_counted_ptr_inplaceI25rmw_message_lost_status_sSaIS1_ELN9__gnu_cxx12_Lock_policyE2EEEE10deallocateERS6_PS5_m
FNDA:0,_ZNSt16allocator_traitsISaISt23_Sp_counted_ptr_inplaceI25rmw_message_lost_status_sSaIS1_ELN9__gnu_cxx12_Lock_policyE2EEEE10deallocateERS6_PS5_m
FN:495,_ZNSt16allocator_traitsISaISt23_Sp_counted_ptr_inplaceIN6rclcpp15QOSEventHandlerISt8functionIFvR25rmw_message_lost_status_sEESt10shared_ptrI18rcl_subscription_sEEESaISB_ELN9__gnu_cxx12_Lock_policyE2EEEE10deallocateERSG_PSF_m
FNDA:0,_ZNSt16allocator_traitsISaISt23_Sp_counted_ptr_inplaceIN6rclcpp15QOSEventHandlerISt8functionIFvR25rmw_message_lost_status_sEESt10shared_ptrI18rcl_subscription_sEEESaISB_ELN9__gnu_cxx12_Lock_policyE2EEEE10deallocateERSG_PSF_m
FN:495,_ZNSt16allocator_traitsISaISt23_Sp_counted_ptr_inplaceI35rmw_qos_incompatible_event_status_sSaIS1_ELN9__gnu_cxx12_Lock_policyE2EEEE10deallocateERS6_PS5_m
FNDA:0,_ZNSt16allocator_traitsISaISt23_Sp_counted_ptr_inplaceI35rmw_qos_incompatible_event_status_sSaIS1_ELN9__gnu_cxx12_Lock_policyE2EEEE10deallocateERS6_PS5_m
FN:495,_ZNSt16allocator_traitsISaISt23_Sp_counted_ptr_inplaceIN6rclcpp15QOSEventHandlerIZNS1_12SubscriptionIN8nav_msgs3msg9Odometry_ISaIvEEES7_S8_S8_NS1_23message_memory_strategy21MessageMemoryStrategyIS8_S7_EEEC4EPNS1_15node_interfaces17NodeBaseInterfaceERK29rosidl_message_type_support_tRKNSt7__cxx1112basic_stringIcSt11char_traitsIcESaIcEEERKNS1_3QoSENS1_23AnySubscriptionCallbackIS8_S7_EERKNS1_32SubscriptionOptionsWithAllocatorIS7_EESt10shared_ptrISB_ES10_INS1_16topic_statistics27SubscriptionTopicStatisticsIS8_EEEEUlR35rmw_qos_incompatible_event_status_sE_S10_I18rcl_subscription_sEEESaIS1B_ELN9__gnu_cxx12_Lock_policyE2EEEE10deallocateERS1G_PS1F_m
FNDA:0,_ZNSt16allocator_traitsISaISt23_Sp_counted_ptr_inplaceIN6rclcpp15QOSEventHandlerIZNS1_12SubscriptionIN8nav_msgs3msg9Odometry_ISaIvEEES7_S8_S8_NS1_23message_memory_strategy21MessageMemoryStrategyIS8_S7_EEEC4EPNS1_15node_interfaces17NodeBaseInterfaceERK29rosidl_message_type_support_tRKNSt7__cxx1112basic_stringIcSt11char_traitsIcESaIcEEERKNS1_3QoSENS1_23AnySubscriptionCallbackIS8_S7_EERKNS1_32SubscriptionOptionsWithAllocatorIS7_EESt10shared_ptrISB_ES10_INS1_16topic_statistics27SubscriptionTopicStatisticsIS8_EEEEUlR35rmw_qos_incompatible_event_status_sE_S10_I18rcl_subscription_sEEESaIS1B_ELN9__gnu_cxx12_Lock_policyE2EEEE10deallocateERS1G_PS1F_m
FN:495,_ZNSt16allocator_traitsISaISt23_Sp_counted_ptr_inplaceI38rmw_requested_deadline_missed_status_sSaIS1_ELN9__gnu_cxx12_Lock_policyE2EEEE10deallocateERS6_PS5_m
FNDA:0,_ZNSt16allocator_traitsISaISt23_Sp_counted_ptr_inplaceI38rmw_requested_deadline_missed_status_sSaIS1_ELN9__gnu_cxx12_Lock_policyE2EEEE10deallocateERS6_PS5_m
FN:495,_ZNSt16allocator_traitsISaISt23_Sp_counted_ptr_inplaceISt4pairISt10shared_ptrIKN8nav_msgs3msg9Odometry_ISaIvEEEESt10unique_ptrIS7_St14default_deleteIS7_EEESaISE_ELN9__gnu_cxx12_Lock_policyE2EEEE10deallocateERSJ_PSI_m
FNDA:0,_ZNSt16allocator_traitsISaISt23_Sp_counted_ptr_inplaceISt4pairISt10shared_ptrIKN8nav_msgs3msg9Odometry_ISaIvEEEESt10unique_ptrIS7_St14default_deleteIS7_EEESaISE_ELN9__gnu_cxx12_Lock_policyE2EEEE10deallocateERSJ_PSI_m
FN:495,_ZNSt16allocator_traitsISaISt10shared_ptrIKN8nav_msgs3msg9Odometry_ISaIvEEEEEE10deallocateERS8_PS7_m
FNDA:0,_ZNSt16allocator_traitsISaISt10shared_ptrIKN8nav_msgs3msg9Odometry_ISaIvEEEEEE10deallocateERS8_PS7_m
FN:495,_ZNSt16allocator_traitsISaISt23_Sp_counted_ptr_inplaceI28rmw_liveliness_lost_status_sSaIS1_ELN9__gnu_cxx12_Lock_policyE2EEEE10deallocateERS6_PS5_m
FNDA:0,_ZNSt16allocator_traitsISaISt23_Sp_counted_ptr_inplaceI28rmw_liveliness_lost_status_sSaIS1_ELN9__gnu_cxx12_Lock_policyE2EEEE10deallocateERS6_PS5_m
FN:495,_ZNSt16allocator_traitsISaISt10unique_ptrIN8nav_msgs3msg9Odometry_ISaIvEEESt14default_deleteIS5_EEEE10deallocateERS9_PS8_m
FNDA:0,_ZNSt16allocator_traitsISaISt10unique_ptrIN8nav_msgs3msg9Odometry_ISaIvEEESt14default_deleteIS5_EEEE10deallocateERS9_PS8_m
FN:495,_ZNSt16allocator_traitsISaISt23_Sp_counted_ptr_inplaceI36rmw_offered_deadline_missed_status_sSaIS1_ELN9__gnu_cxx12_Lock_policyE2EEEE10deallocateERS6_PS5_m
FNDA:0,_ZNSt16allocator_traitsISaISt23_Sp_counted_ptr_inplaceI36rmw_offered_deadline_missed_status_sSaIS1_ELN9__gnu_cxx12_Lock_policyE2EEEE10deallocateERS6_PS5_m
FN:495,_ZNSt16allocator_traitsISaISt23_Sp_counted_ptr_inplaceIN6rclcpp17SerializedMessageESaIS2_ELN9__gnu_cxx12_Lock_policyE2EEEE10deallocateERS7_PS6_m
FNDA:0,_ZNSt16allocator_traitsISaISt23_Sp_counted_ptr_inplaceIN6rclcpp17SerializedMessageESaIS2_ELN9__gnu_cxx12_Lock_policyE2EEEE10deallocateERS7_PS6_m
FN:495,_ZNSt16allocator_traitsISaISt23_Sp_counted_ptr_inplaceIN6rclcpp15QOSEventHandlerIZNS1_9PublisherIN13geometry_msgs3msg6Twist_ISaIvEEES7_EC4EPNS1_15node_interfaces17NodeBaseInterfaceERKNSt7__cxx1112basic_stringIcSt11char_traitsIcESaIcEEERKNS1_3QoSERKNS1_29PublisherOptionsWithAllocatorIS7_EEEUlR35rmw_qos_incompatible_event_status_sE_St10shared_ptrI15rcl_publisher_sEEESaISY_ELN9__gnu_cxx12_Lock_policyE2EEEE10deallocateERS13_PS12_m
FNDA:0,_ZNSt16allocator_traitsISaISt23_Sp_counted_ptr_inplaceIN6rclcpp15QOSEventHandlerIZNS1_9PublisherIN13geometry_msgs3msg6Twist_ISaIvEEES7_EC4EPNS1_15node_interfaces17NodeBaseInterfaceERKNSt7__cxx1112basic_stringIcSt11char_traitsIcESaIcEEERKNS1_3QoSERKNS1_29PublisherOptionsWithAllocatorIS7_EEEUlR35rmw_qos_incompatible_event_status_sE_St10shared_ptrI15rcl_publisher_sEEESaISY_ELN9__gnu_cxx12_Lock_policyE2EEEE10deallocateERS13_PS12_m
FN:495,_ZNSt16allocator_traitsISaISt19_Sp_counted_deleterIPN15statistics_msgs3msg15MetricsMessage_ISaIvEEESt14default_deleteIS5_ES4_LN9__gnu_cxx12_Lock_policyE2EEEE10deallocateERSC_PSB_m
FNDA:0,_ZNSt16allocator_traitsISaISt19_Sp_counted_deleterIPN15statistics_msgs3msg15MetricsMessage_ISaIvEEESt14default_deleteIS5_ES4_LN9__gnu_cxx12_Lock_policyE2EEEE10deallocateERSC_PSB_m
FN:495,_ZNSt16allocator_traitsISaISt19_Sp_counted_deleterIPN13geometry_msgs3msg6Twist_ISaIvEEESt14default_deleteIS5_ES4_LN9__gnu_cxx12_Lock_policyE2EEEE10deallocateERSC_PSB_m
FNDA:0,_ZNSt16allocator_traitsISaISt19_Sp_counted_deleterIPN13geometry_msgs3msg6Twist_ISaIvEEESt14default_deleteIS5_ES4_LN9__gnu_cxx12_Lock_policyE2EEEE10deallocateERSC_PSB_m
FN:495,_ZNSt16allocator_traitsISaISt19_Sp_counted_deleterIPN13geometry_msgs3msg12PoseStamped_ISaIvEEESt14default_deleteIS5_ES4_LN9__gnu_cxx12_Lock_policyE2EEEE10deallocateERSC_PSB_m
FNDA:0,_ZNSt16allocator_traitsISaISt19_Sp_counted_deleterIPN13geometry_msgs3msg12PoseStamped_ISaIvEEESt14default_deleteIS5_ES4_LN9__gnu_cxx12_Lock_policyE2EEEE10deallocateERSC_PSB_m
FN:495,_ZNSt16allocator_traitsISaISt19_Sp_counted_deleterIPN8nav_msgs3msg9Odometry_ISaIvEEESt14default_deleteIS5_ES4_LN9__gnu_cxx12_Lock_policyE2EEEE10deallocateERSC_PSB_m
FNDA:0,_ZNSt16allocator_traitsISaISt19_Sp_counted_deleterIPN8nav_msgs3msg9Odometry_ISaIvEEESt14default_deleteIS5_ES4_LN9__gnu_cxx12_Lock_policyE2EEEE10deallocateERSC_PSB_m
FN:495,_ZNSt16allocator_traitsISaISt23_Sp_counted_ptr_inplaceIN6rclcpp15QOSEventHandlerIZNS1_9PublisherIN15statistics_msgs3msg15MetricsMessage_ISaIvEEES7_EC4EPNS1_15node_interfaces17NodeBaseInterfaceERKNSt7__cxx1112basic_stringIcSt11char_traitsIcESaIcEEERKNS1_3QoSERKNS1_29PublisherOptionsWithAllocatorIS7_EEEUlR35rmw_qos_incompatible_event_status_sE_St10shared_ptrI15rcl_publisher_sEEESaISY_ELN9__gnu_cxx12_Lock_policyE2EEEE10deallocateERS13_PS12_m
FNDA:0,_ZNSt16allocator_traitsISaISt23_Sp_counted_ptr_inplaceIN6rclcpp15QOSEventHandlerIZNS1_9PublisherIN15statistics_msgs3msg15MetricsMessage_ISaIvEEES7_EC4EPNS1_15node_interfaces17NodeBaseInterfaceERKNSt7__cxx1112basic_stringIcSt11char_traitsIcESaIcEEERKNS1_3QoSERKNS1_29PublisherOptionsWithAllocatorIS7_EEEUlR35rmw_qos_incompatible_event_status_sE_St10shared_ptrI15rcl_publisher_sEEESaISY_ELN9__gnu_cxx12_Lock_policyE2EEEE10deallocateERS13_PS12_m
FN:511,_ZNSt16allocator_traitsISaIN6rclcpp9WallTimerIZNS0_6detail19create_subscriptionIN8nav_msgs3msg9Odometry_ISaIvEEESt5_BindIFM12InspectorBotFvSt10shared_ptrIS8_EEPSA_St12_PlaceholderILi1EEEES7_NS0_12SubscriptionIS8_S7_S8_S8_NS0_23message_memory_strategy21MessageMemoryStrategyIS8_S7_EEEESN_NS0_4NodeESP_S8_EESB_IT2_ERT4_RT5_RKNSt7__cxx1112basic_stringIcSt11char_traitsIcESaIcEEERKNS0_3QoSEOT0_RKNS0_32SubscriptionOptionsWithAllocatorIT1_EENT3_9SharedPtrEEUlvE_LPv0EEEEE9constructIS1I_JRKNSt6chrono8durationIlSt5ratioILl1ELl1000000000EEEES1G_SB_INS0_7ContextEEEEEvRS1J_PT_DpOT0_
FNDA:0,_ZNSt16allocator_traitsISaIN6rclcpp9WallTimerIZNS0_6detail19create_subscriptionIN8nav_msgs3msg9Odometry_ISaIvEEESt5_BindIFM12InspectorBotFvSt10shared_ptrIS8_EEPSA_St12_PlaceholderILi1EEEES7_NS0_12SubscriptionIS8_S7_S8_S8_NS0_23message_memory_strategy21MessageMemoryStrategyIS8_S7_EEEESN_NS0_4NodeESP_S8_EESB_IT2_ERT4_RT5_RKNSt7__cxx1112basic_stringIcSt11char_traitsIcESaIcEEERKNS0_3QoSEOT0_RKNS0_32SubscriptionOptionsWithAllocatorIT1_EENT3_9SharedPtrEEUlvE_LPv0EEEEE9constructIS1I_JRKNSt6chrono8durationIlSt5ratioILl1ELl1000000000EEEES1G_SB_INS0_7ContextEEEEEvRS1J_PT_DpOT0_
FN:511,_ZNSt16allocator_traitsISaISt19_Sp_counted_deleterIPN8nav_msgs3msg9Odometry_ISaIvEEESt14default_deleteIS5_ES4_LN9__gnu_cxx12_Lock_policyE2EEEE9constructISB_JS6_S8_EEEvRSC_PT_DpOT0_
FNDA:0,_ZNSt16allocator_traitsISaISt19_Sp_counted_deleterIPN8nav_msgs3msg9Odometry_ISaIvEEESt14default_deleteIS5_ES4_LN9__gnu_cxx12_Lock_policyE2EEEE9constructISB_JS6_S8_EEEvRSC_PT_DpOT0_
FN:511,_ZNSt16allocator_traitsISaI36rmw_offered_deadline_missed_status_sEE9constructIS0_JRS0_EEEvRS1_PT_DpOT0_
FNDA:0,_ZNSt16allocator_traitsISaI36rmw_offered_deadline_missed_status_sEE9constructIS0_JRS0_EEEvRS1_PT_DpOT0_
FN:511,_ZNSt16allocator_traitsISaI28rmw_liveliness_lost_status_sEE9constructIS0_JRS0_EEEvRS1_PT_DpOT0_
FNDA:0,_ZNSt16allocator_traitsISaI28rmw_liveliness_lost_status_sEE9constructIS0_JRS0_EEEvRS1_PT_DpOT0_
FN:511,_ZNSt16allocator_traitsISaIN13geometry_msgs3msg6Twist_ISaIvEEEEE9constructIS4_JRKS4_EEEvRS5_PT_DpOT0_
FNDA:0,_ZNSt16allocator_traitsISaIN13geometry_msgs3msg6Twist_ISaIvEEEEE9constructIS4_JRKS4_EEEvRS5_PT_DpOT0_
FN:511,_ZNSt16allocator_traitsISaISt19_Sp_counted_deleterIPN15statistics_msgs3msg15MetricsMessage_ISaIvEEESt14default_deleteIS5_ES4_LN9__gnu_cxx12_Lock_policyE2EEEE9constructISB_JS6_S8_EEEvRSC_PT_DpOT0_
FNDA:0,_ZNSt16allocator_traitsISaISt19_Sp_counted_deleterIPN15statistics_msgs3msg15MetricsMessage_ISaIvEEESt14default_deleteIS5_ES4_LN9__gnu_cxx12_Lock_policyE2EEEE9constructISB_JS6_S8_EEEvRSC_PT_DpOT0_
FN:511,_ZNSt16allocator_traitsISaISaIvEEE9constructIS0_JEEEvRS1_PT_DpOT0_
FNDA:0,_ZNSt16allocator_traitsISaISaIvEEE9constructIS0_JEEEvRS1_PT_DpOT0_
FN:511,_ZNSt16allocator_traitsISaIN6rclcpp12SubscriptionIN8nav_msgs3msg9Odometry_ISaIvEEES5_S6_S6_NS0_23message_memory_strategy21MessageMemoryStrategyIS6_S5_EEEEEE9constructISA_JRPNS0_15node_interfaces17NodeBaseInterfaceERK29rosidl_message_type_support_tRKNSt7__cxx1112basic_stringIcSt11char_traitsIcESaIcEEERKNS0_3QoSERKNS0_23AnySubscriptionCallbackIS6_S5_EERKNS0_32SubscriptionOptionsWithAllocatorIS5_EERKSt10shared_ptrIS9_ERKS14_INS0_16topic_statistics27SubscriptionTopicStatisticsIS6_EEEEEEvRSB_PT_DpOT0_
FNDA:0,_ZNSt16allocator_traitsISaIN6rclcpp12SubscriptionIN8nav_msgs3msg9Odometry_ISaIvEEES5_S6_S6_NS0_23message_memory_strategy21MessageMemoryStrategyIS6_S5_EEEEEE9constructISA_JRPNS0_15node_interfaces17NodeBaseInterfaceERK29rosidl_message_type_support_tRKNSt7__cxx1112basic_stringIcSt11char_traitsIcESaIcEEERKNS0_3QoSERKNS0_23AnySubscriptionCallbackIS6_S5_EERKNS0_32SubscriptionOptionsWithAllocatorIS5_EERKSt10shared_ptrIS9_ERKS14_INS0_16topic_statistics27SubscriptionTopicStatisticsIS6_EEEEEEvRSB_PT_DpOT0_
FN:511,_ZNSt16allocator_traitsISaIN15statistics_msgs3msg15MetricsMessage_ISaIvEEEEE9constructIS4_JS4_EEEvRS5_PT_DpOT0_
FNDA:0,_ZNSt16allocator_traitsISaIN15statistics_msgs3msg15MetricsMessage_ISaIvEEEEE9constructIS4_JS4_EEEvRS5_PT_DpOT0_
FN:511,_ZNSt16allocator_traitsISaIN6rclcpp9PublisherIN15statistics_msgs3msg15MetricsMessage_ISaIvEEES5_EEEE9constructIS7_JRPNS0_15node_interfaces17NodeBaseInterfaceERKNSt7__cxx1112basic_stringIcSt11char_traitsIcESaIcEEERKNS0_3QoSERKNS0_29PublisherOptionsWithAllocatorIS5_EEEEEvRS8_PT_DpOT0_
FNDA:0,_ZNSt16allocator_traitsISaIN6rclcpp9PublisherIN15statistics_msgs3msg15MetricsMessage_ISaIvEEES5_EEEE9constructIS7_JRPNS0_15node_interfaces17NodeBaseInterfaceERKNSt7__cxx1112basic_stringIcSt11char_traitsIcESaIcEEERKNS0_3QoSERKNS0_29PublisherOptionsWithAllocatorIS5_EEEEEvRS8_PT_DpOT0_
FN:511,_ZNSt16allocator_traitsISaISt4pairISt10shared_ptrIKN8nav_msgs3msg9Odometry_ISaIvEEEESt10unique_ptrIS6_St14default_deleteIS6_EEEEE9constructISD_JSD_EEEvRSE_PT_DpOT0_
FNDA:0,_ZNSt16allocator_traitsISaISt4pairISt10shared_ptrIKN8nav_msgs3msg9Odometry_ISaIvEEEESt10unique_ptrIS6_St14default_deleteIS6_EEEEE9constructISD_JSD_EEEvRSE_PT_DpOT0_
FN:511,_ZNSt16allocator_traitsISaIN8nav_msgs3msg9Odometry_ISaIvEEEEE9constructIS4_JRKS4_EEEvRS5_PT_DpOT0_
FNDA:0,_ZNSt16allocator_traitsISaIN8nav_msgs3msg9Odometry_ISaIvEEEEE9constructIS4_JRKS4_EEEvRS5_PT_DpOT0_
FN:511,_ZNSt16allocator_traitsISaI38rmw_requested_deadline_missed_status_sEE9constructIS0_JRS0_EEEvRS1_PT_DpOT0_
FNDA:0,_ZNSt16allocator_traitsISaI38rmw_requested_deadline_missed_status_sEE9constructIS0_JRS0_EEEvRS1_PT_DpOT0_
FN:511,_ZNSt16allocator_traitsISaIN6rclcpp9PublisherIN13geometry_msgs3msg6Twist_ISaIvEEES5_EEEE9constructIS7_JRPNS0_15node_interfaces17NodeBaseInterfaceERKNSt7__cxx1112basic_stringIcSt11char_traitsIcESaIcEEERKNS0_3QoSERKNS0_29PublisherOptionsWithAllocatorIS5_EEEEEvRS8_PT_DpOT0_
FNDA:0,_ZNSt16allocator_traitsISaIN6rclcpp9PublisherIN13geometry_msgs3msg6Twist_ISaIvEEES5_EEEE9constructIS7_JRPNS0_15node_interfaces17NodeBaseInterfaceERKNSt7__cxx1112basic_stringIcSt11char_traitsIcESaIcEEERKNS0_3QoSERKNS0_29PublisherOptionsWithAllocatorIS5_EEEEEvRS8_PT_DpOT0_
FN:511,_ZNSt16allocator_traitsISaIN6rclcpp23message_memory_strategy21MessageMemoryStrategyIN8nav_msgs3msg9Odometry_ISaIvEEES6_EEEE9constructIS8_JSt10shared_ptrIS6_EEEEvRS9_PT_DpOT0_
FNDA:0,_ZNSt16allocator_traitsISaIN6rclcpp23message_memory_strategy21MessageMemoryStrategyIN8nav_msgs3msg9Odometry_ISaIvEEES6_EEEE9constructIS8_JSt10shared_ptrIS6_EEEEvRS9_PT_DpOT0_
FN:511,_ZNSt16allocator_traitsISaIN6rclcpp12experimental24SubscriptionIntraProcessIN8nav_msgs3msg9Odometry_ISaIvEEES7_SaIS7_ESt14default_deleteIS7_ES7_S6_EEEE9constructISB_JRNS0_23AnySubscriptionCallbackIS7_S6_EESt10shared_ptrIS6_ERSI_INS0_7ContextEEPKcRNS0_3QoSENS0_22IntraProcessBufferTypeEEEEvRSC_PT_DpOT0_
FNDA:0,_ZNSt16allocator_traitsISaIN6rclcpp12experimental24SubscriptionIntraProcessIN8nav_msgs3msg9Odometry_ISaIvEEES7_SaIS7_ESt14default_deleteIS7_ES7_S6_EEEE9constructISB_JRNS0_23AnySubscriptionCallbackIS7_S6_EESt10shared_ptrIS6_ERSI_INS0_7ContextEEPKcRNS0_3QoSENS0_22IntraProcessBufferTypeEEEEvRSC_PT_DpOT0_
FN:511,_ZNSt16allocator_traitsISaIN6rclcpp17SerializedMessageEEE9constructIS1_JRKS1_EEEvRS2_PT_DpOT0_
FNDA:0,_ZNSt16allocator_traitsISaIN6rclcpp17SerializedMessageEEE9constructIS1_JRKS1_EEEvRS2_PT_DpOT0_
FN:511,_ZNSt16allocator_traitsISaIN6rclcpp4NodeEEE9constructIS1_JRA12_KcEEEvRS2_PT_DpOT0_
FNDA:0,_ZNSt16allocator_traitsISaIN6rclcpp4NodeEEE9constructIS1_JRA12_KcEEEvRS2_PT_DpOT0_
FN:511,_ZNSt16allocator_traitsISaIN6rclcpp16topic_statistics27SubscriptionTopicStatisticsIN8nav_msgs3msg9Odometry_ISaIvEEEEEEE9constructIS8_JPKcRSt10shared_ptrINS0_9PublisherIN15statistics_msgs3msg15MetricsMessage_IS6_EES6_EEEEEEvRS9_PT_DpOT0_
FNDA:0,_ZNSt16allocator_traitsISaIN6rclcpp16topic_statistics27SubscriptionTopicStatisticsIN8nav_msgs3msg9Odometry_ISaIvEEEEEEE9constructIS8_JPKcRSt10shared_ptrINS0_9PublisherIN15statistics_msgs3msg15MetricsMessage_IS6_EES6_EEEEEEvRS9_PT_DpOT0_
FN:511,_ZNSt16allocator_traitsISaIN15statistics_msgs3msg15MetricsMessage_ISaIvEEEEE9constructIS4_JRS4_EEEvRS5_PT_DpOT0_
FNDA:0,_ZNSt16allocator_traitsISaIN15statistics_msgs3msg15MetricsMessage_ISaIvEEEEE9constructIS4_JRS4_EEEvRS5_PT_DpOT0_
FN:511,_ZNSt16allocator_traitsISaIN8nav_msgs3msg9Odometry_ISaIvEEEEE9constructIS4_JEEEvRS5_PT_DpOT0_
FNDA:0,_ZNSt16allocator_traitsISaIN8nav_msgs3msg9Odometry_ISaIvEEEEE9constructIS4_JEEEvRS5_PT_DpOT0_
FN:511,_ZNSt16allocator_traitsISaIN13geometry_msgs3msg6Twist_ISaIvEEEEE9constructIS4_JRS4_EEEvRS5_PT_DpOT0_
FNDA:0,_ZNSt16allocator_traitsISaIN13geometry_msgs3msg6Twist_ISaIvEEEEE9constructIS4_JRS4_EEEvRS5_PT_DpOT0_
FN:511,_ZNSt16allocator_traitsISaIN13geometry_msgs3msg12PoseStamped_ISaIvEEEEE9constructIS4_JRS4_EEEvRS5_PT_DpOT0_
FNDA:0,_ZNSt16allocator_traitsISaIN13geometry_msgs3msg12PoseStamped_ISaIvEEEEE9constructIS4_JRS4_EEEvRS5_PT_DpOT0_
FN:511,_ZNSt16allocator_traitsISaIN15statistics_msgs3msg15MetricsMessage_ISaIvEEEEE9constructIS4_JRKS4_EEEvRS5_PT_DpOT0_
FNDA:0,_ZNSt16allocator_traitsISaIN15statistics_msgs3msg15MetricsMessage_ISaIvEEEEE9constructIS4_JRKS4_EEEvRS5_PT_DpOT0_
FN:511,_ZNSt16allocator_traitsISaIN6rclcpp4NodeEEE9constructIS1_JRA10_KcEEEvRS2_PT_DpOT0_
FNDA:0,_ZNSt16allocator_traitsISaIN6rclcpp4NodeEEE9constructIS1_JRA10_KcEEEvRS2_PT_DpOT0_
FN:511,_ZNSt16allocator_traitsISaI31rmw_liveliness_changed_status_sEE9constructIS0_JRS0_EEEvRS1_PT_DpOT0_
FNDA:0,_ZNSt16allocator_traitsISaI31rmw_liveliness_changed_status_sEE9constructIS0_JRS0_EEEvRS1_PT_DpOT0_
FN:511,_ZNSt16allocator_traitsISaISt19_Sp_counted_deleterIPN13geometry_msgs3msg6Twist_ISaIvEEESt14default_deleteIS5_ES4_LN9__gnu_cxx12_Lock_policyE2EEEE9constructISB_JS6_S8_EEEvRSC_PT_DpOT0_
FNDA:0,_ZNSt16allocator_traitsISaISt19_Sp_counted_deleterIPN13geometry_msgs3msg6Twist_ISaIvEEESt14default_deleteIS5_ES4_LN9__gnu_cxx12_Lock_policyE2EEEE9constructISB_JS6_S8_EEEvRSC_PT_DpOT0_
FN:511,_ZNSt16allocator_traitsISaIN6rclcpp4NodeEEE9constructIS1_JRA16_KcEEEvRS2_PT_DpOT0_
FNDA:0,_ZNSt16allocator_traitsISaIN6rclcpp4NodeEEE9constructIS1_JRA16_KcEEEvRS2_PT_DpOT0_
FN:511,_ZNSt16allocator_traitsISaIN6rclcpp9PublisherIN13geometry_msgs3msg12PoseStamped_ISaIvEEES5_EEEE9constructIS7_JRPNS0_15node_interfaces17NodeBaseInterfaceERKNSt7__cxx1112basic_stringIcSt11char_traitsIcESaIcEEERKNS0_3QoSERKNS0_29PublisherOptionsWithAllocatorIS5_EEEEEvRS8_PT_DpOT0_
FNDA:0,_ZNSt16allocator_traitsISaIN6rclcpp9PublisherIN13geometry_msgs3msg12PoseStamped_ISaIvEEES5_EEEE9constructIS7_JRPNS0_15node_interfaces17NodeBaseInterfaceERKNSt7__cxx1112basic_stringIcSt11char_traitsIcESaIcEEERKNS0_3QoSERKNS0_29PublisherOptionsWithAllocatorIS5_EEEEEvRS8_PT_DpOT0_
FN:511,_ZNSt16allocator_traitsISaI25rmw_message_lost_status_sEE9constructIS0_JRS0_EEEvRS1_PT_DpOT0_
FNDA:0,_ZNSt16allocator_traitsISaI25rmw_message_lost_status_sEE9constructIS0_JRS0_EEEvRS1_PT_DpOT0_
FN:511,_ZNSt16allocator_traitsISaINSt8__detail10_Hash_nodeISt4pairIKSt10type_indexSt10shared_ptrIvEELb0EEEEE9constructIS7_JRKSt21piecewise_construct_tSt5tupleIJRS4_EESF_IJEEEEEvRS9_PT_DpOT0_
FNDA:0,_ZNSt16allocator_traitsISaINSt8__detail10_Hash_nodeISt4pairIKSt10type_indexSt10shared_ptrIvEELb0EEEEE9constructIS7_JRKSt21piecewise_construct_tSt5tupleIJRS4_EESF_IJEEEEEvRS9_PT_DpOT0_
FN:511,_ZNSt16allocator_traitsISaISt19_Sp_counted_deleterIPN13geometry_msgs3msg12PoseStamped_ISaIvEEESt14default_deleteIS5_ES4_LN9__gnu_cxx12_Lock_policyE2EEEE9constructISB_JS6_S8_EEEvRSC_PT_DpOT0_
FNDA:0,_ZNSt16allocator_traitsISaISt19_Sp_counted_deleterIPN13geometry_msgs3msg12PoseStamped_ISaIvEEESt14default_deleteIS5_ES4_LN9__gnu_cxx12_Lock_policyE2EEEE9constructISB_JS6_S8_EEEvRSC_PT_DpOT0_
FN:511,_ZNSt16allocator_traitsISaI35rmw_qos_incompatible_event_status_sEE9constructIS0_JRS0_EEEvRS1_PT_DpOT0_
FNDA:0,_ZNSt16allocator_traitsISaI35rmw_qos_incompatible_event_status_sEE9constructIS0_JRS0_EEEvRS1_PT_DpOT0_
FN:511,_ZNSt16allocator_traitsISaISt19_Sp_counted_deleterIPN6rclcpp17SerializedMessageESt14default_deleteIS2_ESaIvELN9__gnu_cxx12_Lock_policyE2EEEE9constructIS9_JS3_S5_EEEvRSA_PT_DpOT0_
FNDA:0,_ZNSt16allocator_traitsISaISt19_Sp_counted_deleterIPN6rclcpp17SerializedMessageESt14default_deleteIS2_ESaIvELN9__gnu_cxx12_Lock_policyE2EEEE9constructIS9_JS3_S5_EEEvRSA_PT_DpOT0_
FN:511,_ZNSt16allocator_traitsISaIN6rclcpp15QOSEventHandlerIZNS0_9PublisherIN15statistics_msgs3msg15MetricsMessage_ISaIvEEES6_EC4EPNS0_15node_interfaces17NodeBaseInterfaceERKNSt7__cxx1112basic_stringIcSt11char_traitsIcESaIcEEERKNS0_3QoSERKNS0_29PublisherOptionsWithAllocatorIS6_EEEUlR35rmw_qos_incompatible_event_status_sE_St10shared_ptrI15rcl_publisher_sEEEEE9constructISX_JRKST_RFiP11rcl_event_sPKSV_26rcl_publisher_event_type_eERSW_RKS17_EEEvRSY_PT_DpOT0_
FNDA:0,_ZNSt16allocator_traitsISaIN6rclcpp15QOSEventHandlerIZNS0_9PublisherIN15statistics_msgs3msg15MetricsMessage_ISaIvEEES6_EC4EPNS0_15node_interfaces17NodeBaseInterfaceERKNSt7__cxx1112basic_stringIcSt11char_traitsIcESaIcEEERKNS0_3QoSERKNS0_29PublisherOptionsWithAllocatorIS6_EEEUlR35rmw_qos_incompatible_event_status_sE_St10shared_ptrI15rcl_publisher_sEEEEE9constructISX_JRKST_RFiP11rcl_event_sPKSV_26rcl_publisher_event_type_eERSW_RKS17_EEEvRSY_PT_DpOT0_
FN:511,_ZNSt16allocator_traitsISaIN6rclcpp15QOSEventHandlerISt8functionIFvR25rmw_message_lost_status_sEESt10shared_ptrI18rcl_subscription_sEEEEE9constructISA_JRKS6_RFiP11rcl_event_sPKS8_29rcl_subscription_event_type_eES9_RKSK_EEEvRSB_PT_DpOT0_
FNDA:0,_ZNSt16allocator_traitsISaIN6rclcpp15QOSEventHandlerISt8functionIFvR25rmw_message_lost_status_sEESt10shared_ptrI18rcl_subscription_sEEEEE9constructISA_JRKS6_RFiP11rcl_event_sPKS8_29rcl_subscription_event_type_eES9_RKSK_EEEvRSB_PT_DpOT0_
FN:511,_ZNSt16allocator_traitsISaIN6rclcpp15QOSEventHandlerISt8functionIFvR36rmw_offered_deadline_missed_status_sEESt10shared_ptrI15rcl_publisher_sEEEEE9constructISA_JRKS6_RFiP11rcl_event_sPKS8_26rcl_publisher_event_type_eERS9_RKSK_EEEvRSB_PT_DpOT0_
FNDA:0,_ZNSt16allocator_traitsISaIN6rclcpp15QOSEventHandlerISt8functionIFvR36rmw_offered_deadline_missed_status_sEESt10shared_ptrI15rcl_publisher_sEEEEE9constructISA_JRKS6_RFiP11rcl_event_sPKS8_26rcl_publisher_event_type_eERS9_RKSK_EEEvRSB_PT_DpOT0_
FN:511,_ZNSt16allocator_traitsISaIN6rclcpp15QOSEventHandlerIZNS0_12SubscriptionIN8nav_msgs3msg9Odometry_ISaIvEEES6_S7_S7_NS0_23message_memory_strategy21MessageMemoryStrategyIS7_S6_EEEC4EPNS0_15node_interfaces17NodeBaseInterfaceERK29rosidl_message_type_support_tRKNSt7__cxx1112basic_stringIcSt11char_traitsIcESaIcEEERKNS0_3QoSENS0_23AnySubscriptionCallbackIS7_S6_EERKNS0_32SubscriptionOptionsWithAllocatorIS6_EESt10shared_ptrISA_ESZ_INS0_16topic_statistics27SubscriptionTopicStatisticsIS7_EEEEUlR35rmw_qos_incompatible_event_status_sE_SZ_I18rcl_subscription_sEEEEE9constructIS1A_JRKS17_RFiP11rcl_event_sPKS18_29rcl_subscription_event_type_eES19_RKS1K_EEEvRS1B_PT_DpOT0_
FNDA:0,_ZNSt16allocator_traitsISaIN6rclcpp15QOSEventHandlerIZNS0_12SubscriptionIN8nav_msgs3msg9Odometry_ISaIvEEES6_S7_S7_NS0_23message_memory_strategy21MessageMemoryStrategyIS7_S6_EEEC4EPNS0_15node_interfaces17NodeBaseInterfaceERK29rosidl_message_type_support_tRKNSt7__cxx1112basic_stringIcSt11char_traitsIcESaIcEEERKNS0_3QoSENS0_23AnySubscriptionCallbackIS7_S6_EERKNS0_32SubscriptionOptionsWithAllocatorIS6_EESt10shared_ptrISA_ESZ_INS0_16topic_statistics27SubscriptionTopicStatisticsIS7_EEEEUlR35rmw_qos_incompatible_event_status_sE_SZ_I18rcl_subscription_sEEEEE9constructIS1A_JRKS17_RFiP11rcl_event_sPKS18_29rcl_subscription_event_type_eES19_RKS1K_EEEvRS1B_PT_DpOT0_
FN:511,_ZNSt16allocator_traitsISaIN6rclcpp15QOSEventHandlerISt8functionIFvR28rmw_liveliness_lost_status_sEESt10shared_ptrI15rcl_publisher_sEEEEE9constructISA_JRKS6_RFiP11rcl_event_sPKS8_26rcl_publisher_event_type_eERS9_RKSK_EEEvRSB_PT_DpOT0_
FNDA:0,_ZNSt16allocator_traitsISaIN6rclcpp15QOSEventHandlerISt8functionIFvR28rmw_liveliness_lost_status_sEESt10shared_ptrI15rcl_publisher_sEEEEE9constructISA_JRKS6_RFiP11rcl_event_sPKS8_26rcl_publisher_event_type_eERS9_RKSK_EEEvRSB_PT_DpOT0_
FN:511,_ZNSt16allocator_traitsISaIN6rclcpp15QOSEventHandlerISt8functionIFvR35rmw_qos_incompatible_event_status_sEESt10shared_ptrI18rcl_subscription_sEEEEE9constructISA_JRKS6_RFiP11rcl_event_sPKS8_29rcl_subscription_event_type_eES9_RKSK_EEEvRSB_PT_DpOT0_
FNDA:0,_ZNSt16allocator_traitsISaIN6rclcpp15QOSEventHandlerISt8functionIFvR35rmw_qos_incompatible_event_status_sEESt10shared_ptrI18rcl_subscription_sEEEEE9constructISA_JRKS6_RFiP11rcl_event_sPKS8_29rcl_subscription_event_type_eES9_RKSK_EEEvRSB_PT_DpOT0_
FN:511,_ZNSt16allocator_traitsISaIN6rclcpp15QOSEventHandlerISt8functionIFvR35rmw_qos_incompatible_event_status_sEESt10shared_ptrI15rcl_publisher_sEEEEE9constructISA_JRKS6_RFiP11rcl_event_sPKS8_26rcl_publisher_event_type_eERS9_RKSK_EEEvRSB_PT_DpOT0_
FNDA:0,_ZNSt16allocator_traitsISaIN6rclcpp15QOSEventHandlerISt8functionIFvR35rmw_qos_incompatible_event_status_sEESt10shared_ptrI15rcl_publisher_sEEEEE9constructISA_JRKS6_RFiP11rcl_event_sPKS8_26rcl_publisher_event_type_eERS9_RKSK_EEEvRSB_PT_DpOT0_
FN:511,_ZNSt16allocator_traitsISaIN6rclcpp15QOSEventHandlerISt8functionIFvR31rmw_liveliness_changed_status_sEESt10shared_ptrI18rcl_subscription_sEEEEE9constructISA_JRKS6_RFiP11rcl_event_sPKS8_29rcl_subscription_event_type_eES9_RKSK_EEEvRSB_PT_DpOT0_
FNDA:0,_ZNSt16allocator_traitsISaIN6rclcpp15QOSEventHandlerISt8functionIFvR31rmw_liveliness_changed_status_sEESt10shared_ptrI18rcl_subscription_sEEEEE9constructISA_JRKS6_RFiP11rcl_event_sPKS8_29rcl_subscription_event_type_eES9_RKSK_EEEvRSB_PT_DpOT0_
FN:511,_ZNSt16allocator_traitsISaIN6rclcpp15QOSEventHandlerIZNS0_9PublisherIN13geometry_msgs3msg12PoseStamped_ISaIvEEES6_EC4EPNS0_15node_interfaces17NodeBaseInterfaceERKNSt7__cxx1112basic_stringIcSt11char_traitsIcESaIcEEERKNS0_3QoSERKNS0_29PublisherOptionsWithAllocatorIS6_EEEUlR35rmw_qos_incompatible_event_status_sE_St10shared_ptrI15rcl_publisher_sEEEEE9constructISX_JRKST_RFiP11rcl_event_sPKSV_26rcl_publisher_event_type_eERSW_RKS17_EEEvRSY_PT_DpOT0_
FNDA:0,_ZNSt16allocator_traitsISaIN6rclcpp15QOSEventHandlerIZNS0_9PublisherIN13geometry_msgs3msg12PoseStamped_ISaIvEEES6_EC4EPNS0_15node_interfaces17NodeBaseInterfaceERKNSt7__cxx1112basic_stringIcSt11char_traitsIcESaIcEEERKNS0_3QoSERKNS0_29PublisherOptionsWithAllocatorIS6_EEEUlR35rmw_qos_incompatible_event_status_sE_St10shared_ptrI15rcl_publisher_sEEEEE9constructISX_JRKST_RFiP11rcl_event_sPKSV_26rcl_publisher_event_type_eERSW_RKS17_EEEvRSY_PT_DpOT0_
FN:511,_ZNSt16allocator_traitsISaINSt8__detail10_Hash_nodeISt4pairIK26rcl_publisher_event_type_eSt10shared_ptrIN6rclcpp19QOSEventHandlerBaseEEELb0EEEEE9constructIS9_JS2_IS3_S5_INS6_15QOSEventHandlerIZNS6_9PublisherIN15statistics_msgs3msg15MetricsMessage_ISaIvEEESJ_EC4EPNS6_15node_interfaces17NodeBaseInterfaceERKNSt7__cxx1112basic_stringIcSt11char_traitsIcESaIcEEERKNS6_3QoSERKNS6_29PublisherOptionsWithAllocatorISJ_EEEUlR35rmw_qos_incompatible_event_status_sE_S5_I15rcl_publisher_sEEEEEEEEvRSB_PT_DpOT0_
FNDA:0,_ZNSt16allocator_traitsISaINSt8__detail10_Hash_nodeISt4pairIK26rcl_publisher_event_type_eSt10shared_ptrIN6rclcpp19QOSEventHandlerBaseEEELb0EEEEE9constructIS9_JS2_IS3_S5_INS6_15QOSEventHandlerIZNS6_9PublisherIN15statistics_msgs3msg15MetricsMessage_ISaIvEEESJ_EC4EPNS6_15node_interfaces17NodeBaseInterfaceERKNSt7__cxx1112basic_stringIcSt11char_traitsIcESaIcEEERKNS6_3QoSERKNS6_29PublisherOptionsWithAllocatorISJ_EEEUlR35rmw_qos_incompatible_event_status_sE_S5_I15rcl_publisher_sEEEEEEEEvRSB_PT_DpOT0_
FN:511,_ZNSt16allocator_traitsISaISt10unique_ptrIN23libstatistics_collector26topic_statistics_collector24TopicStatisticsCollectorIN8nav_msgs3msg9Odometry_ISaIvEEEEESt14default_deleteIS9_EEEE9constructISC_JSC_EEEvRSD_PT_DpOT0_
FNDA:0,_ZNSt16allocator_traitsISaISt10unique_ptrIN23libstatistics_collector26topic_statistics_collector24TopicStatisticsCollectorIN8nav_msgs3msg9Odometry_ISaIvEEEEESt14default_deleteIS9_EEEE9constructISC_JSC_EEEvRSD_PT_DpOT0_
FN:511,_ZNSt16allocator_traitsISaIN6rclcpp15QOSEventHandlerISt8functionIFvR38rmw_requested_deadline_missed_status_sEESt10shared_ptrI18rcl_subscription_sEEEEE9constructISA_JRKS6_RFiP11rcl_event_sPKS8_29rcl_subscription_event_type_eES9_RKSK_EEEvRSB_PT_DpOT0_
FNDA:0,_ZNSt16allocator_traitsISaIN6rclcpp15QOSEventHandlerISt8functionIFvR38rmw_requested_deadline_missed_status_sEESt10shared_ptrI18rcl_subscription_sEEEEE9constructISA_JRKS6_RFiP11rcl_event_sPKS8_29rcl_subscription_event_type_eES9_RKSK_EEEvRSB_PT_DpOT0_
FN:511,_ZNSt16allocator_traitsISaIN6rclcpp5ClockEEE9constructIS1_J16rcl_clock_type_eEEEvRS2_PT_DpOT0_
FNDA:0,_ZNSt16allocator_traitsISaIN6rclcpp5ClockEEE9constructIS1_J16rcl_clock_type_eEEEvRS2_PT_DpOT0_
FN:511,_ZNSt16allocator_traitsISaIN6rclcpp17SerializedMessageEEE9constructIS1_JRmEEEvRS2_PT_DpOT0_
FNDA:0,_ZNSt16allocator_traitsISaIN6rclcpp17SerializedMessageEEE9constructIS1_JRmEEEvRS2_PT_DpOT0_
FN:511,_ZNSt16allocator_traitsISaINSt8__detail10_Hash_nodeISt4pairIKPN6rclcpp19QOSEventHandlerBaseESt6atomicIbEELb0EEEEE9constructIS9_JS2_IPNS3_15QOSEventHandlerISt8functionIFvR38rmw_requested_deadline_missed_status_sEESt10shared_ptrI18rcl_subscription_sEEEbEEEEvRSB_PT_DpOT0_
FNDA:0,_ZNSt16allocator_traitsISaINSt8__detail10_Hash_nodeISt4pairIKPN6rclcpp19QOSEventHandlerBaseESt6atomicIbEELb0EEEEE9constructIS9_JS2_IPNS3_15QOSEventHandlerISt8functionIFvR38rmw_requested_deadline_missed_status_sEESt10shared_ptrI18rcl_subscription_sEEEbEEEEvRSB_PT_DpOT0_
FN:511,_ZNSt16allocator_traitsISaINSt8__detail10_Hash_nodeISt4pairIK29rcl_subscription_event_type_eSt10shared_ptrIN6rclcpp19QOSEventHandlerBaseEEELb0EEEEE9constructIS9_JS2_IS3_S5_INS6_15QOSEventHandlerISt8functionIFvR38rmw_requested_deadline_missed_status_sEES5_I18rcl_subscription_sEEEEEEEEvRSB_PT_DpOT0_
FNDA:0,_ZNSt16allocator_traitsISaINSt8__detail10_Hash_nodeISt4pairIK29rcl_subscription_event_type_eSt10shared_ptrIN6rclcpp19QOSEventHandlerBaseEEELb0EEEEE9constructIS9_JS2_IS3_S5_INS6_15QOSEventHandlerISt8functionIFvR38rmw_requested_deadline_missed_status_sEES5_I18rcl_subscription_sEEEEEEEEvRSB_PT_DpOT0_
FN:511,_ZNSt16allocator_traitsISaINSt8__detail10_Hash_nodeISt4pairIKPN6rclcpp19QOSEventHandlerBaseESt6atomicIbEELb0EEEEE9constructIS9_JS2_IPNS3_15QOSEventHandlerISt8functionIFvR31rmw_liveliness_changed_status_sEESt10shared_ptrI18rcl_subscription_sEEEbEEEEvRSB_PT_DpOT0_
FNDA:0,_ZNSt16allocator_traitsISaINSt8__detail10_Hash_nodeISt4pairIKPN6rclcpp19QOSEventHandlerBaseESt6atomicIbEELb0EEEEE9constructIS9_JS2_IPNS3_15QOSEventHandlerISt8functionIFvR31rmw_liveliness_changed_status_sEESt10shared_ptrI18rcl_subscription_sEEEbEEEEvRSB_PT_DpOT0_
FN:511,_ZNSt16allocator_traitsISaINSt8__detail10_Hash_nodeISt4pairIK29rcl_subscription_event_type_eSt10shared_ptrIN6rclcpp19QOSEventHandlerBaseEEELb0EEEEE9constructIS9_JS2_IS3_S5_INS6_15QOSEventHandlerISt8functionIFvR31rmw_liveliness_changed_status_sEES5_I18rcl_subscription_sEEEEEEEEvRSB_PT_DpOT0_
FNDA:0,_ZNSt16allocator_traitsISaINSt8__detail10_Hash_nodeISt4pairIK29rcl_subscription_event_type_eSt10shared_ptrIN6rclcpp19QOSEventHandlerBaseEEELb0EEEEE9constructIS9_JS2_IS3_S5_INS6_15QOSEventHandlerISt8functionIFvR31rmw_liveliness_changed_status_sEES5_I18rcl_subscription_sEEEEEEEEvRSB_PT_DpOT0_
FN:511,_ZNSt16allocator_traitsISaINSt8__detail10_Hash_nodeISt4pairIKPN6rclcpp19QOSEventHandlerBaseESt6atomicIbEELb0EEEEE9constructIS9_JS2_IPNS3_15QOSEventHandlerISt8functionIFvR35rmw_qos_incompatible_event_status_sEESt10shared_ptrI18rcl_subscription_sEEEbEEEEvRSB_PT_DpOT0_
FNDA:0,_ZNSt16allocator_traitsISaINSt8__detail10_Hash_nodeISt4pairIKPN6rclcpp19QOSEventHandlerBaseESt6atomicIbEELb0EEEEE9constructIS9_JS2_IPNS3_15QOSEventHandlerISt8functionIFvR35rmw_qos_incompatible_event_status_sEESt10shared_ptrI18rcl_subscription_sEEEbEEEEvRSB_PT_DpOT0_
FN:511,_ZNSt16allocator_traitsISaINSt8__detail10_Hash_nodeISt4pairIK29rcl_subscription_event_type_eSt10shared_ptrIN6rclcpp19QOSEventHandlerBaseEEELb0EEEEE9constructIS9_JS2_IS3_S5_INS6_15QOSEventHandlerISt8functionIFvR35rmw_qos_incompatible_event_status_sEES5_I18rcl_subscription_sEEEEEEEEvRSB_PT_DpOT0_
FNDA:0,_ZNSt16allocator_traitsISaINSt8__detail10_Hash_nodeISt4pairIK29rcl_subscription_event_type_eSt10shared_ptrIN6rclcpp19QOSEventHandlerBaseEEELb0EEEEE9constructIS9_JS2_IS3_S5_INS6_15QOSEventHandlerISt8functionIFvR35rmw_qos_incompatible_event_status_sEES5_I18rcl_subscription_sEEEEEEEEvRSB_PT_DpOT0_
FN:511,_ZNSt16allocator_traitsISaINSt8__detail10_Hash_nodeISt4pairIKPN6rclcpp19QOSEventHandlerBaseESt6atomicIbEELb0EEEEE9constructIS9_JS2_IPNS3_15QOSEventHandlerIZNS3_12SubscriptionIN8nav_msgs3msg9Odometry_ISaIvEEESJ_SK_SK_NS3_23message_memory_strategy21MessageMemoryStrategyISK_SJ_EEEC4EPNS3_15node_interfaces17NodeBaseInterfaceERK29rosidl_message_type_support_tRKNSt7__cxx1112basic_stringIcSt11char_traitsIcESaIcEEERKNS3_3QoSENS3_23AnySubscriptionCallbackISK_SJ_EERKNS3_32SubscriptionOptionsWithAllocatorISJ_EESt10shared_ptrISN_ES1C_INS3_16topic_statistics27SubscriptionTopicStatisticsISK_EEEEUlR35rmw_qos_incompatible_event_status_sE_S1C_I18rcl_subscription_sEEEbEEEEvRSB_PT_DpOT0_
FNDA:0,_ZNSt16allocator_traitsISaINSt8__detail10_Hash_nodeISt4pairIKPN6rclcpp19QOSEventHandlerBaseESt6atomicIbEELb0EEEEE9constructIS9_JS2_IPNS3_15QOSEventHandlerIZNS3_12SubscriptionIN8nav_msgs3msg9Odometry_ISaIvEEESJ_SK_SK_NS3_23message_memory_strategy21MessageMemoryStrategyISK_SJ_EEEC4EPNS3_15node_interfaces17NodeBaseInterfaceERK29rosidl_message_type_support_tRKNSt7__cxx1112basic_stringIcSt11char_traitsIcESaIcEEERKNS3_3QoSENS3_23AnySubscriptionCallbackISK_SJ_EERKNS3_32SubscriptionOptionsWithAllocatorISJ_EESt10shared_ptrISN_ES1C_INS3_16topic_statistics27SubscriptionTopicStatisticsISK_EEEEUlR35rmw_qos_incompatible_event_status_sE_S1C_I18rcl_subscription_sEEEbEEEEvRSB_PT_DpOT0_
FN:511,_ZNSt16allocator_traitsISaINSt8__detail10_Hash_nodeISt4pairIK29rcl_subscription_event_type_eSt10shared_ptrIN6rclcpp19QOSEventHandlerBaseEEELb0EEEEE9constructIS9_JS2_IS3_S5_INS6_15QOSEventHandlerIZNS6_12SubscriptionIN8nav_msgs3msg9Odometry_ISaIvEEESJ_SK_SK_NS6_23message_memory_strategy21MessageMemoryStrategyISK_SJ_EEEC4EPNS6_15node_interfaces17NodeBaseInterfaceERK29rosidl_message_type_support_tRKNSt7__cxx1112basic_stringIcSt11char_traitsIcESaIcEEERKNS6_3QoSENS6_23AnySubscriptionCallbackISK_SJ_EERKNS6_32SubscriptionOptionsWithAllocatorISJ_EES5_ISN_ES5_INS6_16topic_statistics27SubscriptionTopicStatisticsISK_EEEEUlR35rmw_qos_incompatible_event_status_sE_S5_I18rcl_subscription_sEEEEEEEEvRSB_PT_DpOT0_
FNDA:0,_ZNSt16allocator_traitsISaINSt8__detail10_Hash_nodeISt4pairIK29rcl_subscription_event_type_eSt10shared_ptrIN6rclcpp19QOSEventHandlerBaseEEELb0EEEEE9constructIS9_JS2_IS3_S5_INS6_15QOSEventHandlerIZNS6_12SubscriptionIN8nav_msgs3msg9Odometry_ISaIvEEESJ_SK_SK_NS6_23message_memory_strategy21MessageMemoryStrategyISK_SJ_EEEC4EPNS6_15node_interfaces17NodeBaseInterfaceERK29rosidl_message_type_support_tRKNSt7__cxx1112basic_stringIcSt11char_traitsIcESaIcEEERKNS6_3QoSENS6_23AnySubscriptionCallbackISK_SJ_EERKNS6_32SubscriptionOptionsWithAllocatorISJ_EES5_ISN_ES5_INS6_16topic_statistics27SubscriptionTopicStatisticsISK_EEEEUlR35rmw_qos_incompatible_event_status_sE_S5_I18rcl_subscription_sEEEEEEEEvRSB_PT_DpOT0_
FN:511,_ZNSt16allocator_traitsISaINSt8__detail10_Hash_nodeISt4pairIKPN6rclcpp19QOSEventHandlerBaseESt6atomicIbEELb0EEEEE9constructIS9_JS2_IPNS3_15QOSEventHandlerISt8functionIFvR25rmw_message_lost_status_sEESt10shared_ptrI18rcl_subscription_sEEEbEEEEvRSB_PT_DpOT0_
FNDA:0,_ZNSt16allocator_traitsISaINSt8__detail10_Hash_nodeISt4pairIKPN6rclcpp19QOSEventHandlerBaseESt6atomicIbEELb0EEEEE9constructIS9_JS2_IPNS3_15QOSEventHandlerISt8functionIFvR25rmw_message_lost_status_sEESt10shared_ptrI18rcl_subscription_sEEEbEEEEvRSB_PT_DpOT0_
FN:511,_ZNSt16allocator_traitsISaINSt8__detail10_Hash_nodeISt4pairIK29rcl_subscription_event_type_eSt10shared_ptrIN6rclcpp19QOSEventHandlerBaseEEELb0EEEEE9constructIS9_JS2_IS3_S5_INS6_15QOSEventHandlerISt8functionIFvR25rmw_message_lost_status_sEES5_I18rcl_subscription_sEEEEEEEEvRSB_PT_DpOT0_
FNDA:0,_ZNSt16allocator_traitsISaINSt8__detail10_Hash_nodeISt4pairIK29rcl_subscription_event_type_eSt10shared_ptrIN6rclcpp19QOSEventHandlerBaseEEELb0EEEEE9constructIS9_JS2_IS3_S5_INS6_15QOSEventHandlerISt8functionIFvR25rmw_message_lost_status_sEES5_I18rcl_subscription_sEEEEEEEEvRSB_PT_DpOT0_
FN:511,_ZNSt16allocator_traitsISaIN6rclcpp15QOSEventHandlerIZNS0_9PublisherIN13geometry_msgs3msg6Twist_ISaIvEEES6_EC4EPNS0_15node_interfaces17NodeBaseInterfaceERKNSt7__cxx1112basic_stringIcSt11char_traitsIcESaIcEEERKNS0_3QoSERKNS0_29PublisherOptionsWithAllocatorIS6_EEEUlR35rmw_qos_incompatible_event_status_sE_St10shared_ptrI15rcl_publisher_sEEEEE9constructISX_JRKST_RFiP11rcl_event_sPKSV_26rcl_publisher_event_type_eERSW_RKS17_EEEvRSY_PT_DpOT0_
FNDA:0,_ZNSt16allocator_traitsISaIN6rclcpp15QOSEventHandlerIZNS0_9PublisherIN13geometry_msgs3msg6Twist_ISaIvEEES6_EC4EPNS0_15node_interfaces17NodeBaseInterfaceERKNSt7__cxx1112basic_stringIcSt11char_traitsIcESaIcEEERKNS0_3QoSERKNS0_29PublisherOptionsWithAllocatorIS6_EEEUlR35rmw_qos_incompatible_event_status_sE_St10shared_ptrI15rcl_publisher_sEEEEE9constructISX_JRKST_RFiP11rcl_event_sPKSV_26rcl_publisher_event_type_eERSW_RKS17_EEEvRSY_PT_DpOT0_
FN:511,_ZNSt16allocator_traitsISaINSt8__detail10_Hash_nodeISt4pairIK26rcl_publisher_event_type_eSt10shared_ptrIN6rclcpp19QOSEventHandlerBaseEEELb0EEEEE9constructIS9_JS2_IS3_S5_INS6_15QOSEventHandlerIZNS6_9PublisherIN13geometry_msgs3msg12PoseStamped_ISaIvEEESJ_EC4EPNS6_15node_interfaces17NodeBaseInterfaceERKNSt7__cxx1112basic_stringIcSt11char_traitsIcESaIcEEERKNS6_3QoSERKNS6_29PublisherOptionsWithAllocatorISJ_EEEUlR35rmw_qos_incompatible_event_status_sE_S5_I15rcl_publisher_sEEEEEEEEvRSB_PT_DpOT0_
FNDA:0,_ZNSt16allocator_traitsISaINSt8__detail10_Hash_nodeISt4pairIK26rcl_publisher_event_type_eSt10shared_ptrIN6rclcpp19QOSEventHandlerBaseEEELb0EEEEE9constructIS9_JS2_IS3_S5_INS6_15QOSEventHandlerIZNS6_9PublisherIN13geometry_msgs3msg12PoseStamped_ISaIvEEESJ_EC4EPNS6_15node_interfaces17NodeBaseInterfaceERKNSt7__cxx1112basic_stringIcSt11char_traitsIcESaIcEEERKNS6_3QoSERKNS6_29PublisherOptionsWithAllocatorISJ_EEEUlR35rmw_qos_incompatible_event_status_sE_S5_I15rcl_publisher_sEEEEEEEEvRSB_PT_DpOT0_
FN:511,_ZNSt16allocator_traitsISaIN13geometry_msgs3msg12PoseStamped_ISaIvEEEEE9constructIS4_JRKS4_EEEvRS5_PT_DpOT0_
FNDA:0,_ZNSt16allocator_traitsISaIN13geometry_msgs3msg12PoseStamped_ISaIvEEEEE9constructIS4_JRKS4_EEEvRS5_PT_DpOT0_
FN:511,_ZNSt16allocator_traitsISaISt10unique_ptrIN23libstatistics_collector26topic_statistics_collector24TopicStatisticsCollectorIN8nav_msgs3msg9Odometry_ISaIvEEEEESt14default_deleteIS9_EEEE9constructISC_JS0_INS2_27ReceivedMessageAgeCollectorIS8_EESA_ISH_EEEEEvRSD_PT_DpOT0_
FNDA:0,_ZNSt16allocator_traitsISaISt10unique_ptrIN23libstatistics_collector26topic_statistics_collector24TopicStatisticsCollectorIN8nav_msgs3msg9Odometry_ISaIvEEEEESt14default_deleteIS9_EEEE9constructISC_JS0_INS2_27ReceivedMessageAgeCollectorIS8_EESA_ISH_EEEEEvRSD_PT_DpOT0_
FN:511,_ZNSt16allocator_traitsISaISt10unique_ptrIN23libstatistics_collector26topic_statistics_collector24TopicStatisticsCollectorIN8nav_msgs3msg9Odometry_ISaIvEEEEESt14default_deleteIS9_EEEE9constructISC_JS0_INS2_30ReceivedMessagePeriodCollectorIS8_EESA_ISH_EEEEEvRSD_PT_DpOT0_
FNDA:0,_ZNSt16allocator_traitsISaISt10unique_ptrIN23libstatistics_collector26topic_statistics_collector24TopicStatisticsCollectorIN8nav_msgs3msg9Odometry_ISaIvEEEEESt14default_deleteIS9_EEEE9constructISC_JS0_INS2_30ReceivedMessagePeriodCollectorIS8_EESA_ISH_EEEEEvRSD_PT_DpOT0_
FN:511,_ZNSt16allocator_traitsISaISaIN8nav_msgs3msg9Odometry_ISaIvEEEEEE9constructIS5_JEEEvRS6_PT_DpOT0_
FNDA:0,_ZNSt16allocator_traitsISaISaIN8nav_msgs3msg9Odometry_ISaIvEEEEEE9constructIS5_JEEEvRS6_PT_DpOT0_
FN:511,_ZNSt16allocator_traitsISaISaIN8nav_msgs3msg9Odometry_ISaIvEEEEEE9constructIS5_JRS3_EEEvRS6_PT_DpOT0_
FNDA:0,_ZNSt16allocator_traitsISaISaIN8nav_msgs3msg9Odometry_ISaIvEEEEEE9constructIS5_JRS3_EEEvRS6_PT_DpOT0_
FN:511,_ZNSt16allocator_traitsISaISaIN6rclcpp17SerializedMessageEEEE9constructIS2_JRSaIvEEEEvRS3_PT_DpOT0_
FNDA:0,_ZNSt16allocator_traitsISaISaIN6rclcpp17SerializedMessageEEEE9constructIS2_JRSaIvEEEEvRS3_PT_DpOT0_
FN:511,_ZNSt16allocator_traitsISaISaIN8nav_msgs3msg9Odometry_ISaIvEEEEEE9constructIS5_JRS5_EEEvRS6_PT_DpOT0_
FNDA:0,_ZNSt16allocator_traitsISaISaIN8nav_msgs3msg9Odometry_ISaIvEEEEEE9constructIS5_JRS5_EEEvRS6_PT_DpOT0_
FN:511,_ZNSt16allocator_traitsISaISaIcEEE9constructIS0_JRSaIvEEEEvRS1_PT_DpOT0_
FNDA:0,_ZNSt16allocator_traitsISaISaIcEEE9constructIS0_JRSaIvEEEEvRS1_PT_DpOT0_
FN:511,_ZNSt16allocator_traitsISaINSt8__detail10_Hash_nodeISt4pairIK26rcl_publisher_event_type_eSt10shared_ptrIN6rclcpp19QOSEventHandlerBaseEEELb0EEEEE9constructIS9_JS2_IS3_S5_INS6_15QOSEventHandlerIZNS6_9PublisherIN13geometry_msgs3msg6Twist_ISaIvEEESJ_EC4EPNS6_15node_interfaces17NodeBaseInterfaceERKNSt7__cxx1112basic_stringIcSt11char_traitsIcESaIcEEERKNS6_3QoSERKNS6_29PublisherOptionsWithAllocatorISJ_EEEUlR35rmw_qos_incompatible_event_status_sE_S5_I15rcl_publisher_sEEEEEEEEvRSB_PT_DpOT0_
FNDA:0,_ZNSt16allocator_traitsISaINSt8__detail10_Hash_nodeISt4pairIK26rcl_publisher_event_type_eSt10shared_ptrIN6rclcpp19QOSEventHandlerBaseEEELb0EEEEE9constructIS9_JS2_IS3_S5_INS6_15QOSEventHandlerIZNS6_9PublisherIN13geometry_msgs3msg6Twist_ISaIvEEESJ_EC4EPNS6_15node_interfaces17NodeBaseInterfaceERKNSt7__cxx1112basic_stringIcSt11char_traitsIcESaIcEEERKNS6_3QoSERKNS6_29PublisherOptionsWithAllocatorISJ_EEEUlR35rmw_qos_incompatible_event_status_sE_S5_I15rcl_publisher_sEEEEEEEEvRSB_PT_DpOT0_
FN:511,_ZNSt16allocator_traitsISaINSt8__detail10_Hash_nodeISt4pairIK26rcl_publisher_event_type_eSt10shared_ptrIN6rclcpp19QOSEventHandlerBaseEEELb0EEEEE9constructIS9_JS2_IS3_S5_INS6_15QOSEventHandlerISt8functionIFvR35rmw_qos_incompatible_event_status_sEES5_I15rcl_publisher_sEEEEEEEEvRSB_PT_DpOT0_
FNDA:0,_ZNSt16allocator_traitsISaINSt8__detail10_Hash_nodeISt4pairIK26rcl_publisher_event_type_eSt10shared_ptrIN6rclcpp19QOSEventHandlerBaseEEELb0EEEEE9constructIS9_JS2_IS3_S5_INS6_15QOSEventHandlerISt8functionIFvR35rmw_qos_incompatible_event_status_sEES5_I15rcl_publisher_sEEEEEEEEvRSB_PT_DpOT0_
FN:511,_ZNSt16allocator_traitsISaINSt8__detail10_Hash_nodeISt4pairIK26rcl_publisher_event_type_eSt10shared_ptrIN6rclcpp19QOSEventHandlerBaseEEELb0EEEEE9constructIS9_JS2_IS3_S5_INS6_15QOSEventHandlerISt8functionIFvR28rmw_liveliness_lost_status_sEES5_I15rcl_publisher_sEEEEEEEEvRSB_PT_DpOT0_
FNDA:0,_ZNSt16allocator_traitsISaINSt8__detail10_Hash_nodeISt4pairIK26rcl_publisher_event_type_eSt10shared_ptrIN6rclcpp19QOSEventHandlerBaseEEELb0EEEEE9constructIS9_JS2_IS3_S5_INS6_15QOSEventHandlerISt8functionIFvR28rmw_liveliness_lost_status_sEES5_I15rcl_publisher_sEEEEEEEEvRSB_PT_DpOT0_
FN:511,_ZNSt16allocator_traitsISaINSt8__detail10_Hash_nodeISt4pairIK26rcl_publisher_event_type_eSt10shared_ptrIN6rclcpp19QOSEventHandlerBaseEEELb0EEEEE9constructIS9_JS2_IS3_S5_INS6_15QOSEventHandlerISt8functionIFvR36rmw_offered_deadline_missed_status_sEES5_I15rcl_publisher_sEEEEEEEEvRSB_PT_DpOT0_
FNDA:0,_ZNSt16allocator_traitsISaINSt8__detail10_Hash_nodeISt4pairIK26rcl_publisher_event_type_eSt10shared_ptrIN6rclcpp19QOSEventHandlerBaseEEELb0EEEEE9constructIS9_JS2_IS3_S5_INS6_15QOSEventHandlerISt8functionIFvR36rmw_offered_deadline_missed_status_sEES5_I15rcl_publisher_sEEEEEEEEvRSB_PT_DpOT0_
FN:531,_ZNSt16allocator_traitsISaIN8nav_msgs3msg9Odometry_ISaIvEEEEE7destroyIS4_EEvRS5_PT_
FNDA:0,_ZNSt16allocator_traitsISaIN8nav_msgs3msg9Odometry_ISaIvEEEEE7destroyIS4_EEvRS5_PT_
FN:531,_ZNSt16allocator_traitsISaIN6rclcpp9PublisherIN15statistics_msgs3msg15MetricsMessage_ISaIvEEES5_EEEE7destroyIS7_EEvRS8_PT_
FNDA:0,_ZNSt16allocator_traitsISaIN6rclcpp9PublisherIN15statistics_msgs3msg15MetricsMessage_ISaIvEEES5_EEEE7destroyIS7_EEvRS8_PT_
FN:531,_ZNSt16allocator_traitsISaIN6rclcpp17SerializedMessageEEE7destroyIS1_EEvRS2_PT_
FNDA:0,_ZNSt16allocator_traitsISaIN6rclcpp17SerializedMessageEEE7destroyIS1_EEvRS2_PT_
FN:531,_ZNSt16allocator_traitsISaI36rmw_offered_deadline_missed_status_sEE7destroyIS0_EEvRS1_PT_
FNDA:0,_ZNSt16allocator_traitsISaI36rmw_offered_deadline_missed_status_sEE7destroyIS0_EEvRS1_PT_
FN:531,_ZNSt16allocator_traitsISaI28rmw_liveliness_lost_status_sEE7destroyIS0_EEvRS1_PT_
FNDA:0,_ZNSt16allocator_traitsISaI28rmw_liveliness_lost_status_sEE7destroyIS0_EEvRS1_PT_
FN:531,_ZNSt16allocator_traitsISaI35rmw_qos_incompatible_event_status_sEE7destroyIS0_EEvRS1_PT_
FNDA:0,_ZNSt16allocator_traitsISaI35rmw_qos_incompatible_event_status_sEE7destroyIS0_EEvRS1_PT_
FN:531,_ZNSt16allocator_traitsISaISt4pairISt10shared_ptrIKN8nav_msgs3msg9Odometry_ISaIvEEEESt10unique_ptrIS6_St14default_deleteIS6_EEEEE7destroyISD_EEvRSE_PT_
FNDA:0,_ZNSt16allocator_traitsISaISt4pairISt10shared_ptrIKN8nav_msgs3msg9Odometry_ISaIvEEEESt10unique_ptrIS6_St14default_deleteIS6_EEEEE7destroyISD_EEvRSE_PT_
FN:531,_ZNSt16allocator_traitsISaINSt8__detail10_Hash_nodeISt4pairIK29rcl_subscription_event_type_eSt10shared_ptrIN6rclcpp19QOSEventHandlerBaseEEELb0EEEEE7destroyIS9_EEvRSB_PT_
FNDA:0,_ZNSt16allocator_traitsISaINSt8__detail10_Hash_nodeISt4pairIK29rcl_subscription_event_type_eSt10shared_ptrIN6rclcpp19QOSEventHandlerBaseEEELb0EEEEE7destroyIS9_EEvRSB_PT_
FN:531,_ZNSt16allocator_traitsISaI38rmw_requested_deadline_missed_status_sEE7destroyIS0_EEvRS1_PT_
FNDA:0,_ZNSt16allocator_traitsISaI38rmw_requested_deadline_missed_status_sEE7destroyIS0_EEvRS1_PT_
FN:531,_ZNSt16allocator_traitsISaI25rmw_message_lost_status_sEE7destroyIS0_EEvRS1_PT_
FNDA:0,_ZNSt16allocator_traitsISaI25rmw_message_lost_status_sEE7destroyIS0_EEvRS1_PT_
FN:531,_ZNSt16allocator_traitsISaIN15statistics_msgs3msg15MetricsMessage_ISaIvEEEEE7destroyIS4_EEvRS5_PT_
FNDA:0,_ZNSt16allocator_traitsISaIN15statistics_msgs3msg15MetricsMessage_ISaIvEEEEE7destroyIS4_EEvRS5_PT_
FN:531,_ZNSt16allocator_traitsISaINSt8__detail10_Hash_nodeISt4pairIK26rcl_publisher_event_type_eSt10shared_ptrIN6rclcpp19QOSEventHandlerBaseEEELb0EEEEE7destroyIS9_EEvRSB_PT_
FNDA:0,_ZNSt16allocator_traitsISaINSt8__detail10_Hash_nodeISt4pairIK26rcl_publisher_event_type_eSt10shared_ptrIN6rclcpp19QOSEventHandlerBaseEEELb0EEEEE7destroyIS9_EEvRSB_PT_
FN:531,_ZNSt16allocator_traitsISaI31rmw_liveliness_changed_status_sEE7destroyIS0_EEvRS1_PT_
FNDA:0,_ZNSt16allocator_traitsISaI31rmw_liveliness_changed_status_sEE7destroyIS0_EEvRS1_PT_
FN:531,_ZNSt16allocator_traitsISaIN6rclcpp15QOSEventHandlerIZNS0_9PublisherIN13geometry_msgs3msg6Twist_ISaIvEEES6_EC4EPNS0_15node_interfaces17NodeBaseInterfaceERKNSt7__cxx1112basic_stringIcSt11char_traitsIcESaIcEEERKNS0_3QoSERKNS0_29PublisherOptionsWithAllocatorIS6_EEEUlR35rmw_qos_incompatible_event_status_sE_St10shared_ptrI15rcl_publisher_sEEEEE7destroyISX_EEvRSY_PT_
FNDA:0,_ZNSt16allocator_traitsISaIN6rclcpp15QOSEventHandlerIZNS0_9PublisherIN13geometry_msgs3msg6Twist_ISaIvEEES6_EC4EPNS0_15node_interfaces17NodeBaseInterfaceERKNSt7__cxx1112basic_stringIcSt11char_traitsIcESaIcEEERKNS0_3QoSERKNS0_29PublisherOptionsWithAllocatorIS6_EEEUlR35rmw_qos_incompatible_event_status_sE_St10shared_ptrI15rcl_publisher_sEEEEE7destroyISX_EEvRSY_PT_
FN:531,_ZNSt16allocator_traitsISaISaIN6rclcpp17SerializedMessageEEEE7destroyIS2_EEvRS3_PT_
FNDA:0,_ZNSt16allocator_traitsISaISaIN6rclcpp17SerializedMessageEEEE7destroyIS2_EEvRS3_PT_
FN:531,_ZNSt16allocator_traitsISaISaIcEEE7destroyIS0_EEvRS1_PT_
FNDA:0,_ZNSt16allocator_traitsISaISaIcEEE7destroyIS0_EEvRS1_PT_
FN:531,_ZNSt16allocator_traitsISaIN6rclcpp15QOSEventHandlerISt8functionIFvR36rmw_offered_deadline_missed_status_sEESt10shared_ptrI15rcl_publisher_sEEEEE7destroyISA_EEvRSB_PT_
FNDA:0,_ZNSt16allocator_traitsISaIN6rclcpp15QOSEventHandlerISt8functionIFvR36rmw_offered_deadline_missed_status_sEESt10shared_ptrI15rcl_publisher_sEEEEE7destroyISA_EEvRSB_PT_
FN:531,_ZNSt16allocator_traitsISaIN6rclcpp15QOSEventHandlerISt8functionIFvR28rmw_liveliness_lost_status_sEESt10shared_ptrI15rcl_publisher_sEEEEE7destroyISA_EEvRSB_PT_
FNDA:0,_ZNSt16allocator_traitsISaIN6rclcpp15QOSEventHandlerISt8functionIFvR28rmw_liveliness_lost_status_sEESt10shared_ptrI15rcl_publisher_sEEEEE7destroyISA_EEvRSB_PT_
FN:531,_ZNSt16allocator_traitsISaIN6rclcpp15QOSEventHandlerISt8functionIFvR35rmw_qos_incompatible_event_status_sEESt10shared_ptrI15rcl_publisher_sEEEEE7destroyISA_EEvRSB_PT_
FNDA:0,_ZNSt16allocator_traitsISaIN6rclcpp15QOSEventHandlerISt8functionIFvR35rmw_qos_incompatible_event_status_sEESt10shared_ptrI15rcl_publisher_sEEEEE7destroyISA_EEvRSB_PT_
FN:531,_ZNSt16allocator_traitsISaIN6rclcpp15QOSEventHandlerIZNS0_9PublisherIN13geometry_msgs3msg12PoseStamped_ISaIvEEES6_EC4EPNS0_15node_interfaces17NodeBaseInterfaceERKNSt7__cxx1112basic_stringIcSt11char_traitsIcESaIcEEERKNS0_3QoSERKNS0_29PublisherOptionsWithAllocatorIS6_EEEUlR35rmw_qos_incompatible_event_status_sE_St10shared_ptrI15rcl_publisher_sEEEEE7destroyISX_EEvRSY_PT_
FNDA:0,_ZNSt16allocator_traitsISaIN6rclcpp15QOSEventHandlerIZNS0_9PublisherIN13geometry_msgs3msg12PoseStamped_ISaIvEEES6_EC4EPNS0_15node_interfaces17NodeBaseInterfaceERKNSt7__cxx1112basic_stringIcSt11char_traitsIcESaIcEEERKNS0_3QoSERKNS0_29PublisherOptionsWithAllocatorIS6_EEEUlR35rmw_qos_incompatible_event_status_sE_St10shared_ptrI15rcl_publisher_sEEEEE7destroyISX_EEvRSY_PT_
FN:531,_ZNSt16allocator_traitsISaIN6rclcpp5ClockEEE7destroyIS1_EEvRS2_PT_
FNDA:0,_ZNSt16allocator_traitsISaIN6rclcpp5ClockEEE7destroyIS1_EEvRS2_PT_
FN:531,_ZNSt16allocator_traitsISaIN6rclcpp12experimental24SubscriptionIntraProcessIN8nav_msgs3msg9Odometry_ISaIvEEES7_SaIS7_ESt14default_deleteIS7_ES7_S6_EEEE7destroyISB_EEvRSC_PT_
FNDA:0,_ZNSt16allocator_traitsISaIN6rclcpp12experimental24SubscriptionIntraProcessIN8nav_msgs3msg9Odometry_ISaIvEEES7_SaIS7_ESt14default_deleteIS7_ES7_S6_EEEE7destroyISB_EEvRSC_PT_
FN:531,_ZNSt16allocator_traitsISaIN6rclcpp4NodeEEE7destroyIS1_EEvRS2_PT_
FNDA:0,_ZNSt16allocator_traitsISaIN6rclcpp4NodeEEE7destroyIS1_EEvRS2_PT_
FN:531,_ZNSt16allocator_traitsISaIN6rclcpp15QOSEventHandlerIZNS0_9PublisherIN15statistics_msgs3msg15MetricsMessage_ISaIvEEES6_EC4EPNS0_15node_interfaces17NodeBaseInterfaceERKNSt7__cxx1112basic_stringIcSt11char_traitsIcESaIcEEERKNS0_3QoSERKNS0_29PublisherOptionsWithAllocatorIS6_EEEUlR35rmw_qos_incompatible_event_status_sE_St10shared_ptrI15rcl_publisher_sEEEEE7destroyISX_EEvRSY_PT_
FNDA:0,_ZNSt16allocator_traitsISaIN6rclcpp15QOSEventHandlerIZNS0_9PublisherIN15statistics_msgs3msg15MetricsMessage_ISaIvEEES6_EC4EPNS0_15node_interfaces17NodeBaseInterfaceERKNSt7__cxx1112basic_stringIcSt11char_traitsIcESaIcEEERKNS0_3QoSERKNS0_29PublisherOptionsWithAllocatorIS6_EEEUlR35rmw_qos_incompatible_event_status_sE_St10shared_ptrI15rcl_publisher_sEEEEE7destroyISX_EEvRSY_PT_
FN:531,_ZNSt16allocator_traitsISaIN6rclcpp15QOSEventHandlerISt8functionIFvR38rmw_requested_deadline_missed_status_sEESt10shared_ptrI18rcl_subscription_sEEEEE7destroyISA_EEvRSB_PT_
FNDA:0,_ZNSt16allocator_traitsISaIN6rclcpp15QOSEventHandlerISt8functionIFvR38rmw_requested_deadline_missed_status_sEESt10shared_ptrI18rcl_subscription_sEEEEE7destroyISA_EEvRSB_PT_
FN:531,_ZNSt16allocator_traitsISaIN6rclcpp15QOSEventHandlerISt8functionIFvR31rmw_liveliness_changed_status_sEESt10shared_ptrI18rcl_subscription_sEEEEE7destroyISA_EEvRSB_PT_
FNDA:0,_ZNSt16allocator_traitsISaIN6rclcpp15QOSEventHandlerISt8functionIFvR31rmw_liveliness_changed_status_sEESt10shared_ptrI18rcl_subscription_sEEEEE7destroyISA_EEvRSB_PT_
FN:531,_ZNSt16allocator_traitsISaIN6rclcpp15QOSEventHandlerISt8functionIFvR35rmw_qos_incompatible_event_status_sEESt10shared_ptrI18rcl_subscription_sEEEEE7destroyISA_EEvRSB_PT_
FNDA:0,_ZNSt16allocator_traitsISaIN6rclcpp15QOSEventHandlerISt8functionIFvR35rmw_qos_incompatible_event_status_sEESt10shared_ptrI18rcl_subscription_sEEEEE7destroyISA_EEvRSB_PT_
FN:531,_ZNSt16allocator_traitsISaIN6rclcpp15QOSEventHandlerIZNS0_12SubscriptionIN8nav_msgs3msg9Odometry_ISaIvEEES6_S7_S7_NS0_23message_memory_strategy21MessageMemoryStrategyIS7_S6_EEEC4EPNS0_15node_interfaces17NodeBaseInterfaceERK29rosidl_message_type_support_tRKNSt7__cxx1112basic_stringIcSt11char_traitsIcESaIcEEERKNS0_3QoSENS0_23AnySubscriptionCallbackIS7_S6_EERKNS0_32SubscriptionOptionsWithAllocatorIS6_EESt10shared_ptrISA_ESZ_INS0_16topic_statistics27SubscriptionTopicStatisticsIS7_EEEEUlR35rmw_qos_incompatible_event_status_sE_SZ_I18rcl_subscription_sEEEEE7destroyIS1A_EEvRS1B_PT_
FNDA:0,_ZNSt16allocator_traitsISaIN6rclcpp15QOSEventHandlerIZNS0_12SubscriptionIN8nav_msgs3msg9Odometry_ISaIvEEES6_S7_S7_NS0_23message_memory_strategy21MessageMemoryStrategyIS7_S6_EEEC4EPNS0_15node_interfaces17NodeBaseInterfaceERK29rosidl_message_type_support_tRKNSt7__cxx1112basic_stringIcSt11char_traitsIcESaIcEEERKNS0_3QoSENS0_23AnySubscriptionCallbackIS7_S6_EERKNS0_32SubscriptionOptionsWithAllocatorIS6_EESt10shared_ptrISA_ESZ_INS0_16topic_statistics27SubscriptionTopicStatisticsIS7_EEEEUlR35rmw_qos_incompatible_event_status_sE_SZ_I18rcl_subscription_sEEEEE7destroyIS1A_EEvRS1B_PT_
FN:531,_ZNSt16allocator_traitsISaIN6rclcpp15QOSEventHandlerISt8functionIFvR25rmw_message_lost_status_sEESt10shared_ptrI18rcl_subscription_sEEEEE7destroyISA_EEvRSB_PT_
FNDA:0,_ZNSt16allocator_traitsISaIN6rclcpp15QOSEventHandlerISt8functionIFvR25rmw_message_lost_status_sEESt10shared_ptrI18rcl_subscription_sEEEEE7destroyISA_EEvRSB_PT_
FN:531,_ZNSt16allocator_traitsISaISt10unique_ptrIN23libstatistics_collector26topic_statistics_collector24TopicStatisticsCollectorIN8nav_msgs3msg9Odometry_ISaIvEEEEESt14default_deleteIS9_EEEE7destroyISC_EEvRSD_PT_
FNDA:0,_ZNSt16allocator_traitsISaISt10unique_ptrIN23libstatistics_collector26topic_statistics_collector24TopicStatisticsCollectorIN8nav_msgs3msg9Odometry_ISaIvEEEEESt14default_deleteIS9_EEEE7destroyISC_EEvRSD_PT_
FN:531,_ZNSt16allocator_traitsISaIN13geometry_msgs3msg6Twist_ISaIvEEEEE7destroyIS4_EEvRS5_PT_
FNDA:0,_ZNSt16allocator_traitsISaIN13geometry_msgs3msg6Twist_ISaIvEEEEE7destroyIS4_EEvRS5_PT_
FN:531,_ZNSt16allocator_traitsISaISaIvEEE7destroyIS0_EEvRS1_PT_
FNDA:0,_ZNSt16allocator_traitsISaISaIvEEE7destroyIS0_EEvRS1_PT_
FN:531,_ZNSt16allocator_traitsISaIN6rclcpp23message_memory_strategy21MessageMemoryStrategyIN8nav_msgs3msg9Odometry_ISaIvEEES6_EEEE7destroyIS8_EEvRS9_PT_
FNDA:0,_ZNSt16allocator_traitsISaIN6rclcpp23message_memory_strategy21MessageMemoryStrategyIN8nav_msgs3msg9Odometry_ISaIvEEES6_EEEE7destroyIS8_EEvRS9_PT_
FN:531,_ZNSt16allocator_traitsISaIN6rclcpp16topic_statistics27SubscriptionTopicStatisticsIN8nav_msgs3msg9Odometry_ISaIvEEEEEEE7destroyIS8_EEvRS9_PT_
FNDA:0,_ZNSt16allocator_traitsISaIN6rclcpp16topic_statistics27SubscriptionTopicStatisticsIN8nav_msgs3msg9Odometry_ISaIvEEEEEEE7destroyIS8_EEvRS9_PT_
FN:531,_ZNSt16allocator_traitsISaIN13geometry_msgs3msg12PoseStamped_ISaIvEEEEE7destroyIS4_EEvRS5_PT_
FNDA:0,_ZNSt16allocator_traitsISaIN13geometry_msgs3msg12PoseStamped_ISaIvEEEEE7destroyIS4_EEvRS5_PT_
FN:531,_ZNSt16allocator_traitsISaIN6rclcpp9PublisherIN13geometry_msgs3msg12PoseStamped_ISaIvEEES5_EEEE7destroyIS7_EEvRS8_PT_
FNDA:0,_ZNSt16allocator_traitsISaIN6rclcpp9PublisherIN13geometry_msgs3msg12PoseStamped_ISaIvEEES5_EEEE7destroyIS7_EEvRS8_PT_
FN:531,_ZNSt16allocator_traitsISaINSt8__detail10_Hash_nodeISt4pairIKPN6rclcpp19QOSEventHandlerBaseESt6atomicIbEELb0EEEEE7destroyIS9_EEvRSB_PT_
FNDA:0,_ZNSt16allocator_traitsISaINSt8__detail10_Hash_nodeISt4pairIKPN6rclcpp19QOSEventHandlerBaseESt6atomicIbEELb0EEEEE7destroyIS9_EEvRSB_PT_
FN:531,_ZNSt16allocator_traitsISaIN6rclcpp9PublisherIN13geometry_msgs3msg6Twist_ISaIvEEES5_EEEE7destroyIS7_EEvRS8_PT_
FNDA:0,_ZNSt16allocator_traitsISaIN6rclcpp9PublisherIN13geometry_msgs3msg6Twist_ISaIvEEES5_EEEE7destroyIS7_EEvRS8_PT_
FN:531,_ZNSt16allocator_traitsISaINSt8__detail10_Hash_nodeISt4pairIKmSt8weak_ptrIN6rclcpp12experimental28SubscriptionIntraProcessBaseEEELb0EEEEE7destroyIS9_EEvRSB_PT_
FNDA:0,_ZNSt16allocator_traitsISaINSt8__detail10_Hash_nodeISt4pairIKmSt8weak_ptrIN6rclcpp12experimental28SubscriptionIntraProcessBaseEEELb0EEEEE7destroyIS9_EEvRSB_PT_
FN:531,_ZNSt16allocator_traitsISaIN6rclcpp9WallTimerIZNS0_6detail19create_subscriptionIN8nav_msgs3msg9Odometry_ISaIvEEESt5_BindIFM12InspectorBotFvSt10shared_ptrIS8_EEPSA_St12_PlaceholderILi1EEEES7_NS0_12SubscriptionIS8_S7_S8_S8_NS0_23message_memory_strategy21MessageMemoryStrategyIS8_S7_EEEESN_NS0_4NodeESP_S8_EESB_IT2_ERT4_RT5_RKNSt7__cxx1112basic_stringIcSt11char_traitsIcESaIcEEERKNS0_3QoSEOT0_RKNS0_32SubscriptionOptionsWithAllocatorIT1_EENT3_9SharedPtrEEUlvE_LPv0EEEEE7destroyIS1I_EEvRS1J_PT_
FNDA:0,_ZNSt16allocator_traitsISaIN6rclcpp9WallTimerIZNS0_6detail19create_subscriptionIN8nav_msgs3msg9Odometry_ISaIvEEESt5_BindIFM12InspectorBotFvSt10shared_ptrIS8_EEPSA_St12_PlaceholderILi1EEEES7_NS0_12SubscriptionIS8_S7_S8_S8_NS0_23message_memory_strategy21MessageMemoryStrategyIS8_S7_EEEESN_NS0_4NodeESP_S8_EESB_IT2_ERT4_RT5_RKNSt7__cxx1112basic_stringIcSt11char_traitsIcESaIcEEERKNS0_3QoSEOT0_RKNS0_32SubscriptionOptionsWithAllocatorIT1_EENT3_9SharedPtrEEUlvE_LPv0EEEEE7destroyIS1I_EEvRS1J_PT_
FN:531,_ZNSt16allocator_traitsISaIN6rclcpp12SubscriptionIN8nav_msgs3msg9Odometry_ISaIvEEES5_S6_S6_NS0_23message_memory_strategy21MessageMemoryStrategyIS6_S5_EEEEEE7destroyISA_EEvRSB_PT_
FNDA:0,_ZNSt16allocator_traitsISaIN6rclcpp12SubscriptionIN8nav_msgs3msg9Odometry_ISaIvEEES5_S6_S6_NS0_23message_memory_strategy21MessageMemoryStrategyIS6_S5_EEEEEE7destroyISA_EEvRSB_PT_
FN:531,_ZNSt16allocator_traitsISaISaIN8nav_msgs3msg9Odometry_ISaIvEEEEEE7destroyIS5_EEvRS6_PT_
FNDA:0,_ZNSt16allocator_traitsISaISaIN8nav_msgs3msg9Odometry_ISaIvEEEEEE7destroyIS5_EEvRS6_PT_
FN:531,_ZNSt16allocator_traitsISaINSt8__detail10_Hash_nodeISt4pairIKSt10type_indexSt10shared_ptrIvEELb0EEEEE7destroyIS7_EEvRS9_PT_
FNDA:0,_ZNSt16allocator_traitsISaINSt8__detail10_Hash_nodeISt4pairIKSt10type_indexSt10shared_ptrIvEELb0EEEEE7destroyIS7_EEvRS9_PT_
FN:547,_ZNSt16allocator_traitsISaISt10shared_ptrIKN8nav_msgs3msg9Odometry_ISaIvEEEEEE8max_sizeERKS8_
FNDA:0,_ZNSt16allocator_traitsISaISt10shared_ptrIKN8nav_msgs3msg9Odometry_ISaIvEEEEEE8max_sizeERKS8_
FN:547,_ZNSt16allocator_traitsISaISt10unique_ptrIN23libstatistics_collector26topic_statistics_collector24TopicStatisticsCollectorIN8nav_msgs3msg9Odometry_ISaIvEEEEESt14default_deleteIS9_EEEE8max_sizeERKSD_
FNDA:0,_ZNSt16allocator_traitsISaISt10unique_ptrIN23libstatistics_collector26topic_statistics_collector24TopicStatisticsCollectorIN8nav_msgs3msg9Odometry_ISaIvEEEEESt14default_deleteIS9_EEEE8max_sizeERKSD_
FN:547,_ZNSt16allocator_traitsISaIN15statistics_msgs3msg15MetricsMessage_ISaIvEEEEE8max_sizeERKS5_
FNDA:0,_ZNSt16allocator_traitsISaIN15statistics_msgs3msg15MetricsMessage_ISaIvEEEEE8max_sizeERKS5_
FN:547,_ZNSt16allocator_traitsISaISt10unique_ptrIN8nav_msgs3msg9Odometry_ISaIvEEESt14default_deleteIS5_EEEE8max_sizeERKS9_
FNDA:0,_ZNSt16allocator_traitsISaISt10unique_ptrIN8nav_msgs3msg9Odometry_ISaIvEEESt14default_deleteIS5_EEEE8max_sizeERKS9_
FN:547,_ZNSt16allocator_traitsISaImEE8max_sizeERKS0_
FNDA:0,_ZNSt16allocator_traitsISaImEE8max_sizeERKS0_
FN:562,_ZNSt16allocator_traitsISaIlEE37select_on_container_copy_constructionERKS0_
FNDA:0,_ZNSt16allocator_traitsISaIlEE37select_on_container_copy_constructionERKS0_
FN:562,_ZNSt16allocator_traitsISaImEE37select_on_container_copy_constructionERKS0_
FNDA:0,_ZNSt16allocator_traitsISaImEE37select_on_container_copy_constructionERKS0_
FN:562,_ZNSt16allocator_traitsISaIN14rcl_interfaces3msg19FloatingPointRange_ISaIvEEEEE37select_on_container_copy_constructionERKS5_
FNDA:0,_ZNSt16allocator_traitsISaIN14rcl_interfaces3msg19FloatingPointRange_ISaIvEEEEE37select_on_container_copy_constructionERKS5_
FN:562,_ZNSt16allocator_traitsISaIhEE37select_on_container_copy_constructionERKS0_
FNDA:0,_ZNSt16allocator_traitsISaIhEE37select_on_container_copy_constructionERKS0_
FN:562,_ZNSt16allocator_traitsISaIN15statistics_msgs3msg19StatisticDataPoint_ISaIvEEEEE37select_on_container_copy_constructionERKS5_
FNDA:0,_ZNSt16allocator_traitsISaIN15statistics_msgs3msg19StatisticDataPoint_ISaIvEEEEE37select_on_container_copy_constructionERKS5_
FN:562,_ZNSt16allocator_traitsISaIcEE37select_on_container_copy_constructionERKS0_
FNDA:0,_ZNSt16allocator_traitsISaIcEE37select_on_container_copy_constructionERKS0_
FN:562,_ZNSt16allocator_traitsISaINSt7__cxx1112basic_stringIcSt11char_traitsIcESaIcEEEEE37select_on_container_copy_constructionERKS6_
FNDA:2,_ZNSt16allocator_traitsISaINSt7__cxx1112basic_stringIcSt11char_traitsIcESaIcEEEEE37select_on_container_copy_constructionERKS6_
FN:562,_ZNSt16allocator_traitsISaIN14rcl_interfaces3msg13IntegerRange_ISaIvEEEEE37select_on_container_copy_constructionERKS5_
FNDA:0,_ZNSt16allocator_traitsISaIN14rcl_interfaces3msg13IntegerRange_ISaIvEEEEE37select_on_container_copy_constructionERKS5_
FN:562,_ZNSt16allocator_traitsISaIN6rclcpp13QosPolicyKindEEE37select_on_container_copy_constructionERKS2_
FNDA:0,_ZNSt16allocator_traitsISaIN6rclcpp13QosPolicyKindEEE37select_on_container_copy_constructionERKS2_
FN:562,_ZNSt16allocator_traitsISaIdEE37select_on_container_copy_constructionERKS0_
FNDA:0,_ZNSt16allocator_traitsISaIdEE37select_on_container_copy_constructionERKS0_
FN:845,_ZSt8_DestroyIPSt10shared_ptrIKN8nav_msgs3msg9Odometry_ISaIvEEEES7_EvT_S9_RSaIT0_E
FNDA:0,_ZSt8_DestroyIPSt10shared_ptrIKN8nav_msgs3msg9Odometry_ISaIvEEEES7_EvT_S9_RSaIT0_E
FN:845,_ZSt8_DestroyIPNSt7__cxx1112basic_stringIcSt11char_traitsIcESaIcEEES5_EvT_S7_RSaIT0_E
FNDA:17,_ZSt8_DestroyIPNSt7__cxx1112basic_stringIcSt11char_traitsIcESaIcEEES5_EvT_S7_RSaIT0_E
FN:845,_ZSt8_DestroyIPN15statistics_msgs3msg19StatisticDataPoint_ISaIvEEES4_EvT_S6_RSaIT0_E
FNDA:0,_ZSt8_DestroyIPN15statistics_msgs3msg19StatisticDataPoint_ISaIvEEES4_EvT_S6_RSaIT0_E
FN:845,_ZSt8_DestroyIPhhEvT_S1_RSaIT0_E
FNDA:0,_ZSt8_DestroyIPhhEvT_S1_RSaIT0_E
FN:845,_ZSt8_DestroyIPllEvT_S1_RSaIT0_E
FNDA:0,_ZSt8_DestroyIPllEvT_S1_RSaIT0_E
FN:845,_ZSt8_DestroyIPddEvT_S1_RSaIT0_E
FNDA:0,_ZSt8_DestroyIPddEvT_S1_RSaIT0_E
FN:845,_ZSt8_DestroyIPN6rclcpp13QosPolicyKindES1_EvT_S3_RSaIT0_E
FNDA:0,_ZSt8_DestroyIPN6rclcpp13QosPolicyKindES1_EvT_S3_RSaIT0_E
FN:845,_ZSt8_DestroyIPmmEvT_S1_RSaIT0_E
FNDA:0,_ZSt8_DestroyIPmmEvT_S1_RSaIT0_E
FN:845,_ZSt8_DestroyIPN15statistics_msgs3msg15MetricsMessage_ISaIvEEES4_EvT_S6_RSaIT0_E
FNDA:0,_ZSt8_DestroyIPN15statistics_msgs3msg15MetricsMessage_ISaIvEEES4_EvT_S6_RSaIT0_E
FN:845,_ZSt8_DestroyIPN6rclcpp9ParameterES1_EvT_S3_RSaIT0_E
FNDA:0,_ZSt8_DestroyIPN6rclcpp9ParameterES1_EvT_S3_RSaIT0_E
FN:845,_ZSt8_DestroyIPPKcS1_EvT_S3_RSaIT0_E
FNDA:0,_ZSt8_DestroyIPPKcS1_EvT_S3_RSaIT0_E
FN:845,_ZSt8_DestroyIPN14rcl_interfaces3msg19FloatingPointRange_ISaIvEEES4_EvT_S6_RSaIT0_E
FNDA:0,_ZSt8_DestroyIPN14rcl_interfaces3msg19FloatingPointRange_ISaIvEEES4_EvT_S6_RSaIT0_E
FN:845,_ZSt8_DestroyIPN14rcl_interfaces3msg13IntegerRange_ISaIvEEES4_EvT_S6_RSaIT0_E
FNDA:0,_ZSt8_DestroyIPN14rcl_interfaces3msg13IntegerRange_ISaIvEEES4_EvT_S6_RSaIT0_E
FN:845,_ZSt8_DestroyIPSt10unique_ptrIN23libstatistics_collector26topic_statistics_collector24TopicStatisticsCollectorIN8nav_msgs3msg9Odometry_ISaIvEEEEESt14default_deleteIS9_EESC_EvT_SE_RSaIT0_E
FNDA:0,_ZSt8_DestroyIPSt10unique_ptrIN23libstatistics_collector26topic_statistics_collector24TopicStatisticsCollectorIN8nav_msgs3msg9Odometry_ISaIvEEEEESt14default_deleteIS9_EESC_EvT_SE_RSaIT0_E
FN:845,_ZSt8_DestroyIPSt10unique_ptrIN8nav_msgs3msg9Odometry_ISaIvEEESt14default_deleteIS5_EES8_EvT_SA_RSaIT0_E
FNDA:0,_ZSt8_DestroyIPSt10unique_ptrIN8nav_msgs3msg9Odometry_ISaIvEEESt14default_deleteIS5_EES8_EvT_SA_RSaIT0_E
DA:463,0
DA:464,0
DA:463,0
DA:464,0
DA:463,0
DA:464,0
DA:463,0
DA:464,0
DA:463,0
DA:464,0
DA:463,0
DA:464,0
DA:463,0
DA:464,0
DA:463,0
DA:464,0
DA:463,0
DA:464,0
DA:463,0
DA:464,0
DA:463,0
DA:464,0
DA:463,0
DA:464,0
DA:463,0
DA:464,0
DA:463,0
DA:464,0
DA:463,0
DA:464,0
DA:463,0
DA:464,0
DA:463,0
DA:464,0
DA:463,0
DA:464,0
DA:463,0
DA:464,0
DA:463,0
DA:464,0
DA:463,0
DA:464,0
DA:463,0
DA:464,0
DA:463,12
DA:464,12
DA:463,0
DA:464,0
DA:463,0
DA:464,0
DA:463,0
DA:464,0
DA:463,0
DA:464,0
DA:463,0
DA:464,0
DA:463,0
DA:464,0
DA:463,0
DA:464,0
DA:463,0
DA:464,0
DA:463,0
DA:464,0
DA:463,0
DA:464,0
DA:463,0
DA:464,0
DA:463,0
DA:464,0
DA:463,0
DA:464,0
DA:463,0
DA:464,0
DA:463,0
DA:464,0
DA:463,0
DA:464,0
DA:463,0
DA:464,0
DA:463,0
DA:464,0
DA:463,0
DA:464,0
DA:463,0
DA:464,0
DA:463,0
DA:464,0
DA:463,0
DA:464,0
DA:463,0
DA:464,0
DA:463,0
DA:464,0
DA:463,0
DA:464,0
DA:463,0
DA:464,0
DA:463,0
DA:464,0
DA:463,0
DA:464,0
DA:463,0
DA:464,0
DA:463,0
DA:464,0
DA:463,0
DA:464,0
DA:463,0
DA:464,0
DA:463,0
DA:464,0
DA:463,0
DA:464,0
DA:463,0
DA:464,0
DA:463,0
DA:464,0
DA:463,0
DA:464,0
DA:463,0
DA:464,0
DA:463,0
DA:464,0
DA:463,0
DA:464,0
DA:463,0
DA:464,0
DA:463,0
DA:464,0
DA:463,0
DA:464,0
DA:463,0
DA:464,0
DA:495,0
DA:496,0
DA:495,0
DA:496,0
DA:495,0
DA:496,0
DA:495,0
DA:496,0
DA:495,0
DA:496,0
DA:495,0
DA:496,0
DA:495,0
DA:496,0
DA:495,0
DA:496,0
DA:495,0
DA:496,0
DA:495,0
DA:496,0
DA:495,0
DA:496,0
DA:495,0
DA:496,0
DA:495,0
DA:496,0
DA:495,0
DA:496,0
DA:495,0
DA:496,0
DA:495,0
DA:496,0
DA:495,0
DA:496,0
DA:495,0
DA:496,0
DA:495,0
DA:496,0
DA:495,0
DA:496,0
DA:495,0
DA:496,0
DA:495,0
DA:496,0
DA:495,0
DA:496,0
DA:495,0
DA:496,0
DA:495,0
DA:496,0
DA:495,0
DA:496,0
DA:495,0
DA:496,0
DA:495,0
DA:496,0
DA:495,0
DA:496,0
DA:495,0
DA:496,0
DA:495,12
DA:496,12
DA:495,0
DA:496,0
DA:495,0
DA:496,0
DA:495,0
DA:496,0
DA:495,0
DA:496,0
DA:495,0
DA:496,0
DA:495,0
DA:496,0
DA:495,0
DA:496,0
DA:495,0
DA:496,0
DA:495,0
DA:496,0
DA:495,0
DA:496,0
DA:495,0
DA:496,0
DA:495,0
DA:496,0
DA:495,0
DA:496,0
DA:495,0
DA:496,0
DA:495,0
DA:496,0
DA:495,0
DA:496,0
DA:495,0
DA:496,0
DA:495,0
DA:496,0
DA:495,0
DA:496,0
DA:495,0
DA:496,0
DA:495,0
DA:496,0
DA:495,0
DA:496,0
DA:495,0
DA:496,0
DA:495,0
DA:496,0
DA:495,0
DA:496,0
DA:495,0
DA:496,0
DA:495,0
DA:496,0
DA:495,0
DA:496,0
DA:495,0
DA:496,0
DA:495,0
DA:496,0
DA:495,0
DA:496,0
DA:495,0
DA:496,0
DA:495,0
DA:496,0
DA:495,0
DA:496,0
DA:495,0
DA:496,0
DA:511,0
DA:516,0
DA:520,0
DA:511,0
DA:516,0
DA:520,0
DA:511,0
DA:516,0
DA:520,0
DA:511,0
DA:516,0
DA:520,0
DA:511,0
DA:516,0
DA:520,0
DA:511,0
DA:516,0
DA:520,0
DA:511,0
DA:516,0
DA:520,0
DA:511,0
DA:516,0
DA:520,0
DA:511,0
DA:516,0
DA:520,0
DA:511,0
DA:516,0
DA:520,0
DA:511,0
DA:516,0
DA:520,0
DA:511,0
DA:516,0
DA:520,0
DA:511,0
DA:516,0
DA:520,0
DA:511,0
DA:516,0
DA:520,0
DA:511,0
DA:516,0
DA:520,0
DA:511,0
DA:516,0
DA:520,0
DA:511,0
DA:516,0
DA:520,0
DA:511,0
DA:516,0
DA:520,0
DA:511,0
DA:516,0
DA:520,0
DA:511,0
DA:516,0
DA:520,0
DA:511,0
DA:516,0
DA:520,0
DA:511,0
DA:516,0
DA:520,0
DA:511,0
DA:516,0
DA:520,0
DA:511,0
DA:516,0
DA:520,0
DA:511,0
DA:516,0
DA:520,0
DA:511,0
DA:516,0
DA:520,0
DA:511,0
DA:516,0
DA:520,0
DA:511,0
DA:516,0
DA:520,0
DA:511,0
DA:516,0
DA:520,0
DA:511,0
DA:516,0
DA:520,0
DA:511,0
DA:516,0
DA:520,0
DA:511,0
DA:516,0
DA:520,0
DA:511,0
DA:516,0
DA:520,0
DA:511,0
DA:516,0
DA:520,0
DA:511,0
DA:516,0
DA:520,0
DA:511,0
DA:516,0
DA:520,0
DA:511,0
DA:516,0
DA:520,0
DA:511,0
DA:516,0
DA:520,0
DA:511,0
DA:516,0
DA:520,0
DA:511,0
DA:516,0
DA:520,0
DA:511,0
DA:516,0
DA:520,0
DA:511,0
DA:516,0
DA:520,0
DA:511,0
DA:516,0
DA:520,0
DA:511,0
DA:516,0
DA:520,0
DA:511,0
DA:516,0
DA:520,0
DA:511,0
DA:516,0
DA:520,0
DA:511,0
DA:516,0
DA:520,0
DA:511,0
DA:516,0
DA:520,0
DA:511,0
DA:516,0
DA:520,0
DA:511,0
DA:516,0
DA:520,0
DA:511,0
DA:516,0
DA:520,0
DA:511,0
DA:516,0
DA:520,0
DA:511,0
DA:516,0
DA:520,0
DA:511,0
DA:516,0
DA:520,0
DA:511,0
DA:516,0
DA:520,0
DA:511,0
DA:516,0
DA:520,0
DA:511,0
DA:516,0
DA:520,0
DA:511,0
DA:516,0
DA:520,0
DA:511,0
DA:516,0
DA:520,0
DA:511,0
DA:516,0
DA:520,0
DA:511,0
DA:516,0
DA:520,0
DA:511,0
DA:516,0
DA:520,0
DA:511,0
DA:516,0
DA:520,0
DA:511,0
DA:516,0
DA:520,0
DA:511,0
DA:516,0
DA:520,0
DA:511,0
DA:516,0
DA:520,0
DA:511,0
DA:516,0
DA:520,0
DA:511,0
DA:516,0
DA:520,0
DA:511,0
DA:516,0
DA:520,0
DA:511,0
DA:516,0
DA:520,0
DA:511,0
DA:516,0
DA:520,0
DA:511,0
DA:516,0
DA:520,0
DA:531,0
DA:535,0
DA:539,0
DA:531,0
DA:535,0
DA:539,0
DA:531,0
DA:535,0
DA:539,0
DA:531,0
DA:535,0
DA:539,0
DA:531,0
DA:535,0
DA:539,0
DA:531,0
DA:535,0
DA:539,0
DA:531,0
DA:535,0
DA:539,0
DA:531,0
DA:535,0
DA:539,0
DA:531,0
DA:535,0
DA:539,0
DA:531,0
DA:535,0
DA:539,0
DA:531,0
DA:535,0
DA:539,0
DA:531,0
DA:535,0
DA:539,0
DA:531,0
DA:535,0
DA:539,0
DA:531,0
DA:535,0
DA:539,0
DA:531,0
DA:535,0
DA:539,0
DA:531,0
DA:535,0
DA:539,0
DA:531,0
DA:535,0
DA:539,0
DA:531,0
DA:535,0
DA:539,0
DA:531,0
DA:535,0
DA:539,0
DA:531,0
DA:535,0
DA:539,0
DA:531,0
DA:535,0
DA:539,0
DA:531,0
DA:535,0
DA:539,0
DA:531,0
DA:535,0
DA:539,0
DA:531,0
DA:535,0
DA:539,0
DA:531,0
DA:535,0
DA:539,0
DA:531,0
DA:535,0
DA:539,0
DA:531,0
DA:535,0
DA:539,0
DA:531,0
DA:535,0
DA:539,0
DA:531,0
DA:535,0
DA:539,0
DA:531,0
DA:535,0
DA:539,0
DA:531,0
DA:535,0
DA:539,0
DA:531,0
DA:535,0
DA:539,0
DA:531,0
DA:535,0
DA:539,0
DA:531,0
DA:535,0
DA:539,0
DA:531,0
DA:535,0
DA:539,0
DA:531,0
DA:535,0
DA:539,0
DA:531,0
DA:535,0
DA:539,0
DA:531,0
DA:535,0
DA:539,0
DA:531,0
DA:535,0
DA:539,0
DA:531,0
DA:535,0
DA:539,0
DA:531,0
DA:535,0
DA:539,0
DA:531,0
DA:535,0
DA:539,0
DA:531,0
DA:535,0
DA:539,0
DA:547,0
DA:550,0
DA:547,0
DA:550,0
DA:547,0
DA:550,0
DA:547,0
DA:550,0
DA:547,0
DA:550,0
DA:562,0
DA:563,0
DA:562,0
DA:563,0
DA:562,0
DA:563,0
DA:562,0
DA:563,0
DA:562,0
DA:563,0
DA:562,0
DA:563,0
DA:562,0
DA:563,0
DA:562,0
DA:563,0
DA:562,2
DA:563,2
DA:562,0
DA:563,0
DA:845,0
DA:848,0
DA:849,0
DA:845,0
DA:848,0
DA:849,0
DA:845,0
DA:848,0
DA:849,0
DA:845,0
DA:848,0
DA:849,0
DA:845,0
DA:848,0
DA:849,0
DA:845,0
DA:848,0
DA:849,0
DA:845,0
DA:848,0
DA:849,0
DA:845,0
DA:848,0
DA:849,0
DA:845,0
DA:848,0
DA:849,0
DA:845,0
DA:848,0
DA:849,0
DA:845,0
DA:848,0
DA:849,0
DA:845,0
DA:848,0
DA:849,0
DA:845,0
DA:848,0
DA:849,0
DA:845,0
DA:848,0
DA:849,0
DA:845,17
DA:848,17
DA:849,17
end_of_record
SF:/usr/include/c++/11/variant
FN:150,_ZSt14__variant_castIJSt8functionIFvRKN8nav_msgs3msg9Odometry_ISaIvEEEEES0_IFvS7_RKN6rclcpp11MessageInfoEEES0_IFvRKNSA_17SerializedMessageEEES0_IFvSI_SD_EES0_IFvSt10unique_ptrIS5_St14default_deleteIS5_EEEES0_IFvSQ_SD_EES0_IFvSN_ISG_SO_ISG_EEEES0_IFvSW_SD_EES0_IFvSt10shared_ptrIS6_EEES0_IFvS12_SD_EES0_IFvS11_ISH_EEES0_IFvS17_SD_EES0_IFvRKS12_EES0_IFvS1D_SD_EES0_IFvRKS17_EES0_IFvS1J_SD_EES0_IFvS11_IS5_EEES0_IFvS1O_SD_EES0_IFvS11_ISG_EEES0_IFvS1T_SD_EEERKNSt8__detail9__variant15_Copy_ctor_baseILb0EJS9_SF_SK_SM_SS_SU_SY_S10_S14_S16_S19_S1B_S1F_S1H_S1L_S1N_S1Q_S1S_S1V_S1X_EEEEDcOT0_
FNDA:0,_ZSt14__variant_castIJSt8functionIFvRKN8nav_msgs3msg9Odometry_ISaIvEEEEES0_IFvS7_RKN6rclcpp11MessageInfoEEES0_IFvRKNSA_17SerializedMessageEEES0_IFvSI_SD_EES0_IFvSt10unique_ptrIS5_St14default_deleteIS5_EEEES0_IFvSQ_SD_EES0_IFvSN_ISG_SO_ISG_EEEES0_IFvSW_SD_EES0_IFvSt10shared_ptrIS6_EEES0_IFvS12_SD_EES0_IFvS11_ISH_EEES0_IFvS17_SD_EES0_IFvRKS12_EES0_IFvS1D_SD_EES0_IFvRKS17_EES0_IFvS1J_SD_EES0_IFvS11_IS5_EEES0_IFvS1O_SD_EES0_IFvS11_ISG_EEES0_IFvS1T_SD_EEERKNSt8__detail9__variant15_Copy_ctor_baseILb0EJS9_SF_SK_SM_SS_SU_SY_S10_S14_S16_S19_S1B_S1F_S1H_S1L_S1N_S1Q_S1S_S1V_S1X_EEEEDcOT0_
FN:150,_ZSt14__variant_castIJSt8functionIFvRKN8nav_msgs3msg9Odometry_ISaIvEEEEES0_IFvS7_RKN6rclcpp11MessageInfoEEES0_IFvRKNSA_17SerializedMessageEEES0_IFvSI_SD_EES0_IFvSt10unique_ptrIS5_St14default_deleteIS5_EEEES0_IFvSQ_SD_EES0_IFvSN_ISG_SO_ISG_EEEES0_IFvSW_SD_EES0_IFvSt10shared_ptrIS6_EEES0_IFvS12_SD_EES0_IFvS11_ISH_EEES0_IFvS17_SD_EES0_IFvRKS12_EES0_IFvS1D_SD_EES0_IFvRKS17_EES0_IFvS1J_SD_EES0_IFvS11_IS5_EEES0_IFvS1O_SD_EES0_IFvS11_ISG_EEES0_IFvS1T_SD_EEERNSt8__detail9__variant16_Variant_storageILb0EJS9_SF_SK_SM_SS_SU_SY_S10_S14_S16_S19_S1B_S1F_S1H_S1L_S1N_S1Q_S1S_S1V_S1X_EEEEDcOT0_
FNDA:0,_ZSt14__variant_castIJSt8functionIFvRKN8nav_msgs3msg9Odometry_ISaIvEEEEES0_IFvS7_RKN6rclcpp11MessageInfoEEES0_IFvRKNSA_17SerializedMessageEEES0_IFvSI_SD_EES0_IFvSt10unique_ptrIS5_St14default_deleteIS5_EEEES0_IFvSQ_SD_EES0_IFvSN_ISG_SO_ISG_EEEES0_IFvSW_SD_EES0_IFvSt10shared_ptrIS6_EEES0_IFvS12_SD_EES0_IFvS11_ISH_EEES0_IFvS17_SD_EES0_IFvRKS12_EES0_IFvS1D_SD_EES0_IFvRKS17_EES0_IFvS1J_SD_EES0_IFvS11_IS5_EEES0_IFvS1O_SD_EES0_IFvS11_ISG_EEES0_IFvS1T_SD_EEERNSt8__detail9__variant16_Variant_storageILb0EJS9_SF_SK_SM_SS_SU_SY_S10_S14_S16_S19_S1B_S1F_S1H_S1L_S1N_S1Q_S1S_S1V_S1X_EEEEDcOT0_
FN:190,_ZNSt8__detail9__variant11__raw_visitIZNS0_19__variant_constructIJSt8functionIFvRKN8nav_msgs3msg9Odometry_ISaIvEEEEES3_IFvSA_RKN6rclcpp11MessageInfoEEES3_IFvRKNSD_17SerializedMessageEEES3_IFvSL_SG_EES3_IFvSt10unique_ptrIS8_St14default_deleteIS8_EEEES3_IFvST_SG_EES3_IFvSQ_ISJ_SR_ISJ_EEEES3_IFvSZ_SG_EES3_IFvSt10shared_ptrIS9_EEES3_IFvS15_SG_EES3_IFvS14_ISK_EEES3_IFvS1A_SG_EES3_IFvRKS15_EES3_IFvS1G_SG_EES3_IFvRKS1A_EES3_IFvS1M_SG_EES3_IFvS14_IS8_EEES3_IFvS1R_SG_EES3_IFvS14_ISJ_EEES3_IFvS1W_SG_EEERNS0_15_Copy_ctor_baseILb0EJSC_SI_SN_SP_SV_SX_S11_S13_S17_S19_S1C_S1E_S1I_S1K_S1O_S1Q_S1T_S1V_S1Y_S20_EEERKS22_EEvOT0_OT1_EUlOT_E_JRKSt7variantIJSC_SI_SN_SP_SV_SX_S11_S13_S17_S19_S1C_S1E_S1I_S1K_S1O_S1Q_S1T_S1V_S1Y_S20_EEEEEvS2B_DpOT0_
FNDA:0,_ZNSt8__detail9__variant11__raw_visitIZNS0_19__variant_constructIJSt8functionIFvRKN8nav_msgs3msg9Odometry_ISaIvEEEEES3_IFvSA_RKN6rclcpp11MessageInfoEEES3_IFvRKNSD_17SerializedMessageEEES3_IFvSL_SG_EES3_IFvSt10unique_ptrIS8_St14default_deleteIS8_EEEES3_IFvST_SG_EES3_IFvSQ_ISJ_SR_ISJ_EEEES3_IFvSZ_SG_EES3_IFvSt10shared_ptrIS9_EEES3_IFvS15_SG_EES3_IFvS14_ISK_EEES3_IFvS1A_SG_EES3_IFvRKS15_EES3_IFvS1G_SG_EES3_IFvRKS1A_EES3_IFvS1M_SG_EES3_IFvS14_IS8_EEES3_IFvS1R_SG_EES3_IFvS14_ISJ_EEES3_IFvS1W_SG_EEERNS0_15_Copy_ctor_baseILb0EJSC_SI_SN_SP_SV_SX_S11_S13_S17_S19_S1C_S1E_S1I_S1K_S1O_S1Q_S1T_S1V_S1Y_S20_EEERKS22_EEvOT0_OT1_EUlOT_E_JRKSt7variantIJSC_SI_SN_SP_SV_SX_S11_S13_S17_S19_S1C_S1E_S1I_S1K_S1O_S1Q_S1T_S1V_S1Y_S20_EEEEEvS2B_DpOT0_
FN:209,_ZNSt8__detail9__variant4__asIJSt8functionIFvRKN8nav_msgs3msg9Odometry_ISaIvEEEEES2_IFvS9_RKN6rclcpp11MessageInfoEEES2_IFvRKNSC_17SerializedMessageEEES2_IFvSK_SF_EES2_IFvSt10unique_ptrIS7_St14default_deleteIS7_EEEES2_IFvSS_SF_EES2_IFvSP_ISI_SQ_ISI_EEEES2_IFvSY_SF_EES2_IFvSt10shared_ptrIS8_EEES2_IFvS14_SF_EES2_IFvS13_ISJ_EEES2_IFvS19_SF_EES2_IFvRKS14_EES2_IFvS1F_SF_EES2_IFvRKS19_EES2_IFvS1L_SF_EES2_IFvS13_IS7_EEES2_IFvS1Q_SF_EES2_IFvS13_ISI_EEES2_IFvS1V_SF_EEEEERSt7variantIJDpT_EES24_
FNDA:0,_ZNSt8__detail9__variant4__asIJSt8functionIFvRKN8nav_msgs3msg9Odometry_ISaIvEEEEES2_IFvS9_RKN6rclcpp11MessageInfoEEES2_IFvRKNSC_17SerializedMessageEEES2_IFvSK_SF_EES2_IFvSt10unique_ptrIS7_St14default_deleteIS7_EEEES2_IFvSS_SF_EES2_IFvSP_ISI_SQ_ISI_EEEES2_IFvSY_SF_EES2_IFvSt10shared_ptrIS8_EEES2_IFvS14_SF_EES2_IFvS13_ISJ_EEES2_IFvS19_SF_EES2_IFvRKS14_EES2_IFvS1F_SF_EES2_IFvRKS19_EES2_IFvS1L_SF_EES2_IFvS13_IS7_EEES2_IFvS1Q_SF_EES2_IFvS13_ISI_EEES2_IFvS1V_SF_EEEEERSt7variantIJDpT_EES24_
FN:261,_ZNSt8__detail9__variant14_UninitializedISt8functionIFvRKN8nav_msgs3msg9Odometry_ISaIvEEEEELb0EEC2IJEEESt16in_place_index_tILm0EEDpOT_
FNDA:0,_ZNSt8__detail9__variant14_UninitializedISt8functionIFvRKN8nav_msgs3msg9Odometry_ISaIvEEEEELb0EEC2IJEEESt16in_place_index_tILm0EEDpOT_
FN:267,_ZNKRSt8__detail9__variant14_UninitializedISt8functionIFvRKSt10shared_ptrIKN8nav_msgs3msg9Odometry_ISaIvEEEEEELb0EE6_M_getEv
FNDA:0,_ZNKRSt8__detail9__variant14_UninitializedISt8functionIFvRKSt10shared_ptrIKN8nav_msgs3msg9Odometry_ISaIvEEEEEELb0EE6_M_getEv
FN:267,_ZNKRSt8__detail9__variant14_UninitializedISt8functionIFvRKN8nav_msgs3msg9Odometry_ISaIvEEEEELb0EE6_M_getEv
FNDA:0,_ZNKRSt8__detail9__variant14_UninitializedISt8functionIFvRKN8nav_msgs3msg9Odometry_ISaIvEEEEELb0EE6_M_getEv
FN:267,_ZNKRSt8__detail9__variant14_UninitializedISt8functionIFvRKN8nav_msgs3msg9Odometry_ISaIvEEERKN6rclcpp11MessageInfoEEELb0EE6_M_getEv
FNDA:0,_ZNKRSt8__detail9__variant14_UninitializedISt8functionIFvRKN8nav_msgs3msg9Odometry_ISaIvEEERKN6rclcpp11MessageInfoEEELb0EE6_M_getEv
FN:267,_ZNKRSt8__detail9__variant14_UninitializedISt8functionIFvRKN6rclcpp17SerializedMessageEEELb0EE6_M_getEv
FNDA:0,_ZNKRSt8__detail9__variant14_UninitializedISt8functionIFvRKN6rclcpp17SerializedMessageEEELb0EE6_M_getEv
FN:267,_ZNKRSt8__detail9__variant14_UninitializedISt8functionIFvRKN6rclcpp17SerializedMessageERKNS3_11MessageInfoEEELb0EE6_M_getEv
FNDA:0,_ZNKRSt8__detail9__variant14_UninitializedISt8functionIFvRKN6rclcpp17SerializedMessageERKNS3_11MessageInfoEEELb0EE6_M_getEv
FN:267,_ZNKRSt8__detail9__variant14_UninitializedISt8functionIFvSt10unique_ptrIN8nav_msgs3msg9Odometry_ISaIvEEESt14default_deleteIS8_EEEELb0EE6_M_getEv
FNDA:0,_ZNKRSt8__detail9__variant14_UninitializedISt8functionIFvSt10unique_ptrIN8nav_msgs3msg9Odometry_ISaIvEEESt14default_deleteIS8_EEEELb0EE6_M_getEv
FN:267,_ZNKRSt8__detail9__variant14_UninitializedISt8functionIFvSt10unique_ptrIN8nav_msgs3msg9Odometry_ISaIvEEESt14default_deleteIS8_EERKN6rclcpp11MessageInfoEEELb0EE6_M_getEv
FNDA:0,_ZNKRSt8__detail9__variant14_UninitializedISt8functionIFvSt10unique_ptrIN8nav_msgs3msg9Odometry_ISaIvEEESt14default_deleteIS8_EERKN6rclcpp11MessageInfoEEELb0EE6_M_getEv
FN:267,_ZNKRSt8__detail9__variant14_UninitializedISt8functionIFvSt10unique_ptrIN6rclcpp17SerializedMessageESt14default_deleteIS5_EEEELb0EE6_M_getEv
FNDA:0,_ZNKRSt8__detail9__variant14_UninitializedISt8functionIFvSt10unique_ptrIN6rclcpp17SerializedMessageESt14default_deleteIS5_EEEELb0EE6_M_getEv
FN:267,_ZNKRSt8__detail9__variant14_UninitializedISt8functionIFvSt10unique_ptrIN6rclcpp17SerializedMessageESt14default_deleteIS5_EERKNS4_11MessageInfoEEELb0EE6_M_getEv
FNDA:0,_ZNKRSt8__detail9__variant14_UninitializedISt8functionIFvSt10unique_ptrIN6rclcpp17SerializedMessageESt14default_deleteIS5_EERKNS4_11MessageInfoEEELb0EE6_M_getEv
FN:267,_ZNKRSt8__detail9__variant14_UninitializedISt8functionIFvSt10shared_ptrIN6rclcpp17SerializedMessageEERKNS4_11MessageInfoEEELb0EE6_M_getEv
FNDA:0,_ZNKRSt8__detail9__variant14_UninitializedISt8functionIFvSt10shared_ptrIN6rclcpp17SerializedMessageEERKNS4_11MessageInfoEEELb0EE6_M_getEv
FN:267,_ZNKRSt8__detail9__variant14_UninitializedISt8functionIFvRKSt10shared_ptrIKN8nav_msgs3msg9Odometry_ISaIvEEEERKN6rclcpp11MessageInfoEEELb0EE6_M_getEv
FNDA:0,_ZNKRSt8__detail9__variant14_UninitializedISt8functionIFvRKSt10shared_ptrIKN8nav_msgs3msg9Odometry_ISaIvEEEERKN6rclcpp11MessageInfoEEELb0EE6_M_getEv
FN:267,_ZNKRSt8__detail9__variant14_UninitializedISt8functionIFvSt10shared_ptrIKN6rclcpp17SerializedMessageEERKNS4_11MessageInfoEEELb0EE6_M_getEv
FNDA:0,_ZNKRSt8__detail9__variant14_UninitializedISt8functionIFvSt10shared_ptrIKN6rclcpp17SerializedMessageEERKNS4_11MessageInfoEEELb0EE6_M_getEv
FN:267,_ZNKRSt8__detail9__variant14_UninitializedISt8functionIFvRKSt10shared_ptrIKN6rclcpp17SerializedMessageEEEELb0EE6_M_getEv
FNDA:0,_ZNKRSt8__detail9__variant14_UninitializedISt8functionIFvRKSt10shared_ptrIKN6rclcpp17SerializedMessageEEEELb0EE6_M_getEv
FN:267,_ZNKRSt8__detail9__variant14_UninitializedISt8functionIFvRKSt10shared_ptrIKN6rclcpp17SerializedMessageEERKNS4_11MessageInfoEEELb0EE6_M_getEv
FNDA:0,_ZNKRSt8__detail9__variant14_UninitializedISt8functionIFvRKSt10shared_ptrIKN6rclcpp17SerializedMessageEERKNS4_11MessageInfoEEELb0EE6_M_getEv
FN:267,_ZNKRSt8__detail9__variant14_UninitializedISt8functionIFvSt10shared_ptrIN8nav_msgs3msg9Odometry_ISaIvEEEEEELb0EE6_M_getEv
FNDA:0,_ZNKRSt8__detail9__variant14_UninitializedISt8functionIFvSt10shared_ptrIN8nav_msgs3msg9Odometry_ISaIvEEEEEELb0EE6_M_getEv
FN:267,_ZNKRSt8__detail9__variant14_UninitializedISt8functionIFvSt10shared_ptrIKN6rclcpp17SerializedMessageEEEELb0EE6_M_getEv
FNDA:0,_ZNKRSt8__detail9__variant14_UninitializedISt8functionIFvSt10shared_ptrIKN6rclcpp17SerializedMessageEEEELb0EE6_M_getEv
FN:267,_ZNKRSt8__detail9__variant14_UninitializedISt8functionIFvSt10shared_ptrIN8nav_msgs3msg9Odometry_ISaIvEEEERKN6rclcpp11MessageInfoEEELb0EE6_M_getEv
FNDA:0,_ZNKRSt8__detail9__variant14_UninitializedISt8functionIFvSt10shared_ptrIN8nav_msgs3msg9Odometry_ISaIvEEEERKN6rclcpp11MessageInfoEEELb0EE6_M_getEv
FN:267,_ZNKRSt8__detail9__variant14_UninitializedISt8functionIFvSt10shared_ptrIN6rclcpp17SerializedMessageEEEELb0EE6_M_getEv
FNDA:0,_ZNKRSt8__detail9__variant14_UninitializedISt8functionIFvSt10shared_ptrIN6rclcpp17SerializedMessageEEEELb0EE6_M_getEv
FN:267,_ZNKRSt8__detail9__variant14_UninitializedISt8functionIFvSt10shared_ptrIKN8nav_msgs3msg9Odometry_ISaIvEEEERKN6rclcpp11MessageInfoEEELb0EE6_M_getEv
FNDA:0,_ZNKRSt8__detail9__variant14_UninitializedISt8functionIFvSt10shared_ptrIKN8nav_msgs3msg9Odometry_ISaIvEEEERKN6rclcpp11MessageInfoEEELb0EE6_M_getEv
FN:267,_ZNKRSt8__detail9__variant14_UninitializedISt8functionIFvSt10shared_ptrIKN8nav_msgs3msg9Odometry_ISaIvEEEEEELb0EE6_M_getEv
FNDA:0,_ZNKRSt8__detail9__variant14_UninitializedISt8functionIFvSt10shared_ptrIKN8nav_msgs3msg9Odometry_ISaIvEEEEEELb0EE6_M_getEv
FN:270,_ZNRSt8__detail9__variant14_UninitializedISt8functionIFvSt10shared_ptrIKN6rclcpp17SerializedMessageEERKNS4_11MessageInfoEEELb0EE6_M_getEv
FNDA:0,_ZNRSt8__detail9__variant14_UninitializedISt8functionIFvSt10shared_ptrIKN6rclcpp17SerializedMessageEERKNS4_11MessageInfoEEELb0EE6_M_getEv
FN:270,_ZNRSt8__detail9__variant14_UninitializedISt8functionIFvRKN8nav_msgs3msg9Odometry_ISaIvEEEEELb0EE6_M_getEv
FNDA:0,_ZNRSt8__detail9__variant14_UninitializedISt8functionIFvRKN8nav_msgs3msg9Odometry_ISaIvEEEEELb0EE6_M_getEv
FN:270,_ZNRSt8__detail9__variant14_UninitializedISt8functionIFvRKN8nav_msgs3msg9Odometry_ISaIvEEERKN6rclcpp11MessageInfoEEELb0EE6_M_getEv
FNDA:0,_ZNRSt8__detail9__variant14_UninitializedISt8functionIFvRKN8nav_msgs3msg9Odometry_ISaIvEEERKN6rclcpp11MessageInfoEEELb0EE6_M_getEv
FN:270,_ZNRSt8__detail9__variant14_UninitializedISt8functionIFvRKN6rclcpp17SerializedMessageEEELb0EE6_M_getEv
FNDA:0,_ZNRSt8__detail9__variant14_UninitializedISt8functionIFvRKN6rclcpp17SerializedMessageEEELb0EE6_M_getEv
FN:270,_ZNRSt8__detail9__variant14_UninitializedISt8functionIFvRKN6rclcpp17SerializedMessageERKNS3_11MessageInfoEEELb0EE6_M_getEv
FNDA:0,_ZNRSt8__detail9__variant14_UninitializedISt8functionIFvRKN6rclcpp17SerializedMessageERKNS3_11MessageInfoEEELb0EE6_M_getEv
FN:270,_ZNRSt8__detail9__variant14_UninitializedISt8functionIFvSt10unique_ptrIN8nav_msgs3msg9Odometry_ISaIvEEESt14default_deleteIS8_EEEELb0EE6_M_getEv
FNDA:0,_ZNRSt8__detail9__variant14_UninitializedISt8functionIFvSt10unique_ptrIN8nav_msgs3msg9Odometry_ISaIvEEESt14default_deleteIS8_EEEELb0EE6_M_getEv
FN:270,_ZNRSt8__detail9__variant14_UninitializedISt8functionIFvSt10unique_ptrIN8nav_msgs3msg9Odometry_ISaIvEEESt14default_deleteIS8_EERKN6rclcpp11MessageInfoEEELb0EE6_M_getEv
FNDA:0,_ZNRSt8__detail9__variant14_UninitializedISt8functionIFvSt10unique_ptrIN8nav_msgs3msg9Odometry_ISaIvEEESt14default_deleteIS8_EERKN6rclcpp11MessageInfoEEELb0EE6_M_getEv
FN:270,_ZNRSt8__detail9__variant14_UninitializedISt8functionIFvSt10shared_ptrIN6rclcpp17SerializedMessageEERKNS4_11MessageInfoEEELb0EE6_M_getEv
FNDA:0,_ZNRSt8__detail9__variant14_UninitializedISt8functionIFvSt10shared_ptrIN6rclcpp17SerializedMessageEERKNS4_11MessageInfoEEELb0EE6_M_getEv
FN:270,_ZNRSt8__detail9__variant14_UninitializedISt8functionIFvSt10shared_ptrIKN8nav_msgs3msg9Odometry_ISaIvEEEERKN6rclcpp11MessageInfoEEELb0EE6_M_getEv
FNDA:0,_ZNRSt8__detail9__variant14_UninitializedISt8functionIFvSt10shared_ptrIKN8nav_msgs3msg9Odometry_ISaIvEEEERKN6rclcpp11MessageInfoEEELb0EE6_M_getEv
FN:270,_ZNRSt8__detail9__variant14_UninitializedISt8functionIFvRKSt10shared_ptrIKN8nav_msgs3msg9Odometry_ISaIvEEEEEELb0EE6_M_getEv
FNDA:0,_ZNRSt8__detail9__variant14_UninitializedISt8functionIFvRKSt10shared_ptrIKN8nav_msgs3msg9Odometry_ISaIvEEEEEELb0EE6_M_getEv
FN:270,_ZNRSt8__detail9__variant14_UninitializedISt8functionIFvSt10shared_ptrIKN8nav_msgs3msg9Odometry_ISaIvEEEEEELb0EE6_M_getEv
FNDA:0,_ZNRSt8__detail9__variant14_UninitializedISt8functionIFvSt10shared_ptrIKN8nav_msgs3msg9Odometry_ISaIvEEEEEELb0EE6_M_getEv
FN:270,_ZNRSt8__detail9__variant14_UninitializedISt8functionIFvRKSt10shared_ptrIKN8nav_msgs3msg9Odometry_ISaIvEEEERKN6rclcpp11MessageInfoEEELb0EE6_M_getEv
FNDA:0,_ZNRSt8__detail9__variant14_UninitializedISt8functionIFvRKSt10shared_ptrIKN8nav_msgs3msg9Odometry_ISaIvEEEERKN6rclcpp11MessageInfoEEELb0EE6_M_getEv
FN:270,_ZNRSt8__detail9__variant14_UninitializedISt8functionIFvRKSt10shared_ptrIKN6rclcpp17SerializedMessageEEEELb0EE6_M_getEv
FNDA:0,_ZNRSt8__detail9__variant14_UninitializedISt8functionIFvRKSt10shared_ptrIKN6rclcpp17SerializedMessageEEEELb0EE6_M_getEv
FN:270,_ZNRSt8__detail9__variant14_UninitializedISt8functionIFvSt10unique_ptrIN6rclcpp17SerializedMessageESt14default_deleteIS5_EEEELb0EE6_M_getEv
FNDA:0,_ZNRSt8__detail9__variant14_UninitializedISt8functionIFvSt10unique_ptrIN6rclcpp17SerializedMessageESt14default_deleteIS5_EEEELb0EE6_M_getEv
FN:270,_ZNRSt8__detail9__variant14_UninitializedISt8functionIFvSt10shared_ptrIKN6rclcpp17SerializedMessageEEEELb0EE6_M_getEv
FNDA:0,_ZNRSt8__detail9__variant14_UninitializedISt8functionIFvSt10shared_ptrIKN6rclcpp17SerializedMessageEEEELb0EE6_M_getEv
FN:270,_ZNRSt8__detail9__variant14_UninitializedISt8functionIFvRKSt10shared_ptrIKN6rclcpp17SerializedMessageEERKNS4_11MessageInfoEEELb0EE6_M_getEv
FNDA:0,_ZNRSt8__detail9__variant14_UninitializedISt8functionIFvRKSt10shared_ptrIKN6rclcpp17SerializedMessageEERKNS4_11MessageInfoEEELb0EE6_M_getEv
FN:270,_ZNRSt8__detail9__variant14_UninitializedISt8functionIFvSt10unique_ptrIN6rclcpp17SerializedMessageESt14default_deleteIS5_EERKNS4_11MessageInfoEEELb0EE6_M_getEv
FNDA:0,_ZNRSt8__detail9__variant14_UninitializedISt8functionIFvSt10unique_ptrIN6rclcpp17SerializedMessageESt14default_deleteIS5_EERKNS4_11MessageInfoEEELb0EE6_M_getEv
FN:270,_ZNRSt8__detail9__variant14_UninitializedISt8functionIFvSt10shared_ptrIN8nav_msgs3msg9Odometry_ISaIvEEEEEELb0EE6_M_getEv
FNDA:0,_ZNRSt8__detail9__variant14_UninitializedISt8functionIFvSt10shared_ptrIN8nav_msgs3msg9Odometry_ISaIvEEEEEELb0EE6_M_getEv
FN:270,_ZNRSt8__detail9__variant14_UninitializedISt8functionIFvSt10shared_ptrIN6rclcpp17SerializedMessageEEEELb0EE6_M_getEv
FNDA:0,_ZNRSt8__detail9__variant14_UninitializedISt8functionIFvSt10shared_ptrIN6rclcpp17SerializedMessageEEEELb0EE6_M_getEv
FN:270,_ZNRSt8__detail9__variant14_UninitializedISt8functionIFvSt10shared_ptrIN8nav_msgs3msg9Odometry_ISaIvEEEERKN6rclcpp11MessageInfoEEELb0EE6_M_getEv
FNDA:0,_ZNRSt8__detail9__variant14_UninitializedISt8functionIFvSt10shared_ptrIN8nav_msgs3msg9Odometry_ISaIvEEEERKN6rclcpp11MessageInfoEEELb0EE6_M_getEv
FN:284,_ZNSt8__detail9__variant5__getIRKNS0_15_Variadic_unionIJSt8functionIFvRKSt10shared_ptrIKN6rclcpp17SerializedMessageEEEES3_IFvSA_RKNS5_11MessageInfoEEES3_IFvS4_IN8nav_msgs3msg9Odometry_ISaIvEEEEEES3_IFvSN_SF_EES3_IFvS4_IS6_EEES3_IFvSS_SF_EEEEEEEDcSt16in_place_index_tILm0EEOT_
FNDA:0,_ZNSt8__detail9__variant5__getIRKNS0_15_Variadic_unionIJSt8functionIFvRKSt10shared_ptrIKN6rclcpp17SerializedMessageEEEES3_IFvSA_RKNS5_11MessageInfoEEES3_IFvS4_IN8nav_msgs3msg9Odometry_ISaIvEEEEEES3_IFvSN_SF_EES3_IFvS4_IS6_EEES3_IFvSS_SF_EEEEEEEDcSt16in_place_index_tILm0EEOT_
FN:284,_ZNSt8__detail9__variant5__getIRNS0_15_Variadic_unionIJSt8functionIFvSt10shared_ptrIN6rclcpp17SerializedMessageEEEES3_IFvS7_RKNS5_11MessageInfoEEEEEEEEDcSt16in_place_index_tILm0EEOT_
FNDA:0,_ZNSt8__detail9__variant5__getIRNS0_15_Variadic_unionIJSt8functionIFvSt10shared_ptrIN6rclcpp17SerializedMessageEEEES3_IFvS7_RKNS5_11MessageInfoEEEEEEEEDcSt16in_place_index_tILm0EEOT_
FN:284,_ZNSt8__detail9__variant5__getIRNS0_15_Variadic_unionIJSt8functionIFvRKN6rclcpp17SerializedMessageERKNS4_11MessageInfoEEES3_IFvSt10unique_ptrIN8nav_msgs3msg9Odometry_ISaIvEEESt14default_deleteISI_EEEES3_IFvSL_SA_EES3_IFvSD_IS5_SJ_IS5_EEEES3_IFvSR_SA_EES3_IFvSt10shared_ptrIKSI_EEES3_IFvSY_SA_EES3_IFvSW_IS6_EEES3_IFvS13_SA_EES3_IFvRKSY_EES3_IFvS19_SA_EES3_IFvRKS13_EES3_IFvS1F_SA_EES3_IFvSW_ISI_EEES3_IFvS1K_SA_EES3_IFvSW_IS5_EEES3_IFvS1P_SA_EEEEEEEDcSt16in_place_index_tILm0EEOT_
FNDA:0,_ZNSt8__detail9__variant5__getIRNS0_15_Variadic_unionIJSt8functionIFvRKN6rclcpp17SerializedMessageERKNS4_11MessageInfoEEES3_IFvSt10unique_ptrIN8nav_msgs3msg9Odometry_ISaIvEEESt14default_deleteISI_EEEES3_IFvSL_SA_EES3_IFvSD_IS5_SJ_IS5_EEEES3_IFvSR_SA_EES3_IFvSt10shared_ptrIKSI_EEES3_IFvSY_SA_EES3_IFvSW_IS6_EEES3_IFvS13_SA_EES3_IFvRKSY_EES3_IFvS19_SA_EES3_IFvRKS13_EES3_IFvS1F_SA_EES3_IFvSW_ISI_EEES3_IFvS1K_SA_EES3_IFvSW_IS5_EEES3_IFvS1P_SA_EEEEEEEDcSt16in_place_index_tILm0EEOT_
FN:284,_ZNSt8__detail9__variant5__getIRKNS0_15_Variadic_unionIJSt8functionIFvRKN6rclcpp17SerializedMessageERKNS4_11MessageInfoEEES3_IFvSt10unique_ptrIN8nav_msgs3msg9Odometry_ISaIvEEESt14default_deleteISI_EEEES3_IFvSL_SA_EES3_IFvSD_IS5_SJ_IS5_EEEES3_IFvSR_SA_EES3_IFvSt10shared_ptrIKSI_EEES3_IFvSY_SA_EES3_IFvSW_IS6_EEES3_IFvS13_SA_EES3_IFvRKSY_EES3_IFvS19_SA_EES3_IFvRKS13_EES3_IFvS1F_SA_EES3_IFvSW_ISI_EEES3_IFvS1K_SA_EES3_IFvSW_IS5_EEES3_IFvS1P_SA_EEEEEEEDcSt16in_place_index_tILm0EEOT_
FNDA:0,_ZNSt8__detail9__variant5__getIRKNS0_15_Variadic_unionIJSt8functionIFvRKN6rclcpp17SerializedMessageERKNS4_11MessageInfoEEES3_IFvSt10unique_ptrIN8nav_msgs3msg9Odometry_ISaIvEEESt14default_deleteISI_EEEES3_IFvSL_SA_EES3_IFvSD_IS5_SJ_IS5_EEEES3_IFvSR_SA_EES3_IFvSt10shared_ptrIKSI_EEES3_IFvSY_SA_EES3_IFvSW_IS6_EEES3_IFvS13_SA_EES3_IFvRKSY_EES3_IFvS19_SA_EES3_IFvRKS13_EES3_IFvS1F_SA_EES3_IFvSW_ISI_EEES3_IFvS1K_SA_EES3_IFvSW_IS5_EEES3_IFvS1P_SA_EEEEEEEDcSt16in_place_index_tILm0EEOT_
FN:284,_ZNSt8__detail9__variant5__getIRNS0_15_Variadic_unionIJSt8functionIFvRKSt10shared_ptrIKN6rclcpp17SerializedMessageEEEES3_IFvSA_RKNS5_11MessageInfoEEES3_IFvS4_IN8nav_msgs3msg9Odometry_ISaIvEEEEEES3_IFvSN_SF_EES3_IFvS4_IS6_EEES3_IFvSS_SF_EEEEEEEDcSt16in_place_index_tILm0EEOT_
FNDA:0,_ZNSt8__detail9__variant5__getIRNS0_15_Variadic_unionIJSt8functionIFvRKSt10shared_ptrIKN6rclcpp17SerializedMessageEEEES3_IFvSA_RKNS5_11MessageInfoEEES3_IFvS4_IN8nav_msgs3msg9Odometry_ISaIvEEEEEES3_IFvSN_SF_EES3_IFvS4_IS6_EEES3_IFvSS_SF_EEEEEEEDcSt16in_place_index_tILm0EEOT_
FN:284,_ZNSt8__detail9__variant5__getIRKNS0_15_Variadic_unionIJSt8functionIFvSt10shared_ptrIN6rclcpp17SerializedMessageEEEES3_IFvS7_RKNS5_11MessageInfoEEEEEEEEDcSt16in_place_index_tILm0EEOT_
FNDA:0,_ZNSt8__detail9__variant5__getIRKNS0_15_Variadic_unionIJSt8functionIFvSt10shared_ptrIN6rclcpp17SerializedMessageEEEES3_IFvS7_RKNS5_11MessageInfoEEEEEEEEDcSt16in_place_index_tILm0EEOT_
FN:284,_ZNSt8__detail9__variant5__getIRKNS0_15_Variadic_unionIJSt8functionIFvSt10shared_ptrIKN6rclcpp17SerializedMessageEEEES3_IFvS8_RKNS5_11MessageInfoEEES3_IFvRKS4_IKN8nav_msgs3msg9Odometry_ISaIvEEEEEES3_IFvSO_SD_EES3_IFvRKS8_EES3_IFvSU_SD_EES3_IFvS4_ISK_EEES3_IFvSZ_SD_EES3_IFvS4_IS6_EEES3_IFvS14_SD_EEEEEEEDcSt16in_place_index_tILm0EEOT_
FNDA:0,_ZNSt8__detail9__variant5__getIRKNS0_15_Variadic_unionIJSt8functionIFvSt10shared_ptrIKN6rclcpp17SerializedMessageEEEES3_IFvS8_RKNS5_11MessageInfoEEES3_IFvRKS4_IKN8nav_msgs3msg9Odometry_ISaIvEEEEEES3_IFvSO_SD_EES3_IFvRKS8_EES3_IFvSU_SD_EES3_IFvS4_ISK_EEES3_IFvSZ_SD_EES3_IFvS4_IS6_EEES3_IFvS14_SD_EEEEEEEDcSt16in_place_index_tILm0EEOT_
FN:284,_ZNSt8__detail9__variant5__getIRNS0_15_Variadic_unionIJSt8functionIFvSt10shared_ptrIKN8nav_msgs3msg9Odometry_ISaIvEEEERKN6rclcpp11MessageInfoEEES3_IFvS4_IKNSC_17SerializedMessageEEEES3_IFvSK_SF_EES3_IFvRKSB_EES3_IFvSQ_SF_EES3_IFvRKSK_EES3_IFvSW_SF_EES3_IFvS4_IS9_EEES3_IFvS11_SF_EES3_IFvS4_ISI_EEES3_IFvS16_SF_EEEEEEEDcSt16in_place_index_tILm0EEOT_
FNDA:0,_ZNSt8__detail9__variant5__getIRNS0_15_Variadic_unionIJSt8functionIFvSt10shared_ptrIKN8nav_msgs3msg9Odometry_ISaIvEEEERKN6rclcpp11MessageInfoEEES3_IFvS4_IKNSC_17SerializedMessageEEEES3_IFvSK_SF_EES3_IFvRKSB_EES3_IFvSQ_SF_EES3_IFvRKSK_EES3_IFvSW_SF_EES3_IFvS4_IS9_EEES3_IFvS11_SF_EES3_IFvS4_ISI_EEES3_IFvS16_SF_EEEEEEEDcSt16in_place_index_tILm0EEOT_
FN:284,_ZNSt8__detail9__variant5__getIRKNS0_15_Variadic_unionIJSt8functionIFvRKN8nav_msgs3msg9Odometry_ISaIvEEERKN6rclcpp11MessageInfoEEES3_IFvRKNSB_17SerializedMessageEEES3_IFvSJ_SE_EES3_IFvSt10unique_ptrIS8_St14default_deleteIS8_EEEES3_IFvSR_SE_EES3_IFvSO_ISH_SP_ISH_EEEES3_IFvSX_SE_EES3_IFvSt10shared_ptrIS9_EEES3_IFvS13_SE_EES3_IFvS12_ISI_EEES3_IFvS18_SE_EES3_IFvRKS13_EES3_IFvS1E_SE_EES3_IFvRKS18_EES3_IFvS1K_SE_EES3_IFvS12_IS8_EEES3_IFvS1P_SE_EES3_IFvS12_ISH_EEES3_IFvS1U_SE_EEEEEEEDcSt16in_place_index_tILm0EEOT_
FNDA:0,_ZNSt8__detail9__variant5__getIRKNS0_15_Variadic_unionIJSt8functionIFvRKN8nav_msgs3msg9Odometry_ISaIvEEERKN6rclcpp11MessageInfoEEES3_IFvRKNSB_17SerializedMessageEEES3_IFvSJ_SE_EES3_IFvSt10unique_ptrIS8_St14default_deleteIS8_EEEES3_IFvSR_SE_EES3_IFvSO_ISH_SP_ISH_EEEES3_IFvSX_SE_EES3_IFvSt10shared_ptrIS9_EEES3_IFvS13_SE_EES3_IFvS12_ISI_EEES3_IFvS18_SE_EES3_IFvRKS13_EES3_IFvS1E_SE_EES3_IFvRKS18_EES3_IFvS1K_SE_EES3_IFvS12_IS8_EEES3_IFvS1P_SE_EES3_IFvS12_ISH_EEES3_IFvS1U_SE_EEEEEEEDcSt16in_place_index_tILm0EEOT_
FN:284,_ZNSt8__detail9__variant5__getIRNS0_15_Variadic_unionIJSt8functionIFvSt10unique_ptrIN8nav_msgs3msg9Odometry_ISaIvEEESt14default_deleteIS9_EEEES3_IFvSC_RKN6rclcpp11MessageInfoEEES3_IFvS4_INSF_17SerializedMessageESA_ISL_EEEES3_IFvSN_SI_EES3_IFvSt10shared_ptrIKS9_EEES3_IFvSU_SI_EES3_IFvSS_IKSL_EEES3_IFvS10_SI_EES3_IFvRKSU_EES3_IFvS16_SI_EES3_IFvRKS10_EES3_IFvS1C_SI_EES3_IFvSS_IS9_EEES3_IFvS1H_SI_EES3_IFvSS_ISL_EEES3_IFvS1M_SI_EEEEEEEDcSt16in_place_index_tILm0EEOT_
FNDA:0,_ZNSt8__detail9__variant5__getIRNS0_15_Variadic_unionIJSt8functionIFvSt10unique_ptrIN8nav_msgs3msg9Odometry_ISaIvEEESt14default_deleteIS9_EEEES3_IFvSC_RKN6rclcpp11MessageInfoEEES3_IFvS4_INSF_17SerializedMessageESA_ISL_EEEES3_IFvSN_SI_EES3_IFvSt10shared_ptrIKS9_EEES3_IFvSU_SI_EES3_IFvSS_IKSL_EEES3_IFvS10_SI_EES3_IFvRKSU_EES3_IFvS16_SI_EES3_IFvRKS10_EES3_IFvS1C_SI_EES3_IFvSS_IS9_EEES3_IFvS1H_SI_EES3_IFvSS_ISL_EEES3_IFvS1M_SI_EEEEEEEDcSt16in_place_index_tILm0EEOT_
FN:284,_ZNSt8__detail9__variant5__getIRNS0_15_Variadic_unionIJSt8functionIFvRKSt10shared_ptrIKN6rclcpp17SerializedMessageEERKNS5_11MessageInfoEEES3_IFvS4_IN8nav_msgs3msg9Odometry_ISaIvEEEEEES3_IFvSL_SD_EES3_IFvS4_IS6_EEES3_IFvSQ_SD_EEEEEEEDcSt16in_place_index_tILm0EEOT_
FNDA:0,_ZNSt8__detail9__variant5__getIRNS0_15_Variadic_unionIJSt8functionIFvRKSt10shared_ptrIKN6rclcpp17SerializedMessageEERKNS5_11MessageInfoEEES3_IFvS4_IN8nav_msgs3msg9Odometry_ISaIvEEEEEES3_IFvSL_SD_EES3_IFvS4_IS6_EEES3_IFvSQ_SD_EEEEEEEDcSt16in_place_index_tILm0EEOT_
FN:284,_ZNSt8__detail9__variant5__getIRNS0_15_Variadic_unionIJSt8functionIFvSt10shared_ptrIKN6rclcpp17SerializedMessageEEEES3_IFvS8_RKNS5_11MessageInfoEEES3_IFvRKS4_IKN8nav_msgs3msg9Odometry_ISaIvEEEEEES3_IFvSO_SD_EES3_IFvRKS8_EES3_IFvSU_SD_EES3_IFvS4_ISK_EEES3_IFvSZ_SD_EES3_IFvS4_IS6_EEES3_IFvS14_SD_EEEEEEEDcSt16in_place_index_tILm0EEOT_
FNDA:0,_ZNSt8__detail9__variant5__getIRNS0_15_Variadic_unionIJSt8functionIFvSt10shared_ptrIKN6rclcpp17SerializedMessageEEEES3_IFvS8_RKNS5_11MessageInfoEEES3_IFvRKS4_IKN8nav_msgs3msg9Odometry_ISaIvEEEEEES3_IFvSO_SD_EES3_IFvRKS8_EES3_IFvSU_SD_EES3_IFvS4_ISK_EEES3_IFvSZ_SD_EES3_IFvS4_IS6_EEES3_IFvS14_SD_EEEEEEEDcSt16in_place_index_tILm0EEOT_
FN:284,_ZNSt8__detail9__variant5__getIRKNS0_15_Variadic_unionIJSt8functionIFvSt10unique_ptrIN8nav_msgs3msg9Odometry_ISaIvEEESt14default_deleteIS9_EERKN6rclcpp11MessageInfoEEES3_IFvS4_INSD_17SerializedMessageESA_ISJ_EEEES3_IFvSL_SG_EES3_IFvSt10shared_ptrIKS9_EEES3_IFvSS_SG_EES3_IFvSQ_IKSJ_EEES3_IFvSY_SG_EES3_IFvRKSS_EES3_IFvS14_SG_EES3_IFvRKSY_EES3_IFvS1A_SG_EES3_IFvSQ_IS9_EEES3_IFvS1F_SG_EES3_IFvSQ_ISJ_EEES3_IFvS1K_SG_EEEEEEEDcSt16in_place_index_tILm0EEOT_
FNDA:0,_ZNSt8__detail9__variant5__getIRKNS0_15_Variadic_unionIJSt8functionIFvSt10unique_ptrIN8nav_msgs3msg9Odometry_ISaIvEEESt14default_deleteIS9_EERKN6rclcpp11MessageInfoEEES3_IFvS4_INSD_17SerializedMessageESA_ISJ_EEEES3_IFvSL_SG_EES3_IFvSt10shared_ptrIKS9_EEES3_IFvSS_SG_EES3_IFvSQ_IKSJ_EEES3_IFvSY_SG_EES3_IFvRKSS_EES3_IFvS14_SG_EES3_IFvRKSY_EES3_IFvS1A_SG_EES3_IFvSQ_IS9_EEES3_IFvS1F_SG_EES3_IFvSQ_ISJ_EEES3_IFvS1K_SG_EEEEEEEDcSt16in_place_index_tILm0EEOT_
FN:284,_ZNSt8__detail9__variant5__getIRKNS0_15_Variadic_unionIJSt8functionIFvSt10unique_ptrIN6rclcpp17SerializedMessageESt14default_deleteIS6_EEEES3_IFvS9_RKNS5_11MessageInfoEEES3_IFvSt10shared_ptrIKN8nav_msgs3msg9Odometry_ISaIvEEEEEES3_IFvSO_SE_EES3_IFvSH_IKS6_EEES3_IFvSU_SE_EES3_IFvRKSO_EES3_IFvS10_SE_EES3_IFvRKSU_EES3_IFvS16_SE_EES3_IFvSH_ISM_EEES3_IFvS1B_SE_EES3_IFvSH_IS6_EEES3_IFvS1G_SE_EEEEEEEDcSt16in_place_index_tILm0EEOT_
FNDA:0,_ZNSt8__detail9__variant5__getIRKNS0_15_Variadic_unionIJSt8functionIFvSt10unique_ptrIN6rclcpp17SerializedMessageESt14default_deleteIS6_EEEES3_IFvS9_RKNS5_11MessageInfoEEES3_IFvSt10shared_ptrIKN8nav_msgs3msg9Odometry_ISaIvEEEEEES3_IFvSO_SE_EES3_IFvSH_IKS6_EEES3_IFvSU_SE_EES3_IFvRKSO_EES3_IFvS10_SE_EES3_IFvRKSU_EES3_IFvS16_SE_EES3_IFvSH_ISM_EEES3_IFvS1B_SE_EES3_IFvSH_IS6_EEES3_IFvS1G_SE_EEEEEEEDcSt16in_place_index_tILm0EEOT_
FN:284,_ZNSt8__detail9__variant5__getIRKNS0_15_Variadic_unionIJSt8functionIFvSt10shared_ptrIN8nav_msgs3msg9Odometry_ISaIvEEEEEES3_IFvSA_RKN6rclcpp11MessageInfoEEES3_IFvS4_INSD_17SerializedMessageEEEES3_IFvSK_SG_EEEEEEEDcSt16in_place_index_tILm0EEOT_
FNDA:0,_ZNSt8__detail9__variant5__getIRKNS0_15_Variadic_unionIJSt8functionIFvSt10shared_ptrIN8nav_msgs3msg9Odometry_ISaIvEEEEEES3_IFvSA_RKN6rclcpp11MessageInfoEEES3_IFvS4_INSD_17SerializedMessageEEEES3_IFvSK_SG_EEEEEEEDcSt16in_place_index_tILm0EEOT_
FN:284,_ZNSt8__detail9__variant5__getIRNS0_15_Variadic_unionIJSt8functionIFvSt10shared_ptrIKN6rclcpp17SerializedMessageEERKNS5_11MessageInfoEEES3_IFvRKS4_IKN8nav_msgs3msg9Odometry_ISaIvEEEEEES3_IFvSM_SB_EES3_IFvRKS8_EES3_IFvSS_SB_EES3_IFvS4_ISI_EEES3_IFvSX_SB_EES3_IFvS4_IS6_EEES3_IFvS12_SB_EEEEEEEDcSt16in_place_index_tILm0EEOT_
FNDA:0,_ZNSt8__detail9__variant5__getIRNS0_15_Variadic_unionIJSt8functionIFvSt10shared_ptrIKN6rclcpp17SerializedMessageEERKNS5_11MessageInfoEEES3_IFvRKS4_IKN8nav_msgs3msg9Odometry_ISaIvEEEEEES3_IFvSM_SB_EES3_IFvRKS8_EES3_IFvSS_SB_EES3_IFvS4_ISI_EEES3_IFvSX_SB_EES3_IFvS4_IS6_EEES3_IFvS12_SB_EEEEEEEDcSt16in_place_index_tILm0EEOT_
FN:284,_ZNSt8__detail9__variant5__getIRNS0_15_Variadic_unionIJSt8functionIFvSt10shared_ptrIN8nav_msgs3msg9Odometry_ISaIvEEEEEES3_IFvSA_RKN6rclcpp11MessageInfoEEES3_IFvS4_INSD_17SerializedMessageEEEES3_IFvSK_SG_EEEEEEEDcSt16in_place_index_tILm0EEOT_
FNDA:0,_ZNSt8__detail9__variant5__getIRNS0_15_Variadic_unionIJSt8functionIFvSt10shared_ptrIN8nav_msgs3msg9Odometry_ISaIvEEEEEES3_IFvSA_RKN6rclcpp11MessageInfoEEES3_IFvS4_INSD_17SerializedMessageEEEES3_IFvSK_SG_EEEEEEEDcSt16in_place_index_tILm0EEOT_
FN:284,_ZNSt8__detail9__variant5__getIRNS0_15_Variadic_unionIJSt8functionIFvRKSt10shared_ptrIKN8nav_msgs3msg9Odometry_ISaIvEEEERKN6rclcpp11MessageInfoEEES3_IFvRKS4_IKNSE_17SerializedMessageEEEES3_IFvSO_SH_EES3_IFvS4_IS9_EEES3_IFvST_SH_EES3_IFvS4_ISK_EEES3_IFvSY_SH_EEEEEEEDcSt16in_place_index_tILm0EEOT_
FNDA:0,_ZNSt8__detail9__variant5__getIRNS0_15_Variadic_unionIJSt8functionIFvRKSt10shared_ptrIKN8nav_msgs3msg9Odometry_ISaIvEEEERKN6rclcpp11MessageInfoEEES3_IFvRKS4_IKNSE_17SerializedMessageEEEES3_IFvSO_SH_EES3_IFvS4_IS9_EEES3_IFvST_SH_EES3_IFvS4_ISK_EEES3_IFvSY_SH_EEEEEEEDcSt16in_place_index_tILm0EEOT_
FN:284,_ZNSt8__detail9__variant5__getIRKNS0_15_Variadic_unionIJSt8functionIFvSt10unique_ptrIN8nav_msgs3msg9Odometry_ISaIvEEESt14default_deleteIS9_EEEES3_IFvSC_RKN6rclcpp11MessageInfoEEES3_IFvS4_INSF_17SerializedMessageESA_ISL_EEEES3_IFvSN_SI_EES3_IFvSt10shared_ptrIKS9_EEES3_IFvSU_SI_EES3_IFvSS_IKSL_EEES3_IFvS10_SI_EES3_IFvRKSU_EES3_IFvS16_SI_EES3_IFvRKS10_EES3_IFvS1C_SI_EES3_IFvSS_IS9_EEES3_IFvS1H_SI_EES3_IFvSS_ISL_EEES3_IFvS1M_SI_EEEEEEEDcSt16in_place_index_tILm0EEOT_
FNDA:0,_ZNSt8__detail9__variant5__getIRKNS0_15_Variadic_unionIJSt8functionIFvSt10unique_ptrIN8nav_msgs3msg9Odometry_ISaIvEEESt14default_deleteIS9_EEEES3_IFvSC_RKN6rclcpp11MessageInfoEEES3_IFvS4_INSF_17SerializedMessageESA_ISL_EEEES3_IFvSN_SI_EES3_IFvSt10shared_ptrIKS9_EEES3_IFvSU_SI_EES3_IFvSS_IKSL_EEES3_IFvS10_SI_EES3_IFvRKSU_EES3_IFvS16_SI_EES3_IFvRKS10_EES3_IFvS1C_SI_EES3_IFvSS_IS9_EEES3_IFvS1H_SI_EES3_IFvSS_ISL_EEES3_IFvS1M_SI_EEEEEEEDcSt16in_place_index_tILm0EEOT_
FN:284,_ZNSt8__detail9__variant5__getIRKNS0_15_Variadic_unionIJSt8functionIFvRKSt10shared_ptrIKN6rclcpp17SerializedMessageEERKNS5_11MessageInfoEEES3_IFvS4_IN8nav_msgs3msg9Odometry_ISaIvEEEEEES3_IFvSL_SD_EES3_IFvS4_IS6_EEES3_IFvSQ_SD_EEEEEEEDcSt16in_place_index_tILm0EEOT_
FNDA:0,_ZNSt8__detail9__variant5__getIRKNS0_15_Variadic_unionIJSt8functionIFvRKSt10shared_ptrIKN6rclcpp17SerializedMessageEERKNS5_11MessageInfoEEES3_IFvS4_IN8nav_msgs3msg9Odometry_ISaIvEEEEEES3_IFvSL_SD_EES3_IFvS4_IS6_EEES3_IFvSQ_SD_EEEEEEEDcSt16in_place_index_tILm0EEOT_
FN:284,_ZNSt8__detail9__variant5__getIRNS0_15_Variadic_unionIJSt8functionIFvSt10shared_ptrIN8nav_msgs3msg9Odometry_ISaIvEEEERKN6rclcpp11MessageInfoEEES3_IFvS4_INSB_17SerializedMessageEEEES3_IFvSI_SE_EEEEEEEDcSt16in_place_index_tILm0EEOT_
FNDA:0,_ZNSt8__detail9__variant5__getIRNS0_15_Variadic_unionIJSt8functionIFvSt10shared_ptrIN8nav_msgs3msg9Odometry_ISaIvEEEERKN6rclcpp11MessageInfoEEES3_IFvS4_INSB_17SerializedMessageEEEES3_IFvSI_SE_EEEEEEEDcSt16in_place_index_tILm0EEOT_
FN:284,_ZNSt8__detail9__variant5__getIRNS0_15_Variadic_unionIJSt8functionIFvRKSt10shared_ptrIKN8nav_msgs3msg9Odometry_ISaIvEEEEEES3_IFvSD_RKN6rclcpp11MessageInfoEEES3_IFvRKS4_IKNSG_17SerializedMessageEEEES3_IFvSQ_SJ_EES3_IFvS4_IS9_EEES3_IFvSV_SJ_EES3_IFvS4_ISM_EEES3_IFvS10_SJ_EEEEEEEDcSt16in_place_index_tILm0EEOT_
FNDA:0,_ZNSt8__detail9__variant5__getIRNS0_15_Variadic_unionIJSt8functionIFvRKSt10shared_ptrIKN8nav_msgs3msg9Odometry_ISaIvEEEEEES3_IFvSD_RKN6rclcpp11MessageInfoEEES3_IFvRKS4_IKNSG_17SerializedMessageEEEES3_IFvSQ_SJ_EES3_IFvS4_IS9_EEES3_IFvSV_SJ_EES3_IFvS4_ISM_EEES3_IFvS10_SJ_EEEEEEEDcSt16in_place_index_tILm0EEOT_
FN:284,_ZNSt8__detail9__variant5__getIRKNS0_15_Variadic_unionIJSt8functionIFvSt10shared_ptrIN6rclcpp17SerializedMessageEERKNS5_11MessageInfoEEEEEEEEDcSt16in_place_index_tILm0EEOT_
FNDA:0,_ZNSt8__detail9__variant5__getIRKNS0_15_Variadic_unionIJSt8functionIFvSt10shared_ptrIN6rclcpp17SerializedMessageEERKNS5_11MessageInfoEEEEEEEEDcSt16in_place_index_tILm0EEOT_
FN:284,_ZNSt8__detail9__variant5__getIRNS0_15_Variadic_unionIJSt8functionIFvSt10shared_ptrIN6rclcpp17SerializedMessageEERKNS5_11MessageInfoEEEEEEEEDcSt16in_place_index_tILm0EEOT_
FNDA:0,_ZNSt8__detail9__variant5__getIRNS0_15_Variadic_unionIJSt8functionIFvSt10shared_ptrIN6rclcpp17SerializedMessageEERKNS5_11MessageInfoEEEEEEEEDcSt16in_place_index_tILm0EEOT_
FN:284,_ZNSt8__detail9__variant5__getIRKNS0_15_Variadic_unionIJSt8functionIFvSt10shared_ptrIKN6rclcpp17SerializedMessageEERKNS5_11MessageInfoEEES3_IFvRKS4_IKN8nav_msgs3msg9Odometry_ISaIvEEEEEES3_IFvSM_SB_EES3_IFvRKS8_EES3_IFvSS_SB_EES3_IFvS4_ISI_EEES3_IFvSX_SB_EES3_IFvS4_IS6_EEES3_IFvS12_SB_EEEEEEEDcSt16in_place_index_tILm0EEOT_
FNDA:0,_ZNSt8__detail9__variant5__getIRKNS0_15_Variadic_unionIJSt8functionIFvSt10shared_ptrIKN6rclcpp17SerializedMessageEERKNS5_11MessageInfoEEES3_IFvRKS4_IKN8nav_msgs3msg9Odometry_ISaIvEEEEEES3_IFvSM_SB_EES3_IFvRKS8_EES3_IFvSS_SB_EES3_IFvS4_ISI_EEES3_IFvSX_SB_EES3_IFvS4_IS6_EEES3_IFvS12_SB_EEEEEEEDcSt16in_place_index_tILm0EEOT_
FN:284,_ZNSt8__detail9__variant5__getIRKNS0_15_Variadic_unionIJSt8functionIFvRKN6rclcpp17SerializedMessageEEES3_IFvS7_RKNS4_11MessageInfoEEES3_IFvSt10unique_ptrIN8nav_msgs3msg9Odometry_ISaIvEEESt14default_deleteISK_EEEES3_IFvSN_SC_EES3_IFvSF_IS5_SL_IS5_EEEES3_IFvST_SC_EES3_IFvSt10shared_ptrIKSK_EEES3_IFvS10_SC_EES3_IFvSY_IS6_EEES3_IFvS15_SC_EES3_IFvRKS10_EES3_IFvS1B_SC_EES3_IFvRKS15_EES3_IFvS1H_SC_EES3_IFvSY_ISK_EEES3_IFvS1M_SC_EES3_IFvSY_IS5_EEES3_IFvS1R_SC_EEEEEEEDcSt16in_place_index_tILm0EEOT_
FNDA:0,_ZNSt8__detail9__variant5__getIRKNS0_15_Variadic_unionIJSt8functionIFvRKN6rclcpp17SerializedMessageEEES3_IFvS7_RKNS4_11MessageInfoEEES3_IFvSt10unique_ptrIN8nav_msgs3msg9Odometry_ISaIvEEESt14default_deleteISK_EEEES3_IFvSN_SC_EES3_IFvSF_IS5_SL_IS5_EEEES3_IFvST_SC_EES3_IFvSt10shared_ptrIKSK_EEES3_IFvS10_SC_EES3_IFvSY_IS6_EEES3_IFvS15_SC_EES3_IFvRKS10_EES3_IFvS1B_SC_EES3_IFvRKS15_EES3_IFvS1H_SC_EES3_IFvSY_ISK_EEES3_IFvS1M_SC_EES3_IFvSY_IS5_EEES3_IFvS1R_SC_EEEEEEEDcSt16in_place_index_tILm0EEOT_
FN:284,_ZNSt8__detail9__variant5__getIRNS0_15_Variadic_unionIJSt8functionIFvRKN8nav_msgs3msg9Odometry_ISaIvEEEEES3_IFvSA_RKN6rclcpp11MessageInfoEEES3_IFvRKNSD_17SerializedMessageEEES3_IFvSL_SG_EES3_IFvSt10unique_ptrIS8_St14default_deleteIS8_EEEES3_IFvST_SG_EES3_IFvSQ_ISJ_SR_ISJ_EEEES3_IFvSZ_SG_EES3_IFvSt10shared_ptrIS9_EEES3_IFvS15_SG_EES3_IFvS14_ISK_EEES3_IFvS1A_SG_EES3_IFvRKS15_EES3_IFvS1G_SG_EES3_IFvRKS1A_EES3_IFvS1M_SG_EES3_IFvS14_IS8_EEES3_IFvS1R_SG_EES3_IFvS14_ISJ_EEES3_IFvS1W_SG_EEEEEEEDcSt16in_place_index_tILm0EEOT_
FNDA:0,_ZNSt8__detail9__variant5__getIRNS0_15_Variadic_unionIJSt8functionIFvRKN8nav_msgs3msg9Odometry_ISaIvEEEEES3_IFvSA_RKN6rclcpp11MessageInfoEEES3_IFvRKNSD_17SerializedMessageEEES3_IFvSL_SG_EES3_IFvSt10unique_ptrIS8_St14default_deleteIS8_EEEES3_IFvST_SG_EES3_IFvSQ_ISJ_SR_ISJ_EEEES3_IFvSZ_SG_EES3_IFvSt10shared_ptrIS9_EEES3_IFvS15_SG_EES3_IFvS14_ISK_EEES3_IFvS1A_SG_EES3_IFvRKS15_EES3_IFvS1G_SG_EES3_IFvRKS1A_EES3_IFvS1M_SG_EES3_IFvS14_IS8_EEES3_IFvS1R_SG_EES3_IFvS14_ISJ_EEES3_IFvS1W_SG_EEEEEEEDcSt16in_place_index_tILm0EEOT_
FN:284,_ZNSt8__detail9__variant5__getIRNS0_15_Variadic_unionIJSt8functionIFvSt10unique_ptrIN6rclcpp17SerializedMessageESt14default_deleteIS6_EERKNS5_11MessageInfoEEES3_IFvSt10shared_ptrIKN8nav_msgs3msg9Odometry_ISaIvEEEEEES3_IFvSM_SC_EES3_IFvSF_IKS6_EEES3_IFvSS_SC_EES3_IFvRKSM_EES3_IFvSY_SC_EES3_IFvRKSS_EES3_IFvS14_SC_EES3_IFvSF_ISK_EEES3_IFvS19_SC_EES3_IFvSF_IS6_EEES3_IFvS1E_SC_EEEEEEEDcSt16in_place_index_tILm0EEOT_
FNDA:0,_ZNSt8__detail9__variant5__getIRNS0_15_Variadic_unionIJSt8functionIFvSt10unique_ptrIN6rclcpp17SerializedMessageESt14default_deleteIS6_EERKNS5_11MessageInfoEEES3_IFvSt10shared_ptrIKN8nav_msgs3msg9Odometry_ISaIvEEEEEES3_IFvSM_SC_EES3_IFvSF_IKS6_EEES3_IFvSS_SC_EES3_IFvRKSM_EES3_IFvSY_SC_EES3_IFvRKSS_EES3_IFvS14_SC_EES3_IFvSF_ISK_EEES3_IFvS19_SC_EES3_IFvSF_IS6_EEES3_IFvS1E_SC_EEEEEEEDcSt16in_place_index_tILm0EEOT_
FN:284,_ZNSt8__detail9__variant5__getIRNS0_15_Variadic_unionIJSt8functionIFvSt10unique_ptrIN6rclcpp17SerializedMessageESt14default_deleteIS6_EEEES3_IFvS9_RKNS5_11MessageInfoEEES3_IFvSt10shared_ptrIKN8nav_msgs3msg9Odometry_ISaIvEEEEEES3_IFvSO_SE_EES3_IFvSH_IKS6_EEES3_IFvSU_SE_EES3_IFvRKSO_EES3_IFvS10_SE_EES3_IFvRKSU_EES3_IFvS16_SE_EES3_IFvSH_ISM_EEES3_IFvS1B_SE_EES3_IFvSH_IS6_EEES3_IFvS1G_SE_EEEEEEEDcSt16in_place_index_tILm0EEOT_
FNDA:0,_ZNSt8__detail9__variant5__getIRNS0_15_Variadic_unionIJSt8functionIFvSt10unique_ptrIN6rclcpp17SerializedMessageESt14default_deleteIS6_EEEES3_IFvS9_RKNS5_11MessageInfoEEES3_IFvSt10shared_ptrIKN8nav_msgs3msg9Odometry_ISaIvEEEEEES3_IFvSO_SE_EES3_IFvSH_IKS6_EEES3_IFvSU_SE_EES3_IFvRKSO_EES3_IFvS10_SE_EES3_IFvRKSU_EES3_IFvS16_SE_EES3_IFvSH_ISM_EEES3_IFvS1B_SE_EES3_IFvSH_IS6_EEES3_IFvS1G_SE_EEEEEEEDcSt16in_place_index_tILm0EEOT_
FN:284,_ZNSt8__detail9__variant5__getIRKNS0_15_Variadic_unionIJSt8functionIFvSt10shared_ptrIKN8nav_msgs3msg9Odometry_ISaIvEEEEEES3_IFvSB_RKN6rclcpp11MessageInfoEEES3_IFvS4_IKNSE_17SerializedMessageEEEES3_IFvSM_SH_EES3_IFvRKSB_EES3_IFvSS_SH_EES3_IFvRKSM_EES3_IFvSY_SH_EES3_IFvS4_IS9_EEES3_IFvS13_SH_EES3_IFvS4_ISK_EEES3_IFvS18_SH_EEEEEEEDcSt16in_place_index_tILm0EEOT_
FNDA:0,_ZNSt8__detail9__variant5__getIRKNS0_15_Variadic_unionIJSt8functionIFvSt10shared_ptrIKN8nav_msgs3msg9Odometry_ISaIvEEEEEES3_IFvSB_RKN6rclcpp11MessageInfoEEES3_IFvS4_IKNSE_17SerializedMessageEEEES3_IFvSM_SH_EES3_IFvRKSB_EES3_IFvSS_SH_EES3_IFvRKSM_EES3_IFvSY_SH_EES3_IFvS4_IS9_EEES3_IFvS13_SH_EES3_IFvS4_ISK_EEES3_IFvS18_SH_EEEEEEEDcSt16in_place_index_tILm0EEOT_
FN:284,_ZNSt8__detail9__variant5__getIRNS0_15_Variadic_unionIJSt8functionIFvRKN8nav_msgs3msg9Odometry_ISaIvEEERKN6rclcpp11MessageInfoEEES3_IFvRKNSB_17SerializedMessageEEES3_IFvSJ_SE_EES3_IFvSt10unique_ptrIS8_St14default_deleteIS8_EEEES3_IFvSR_SE_EES3_IFvSO_ISH_SP_ISH_EEEES3_IFvSX_SE_EES3_IFvSt10shared_ptrIS9_EEES3_IFvS13_SE_EES3_IFvS12_ISI_EEES3_IFvS18_SE_EES3_IFvRKS13_EES3_IFvS1E_SE_EES3_IFvRKS18_EES3_IFvS1K_SE_EES3_IFvS12_IS8_EEES3_IFvS1P_SE_EES3_IFvS12_ISH_EEES3_IFvS1U_SE_EEEEEEEDcSt16in_place_index_tILm0EEOT_
FNDA:0,_ZNSt8__detail9__variant5__getIRNS0_15_Variadic_unionIJSt8functionIFvRKN8nav_msgs3msg9Odometry_ISaIvEEERKN6rclcpp11MessageInfoEEES3_IFvRKNSB_17SerializedMessageEEES3_IFvSJ_SE_EES3_IFvSt10unique_ptrIS8_St14default_deleteIS8_EEEES3_IFvSR_SE_EES3_IFvSO_ISH_SP_ISH_EEEES3_IFvSX_SE_EES3_IFvSt10shared_ptrIS9_EEES3_IFvS13_SE_EES3_IFvS12_ISI_EEES3_IFvS18_SE_EES3_IFvRKS13_EES3_IFvS1E_SE_EES3_IFvRKS18_EES3_IFvS1K_SE_EES3_IFvS12_IS8_EEES3_IFvS1P_SE_EES3_IFvS12_ISH_EEES3_IFvS1U_SE_EEEEEEEDcSt16in_place_index_tILm0EEOT_
FN:284,_ZNSt8__detail9__variant5__getIRKNS0_15_Variadic_unionIJSt8functionIFvSt10shared_ptrIKN8nav_msgs3msg9Odometry_ISaIvEEEERKN6rclcpp11MessageInfoEEES3_IFvS4_IKNSC_17SerializedMessageEEEES3_IFvSK_SF_EES3_IFvRKSB_EES3_IFvSQ_SF_EES3_IFvRKSK_EES3_IFvSW_SF_EES3_IFvS4_IS9_EEES3_IFvS11_SF_EES3_IFvS4_ISI_EEES3_IFvS16_SF_EEEEEEEDcSt16in_place_index_tILm0EEOT_
FNDA:0,_ZNSt8__detail9__variant5__getIRKNS0_15_Variadic_unionIJSt8functionIFvSt10shared_ptrIKN8nav_msgs3msg9Odometry_ISaIvEEEERKN6rclcpp11MessageInfoEEES3_IFvS4_IKNSC_17SerializedMessageEEEES3_IFvSK_SF_EES3_IFvRKSB_EES3_IFvSQ_SF_EES3_IFvRKSK_EES3_IFvSW_SF_EES3_IFvS4_IS9_EEES3_IFvS11_SF_EES3_IFvS4_ISI_EEES3_IFvS16_SF_EEEEEEEDcSt16in_place_index_tILm0EEOT_
FN:284,_ZNSt8__detail9__variant5__getIRKNS0_15_Variadic_unionIJSt8functionIFvRKN8nav_msgs3msg9Odometry_ISaIvEEEEES3_IFvSA_RKN6rclcpp11MessageInfoEEES3_IFvRKNSD_17SerializedMessageEEES3_IFvSL_SG_EES3_IFvSt10unique_ptrIS8_St14default_deleteIS8_EEEES3_IFvST_SG_EES3_IFvSQ_ISJ_SR_ISJ_EEEES3_IFvSZ_SG_EES3_IFvSt10shared_ptrIS9_EEES3_IFvS15_SG_EES3_IFvS14_ISK_EEES3_IFvS1A_SG_EES3_IFvRKS15_EES3_IFvS1G_SG_EES3_IFvRKS1A_EES3_IFvS1M_SG_EES3_IFvS14_IS8_EEES3_IFvS1R_SG_EES3_IFvS14_ISJ_EEES3_IFvS1W_SG_EEEEEEEDcSt16in_place_index_tILm0EEOT_
FNDA:0,_ZNSt8__detail9__variant5__getIRKNS0_15_Variadic_unionIJSt8functionIFvRKN8nav_msgs3msg9Odometry_ISaIvEEEEES3_IFvSA_RKN6rclcpp11MessageInfoEEES3_IFvRKNSD_17SerializedMessageEEES3_IFvSL_SG_EES3_IFvSt10unique_ptrIS8_St14default_deleteIS8_EEEES3_IFvST_SG_EES3_IFvSQ_ISJ_SR_ISJ_EEEES3_IFvSZ_SG_EES3_IFvSt10shared_ptrIS9_EEES3_IFvS15_SG_EES3_IFvS14_ISK_EEES3_IFvS1A_SG_EES3_IFvRKS15_EES3_IFvS1G_SG_EES3_IFvRKS1A_EES3_IFvS1M_SG_EES3_IFvS14_IS8_EEES3_IFvS1R_SG_EES3_IFvS14_ISJ_EEES3_IFvS1W_SG_EEEEEEEDcSt16in_place_index_tILm0EEOT_
FN:284,_ZNSt8__detail9__variant5__getIRKNS0_15_Variadic_unionIJSt8functionIFvRKSt10shared_ptrIKN8nav_msgs3msg9Odometry_ISaIvEEEERKN6rclcpp11MessageInfoEEES3_IFvRKS4_IKNSE_17SerializedMessageEEEES3_IFvSO_SH_EES3_IFvS4_IS9_EEES3_IFvST_SH_EES3_IFvS4_ISK_EEES3_IFvSY_SH_EEEEEEEDcSt16in_place_index_tILm0EEOT_
FNDA:0,_ZNSt8__detail9__variant5__getIRKNS0_15_Variadic_unionIJSt8functionIFvRKSt10shared_ptrIKN8nav_msgs3msg9Odometry_ISaIvEEEERKN6rclcpp11MessageInfoEEES3_IFvRKS4_IKNSE_17SerializedMessageEEEES3_IFvSO_SH_EES3_IFvS4_IS9_EEES3_IFvST_SH_EES3_IFvS4_ISK_EEES3_IFvSY_SH_EEEEEEEDcSt16in_place_index_tILm0EEOT_
FN:284,_ZNSt8__detail9__variant5__getIRNS0_15_Variadic_unionIJSt8functionIFvSt10shared_ptrIKN8nav_msgs3msg9Odometry_ISaIvEEEEEES3_IFvSB_RKN6rclcpp11MessageInfoEEES3_IFvS4_IKNSE_17SerializedMessageEEEES3_IFvSM_SH_EES3_IFvRKSB_EES3_IFvSS_SH_EES3_IFvRKSM_EES3_IFvSY_SH_EES3_IFvS4_IS9_EEES3_IFvS13_SH_EES3_IFvS4_ISK_EEES3_IFvS18_SH_EEEEEEEDcSt16in_place_index_tILm0EEOT_
FNDA:0,_ZNSt8__detail9__variant5__getIRNS0_15_Variadic_unionIJSt8functionIFvSt10shared_ptrIKN8nav_msgs3msg9Odometry_ISaIvEEEEEES3_IFvSB_RKN6rclcpp11MessageInfoEEES3_IFvS4_IKNSE_17SerializedMessageEEEES3_IFvSM_SH_EES3_IFvRKSB_EES3_IFvSS_SH_EES3_IFvRKSM_EES3_IFvSY_SH_EES3_IFvS4_IS9_EEES3_IFvS13_SH_EES3_IFvS4_ISK_EEES3_IFvS18_SH_EEEEEEEDcSt16in_place_index_tILm0EEOT_
FN:284,_ZNSt8__detail9__variant5__getIRKNS0_15_Variadic_unionIJSt8functionIFvRKSt10shared_ptrIKN8nav_msgs3msg9Odometry_ISaIvEEEEEES3_IFvSD_RKN6rclcpp11MessageInfoEEES3_IFvRKS4_IKNSG_17SerializedMessageEEEES3_IFvSQ_SJ_EES3_IFvS4_IS9_EEES3_IFvSV_SJ_EES3_IFvS4_ISM_EEES3_IFvS10_SJ_EEEEEEEDcSt16in_place_index_tILm0EEOT_
FNDA:0,_ZNSt8__detail9__variant5__getIRKNS0_15_Variadic_unionIJSt8functionIFvRKSt10shared_ptrIKN8nav_msgs3msg9Odometry_ISaIvEEEEEES3_IFvSD_RKN6rclcpp11MessageInfoEEES3_IFvRKS4_IKNSG_17SerializedMessageEEEES3_IFvSQ_SJ_EES3_IFvS4_IS9_EEES3_IFvSV_SJ_EES3_IFvS4_ISM_EEES3_IFvS10_SJ_EEEEEEEDcSt16in_place_index_tILm0EEOT_
FN:284,_ZNSt8__detail9__variant5__getIRKNS0_15_Variadic_unionIJSt8functionIFvSt10unique_ptrIN6rclcpp17SerializedMessageESt14default_deleteIS6_EERKNS5_11MessageInfoEEES3_IFvSt10shared_ptrIKN8nav_msgs3msg9Odometry_ISaIvEEEEEES3_IFvSM_SC_EES3_IFvSF_IKS6_EEES3_IFvSS_SC_EES3_IFvRKSM_EES3_IFvSY_SC_EES3_IFvRKSS_EES3_IFvS14_SC_EES3_IFvSF_ISK_EEES3_IFvS19_SC_EES3_IFvSF_IS6_EEES3_IFvS1E_SC_EEEEEEEDcSt16in_place_index_tILm0EEOT_
FNDA:0,_ZNSt8__detail9__variant5__getIRKNS0_15_Variadic_unionIJSt8functionIFvSt10unique_ptrIN6rclcpp17SerializedMessageESt14default_deleteIS6_EERKNS5_11MessageInfoEEES3_IFvSt10shared_ptrIKN8nav_msgs3msg9Odometry_ISaIvEEEEEES3_IFvSM_SC_EES3_IFvSF_IKS6_EEES3_IFvSS_SC_EES3_IFvRKSM_EES3_IFvSY_SC_EES3_IFvRKSS_EES3_IFvS14_SC_EES3_IFvSF_ISK_EEES3_IFvS19_SC_EES3_IFvSF_IS6_EEES3_IFvS1E_SC_EEEEEEEDcSt16in_place_index_tILm0EEOT_
FN:284,_ZNSt8__detail9__variant5__getIRNS0_15_Variadic_unionIJSt8functionIFvSt10unique_ptrIN8nav_msgs3msg9Odometry_ISaIvEEESt14default_deleteIS9_EERKN6rclcpp11MessageInfoEEES3_IFvS4_INSD_17SerializedMessageESA_ISJ_EEEES3_IFvSL_SG_EES3_IFvSt10shared_ptrIKS9_EEES3_IFvSS_SG_EES3_IFvSQ_IKSJ_EEES3_IFvSY_SG_EES3_IFvRKSS_EES3_IFvS14_SG_EES3_IFvRKSY_EES3_IFvS1A_SG_EES3_IFvSQ_IS9_EEES3_IFvS1F_SG_EES3_IFvSQ_ISJ_EEES3_IFvS1K_SG_EEEEEEEDcSt16in_place_index_tILm0EEOT_
FNDA:0,_ZNSt8__detail9__variant5__getIRNS0_15_Variadic_unionIJSt8functionIFvSt10unique_ptrIN8nav_msgs3msg9Odometry_ISaIvEEESt14default_deleteIS9_EERKN6rclcpp11MessageInfoEEES3_IFvS4_INSD_17SerializedMessageESA_ISJ_EEEES3_IFvSL_SG_EES3_IFvSt10shared_ptrIKS9_EEES3_IFvSS_SG_EES3_IFvSQ_IKSJ_EEES3_IFvSY_SG_EES3_IFvRKSS_EES3_IFvS14_SG_EES3_IFvRKSY_EES3_IFvS1A_SG_EES3_IFvSQ_IS9_EEES3_IFvS1F_SG_EES3_IFvSQ_ISJ_EEES3_IFvS1K_SG_EEEEEEEDcSt16in_place_index_tILm0EEOT_
FN:284,_ZNSt8__detail9__variant5__getIRNS0_15_Variadic_unionIJSt8functionIFvRKN6rclcpp17SerializedMessageEEES3_IFvS7_RKNS4_11MessageInfoEEES3_IFvSt10unique_ptrIN8nav_msgs3msg9Odometry_ISaIvEEESt14default_deleteISK_EEEES3_IFvSN_SC_EES3_IFvSF_IS5_SL_IS5_EEEES3_IFvST_SC_EES3_IFvSt10shared_ptrIKSK_EEES3_IFvS10_SC_EES3_IFvSY_IS6_EEES3_IFvS15_SC_EES3_IFvRKS10_EES3_IFvS1B_SC_EES3_IFvRKS15_EES3_IFvS1H_SC_EES3_IFvSY_ISK_EEES3_IFvS1M_SC_EES3_IFvSY_IS5_EEES3_IFvS1R_SC_EEEEEEEDcSt16in_place_index_tILm0EEOT_
FNDA:0,_ZNSt8__detail9__variant5__getIRNS0_15_Variadic_unionIJSt8functionIFvRKN6rclcpp17SerializedMessageEEES3_IFvS7_RKNS4_11MessageInfoEEES3_IFvSt10unique_ptrIN8nav_msgs3msg9Odometry_ISaIvEEESt14default_deleteISK_EEEES3_IFvSN_SC_EES3_IFvSF_IS5_SL_IS5_EEEES3_IFvST_SC_EES3_IFvSt10shared_ptrIKSK_EEES3_IFvS10_SC_EES3_IFvSY_IS6_EEES3_IFvS15_SC_EES3_IFvRKS10_EES3_IFvS1B_SC_EES3_IFvRKS15_EES3_IFvS1H_SC_EES3_IFvSY_ISK_EEES3_IFvS1M_SC_EES3_IFvSY_IS5_EEES3_IFvS1R_SC_EEEEEEEDcSt16in_place_index_tILm0EEOT_
FN:284,_ZNSt8__detail9__variant5__getIRKNS0_15_Variadic_unionIJSt8functionIFvSt10shared_ptrIN8nav_msgs3msg9Odometry_ISaIvEEEERKN6rclcpp11MessageInfoEEES3_IFvS4_INSB_17SerializedMessageEEEES3_IFvSI_SE_EEEEEEEDcSt16in_place_index_tILm0EEOT_
FNDA:0,_ZNSt8__detail9__variant5__getIRKNS0_15_Variadic_unionIJSt8functionIFvSt10shared_ptrIN8nav_msgs3msg9Odometry_ISaIvEEEERKN6rclcpp11MessageInfoEEES3_IFvS4_INSB_17SerializedMessageEEEES3_IFvSI_SE_EEEEEEEDcSt16in_place_index_tILm0EEOT_
FN:289,_ZNSt8__detail9__variant5__getILm19ERNS0_15_Variadic_unionIJSt8functionIFvRKN8nav_msgs3msg9Odometry_ISaIvEEEEES3_IFvSA_RKN6rclcpp11MessageInfoEEES3_IFvRKNSD_17SerializedMessageEEES3_IFvSL_SG_EES3_IFvSt10unique_ptrIS8_St14default_deleteIS8_EEEES3_IFvST_SG_EES3_IFvSQ_ISJ_SR_ISJ_EEEES3_IFvSZ_SG_EES3_IFvSt10shared_ptrIS9_EEES3_IFvS15_SG_EES3_IFvS14_ISK_EEES3_IFvS1A_SG_EES3_IFvRKS15_EES3_IFvS1G_SG_EES3_IFvRKS1A_EES3_IFvS1M_SG_EES3_IFvS14_IS8_EEES3_IFvS1R_SG_EES3_IFvS14_ISJ_EEES3_IFvS1W_SG_EEEEEEEDcSt16in_place_index_tIXT_EEOT0_
FNDA:0,_ZNSt8__detail9__variant5__getILm19ERNS0_15_Variadic_unionIJSt8functionIFvRKN8nav_msgs3msg9Odometry_ISaIvEEEEES3_IFvSA_RKN6rclcpp11MessageInfoEEES3_IFvRKNSD_17SerializedMessageEEES3_IFvSL_SG_EES3_IFvSt10unique_ptrIS8_St14default_deleteIS8_EEEES3_IFvST_SG_EES3_IFvSQ_ISJ_SR_ISJ_EEEES3_IFvSZ_SG_EES3_IFvSt10shared_ptrIS9_EEES3_IFvS15_SG_EES3_IFvS14_ISK_EEES3_IFvS1A_SG_EES3_IFvRKS15_EES3_IFvS1G_SG_EES3_IFvRKS1A_EES3_IFvS1M_SG_EES3_IFvS14_IS8_EEES3_IFvS1R_SG_EES3_IFvS14_ISJ_EEES3_IFvS1W_SG_EEEEEEEDcSt16in_place_index_tIXT_EEOT0_
FN:289,_ZNSt8__detail9__variant5__getILm14ERKNS0_15_Variadic_unionIJSt8functionIFvSt10unique_ptrIN8nav_msgs3msg9Odometry_ISaIvEEESt14default_deleteIS9_EERKN6rclcpp11MessageInfoEEES3_IFvS4_INSD_17SerializedMessageESA_ISJ_EEEES3_IFvSL_SG_EES3_IFvSt10shared_ptrIKS9_EEES3_IFvSS_SG_EES3_IFvSQ_IKSJ_EEES3_IFvSY_SG_EES3_IFvRKSS_EES3_IFvS14_SG_EES3_IFvRKSY_EES3_IFvS1A_SG_EES3_IFvSQ_IS9_EEES3_IFvS1F_SG_EES3_IFvSQ_ISJ_EEES3_IFvS1K_SG_EEEEEEEDcSt16in_place_index_tIXT_EEOT0_
FNDA:0,_ZNSt8__detail9__variant5__getILm14ERKNS0_15_Variadic_unionIJSt8functionIFvSt10unique_ptrIN8nav_msgs3msg9Odometry_ISaIvEEESt14default_deleteIS9_EERKN6rclcpp11MessageInfoEEES3_IFvS4_INSD_17SerializedMessageESA_ISJ_EEEES3_IFvSL_SG_EES3_IFvSt10shared_ptrIKS9_EEES3_IFvSS_SG_EES3_IFvSQ_IKSJ_EEES3_IFvSY_SG_EES3_IFvRKSS_EES3_IFvS14_SG_EES3_IFvRKSY_EES3_IFvS1A_SG_EES3_IFvSQ_IS9_EEES3_IFvS1F_SG_EES3_IFvSQ_ISJ_EEES3_IFvS1K_SG_EEEEEEEDcSt16in_place_index_tIXT_EEOT0_
FN:289,_ZNSt8__detail9__variant5__getILm11ERKNS0_15_Variadic_unionIJSt8functionIFvSt10unique_ptrIN6rclcpp17SerializedMessageESt14default_deleteIS6_EEEES3_IFvS9_RKNS5_11MessageInfoEEES3_IFvSt10shared_ptrIKN8nav_msgs3msg9Odometry_ISaIvEEEEEES3_IFvSO_SE_EES3_IFvSH_IKS6_EEES3_IFvSU_SE_EES3_IFvRKSO_EES3_IFvS10_SE_EES3_IFvRKSU_EES3_IFvS16_SE_EES3_IFvSH_ISM_EEES3_IFvS1B_SE_EES3_IFvSH_IS6_EEES3_IFvS1G_SE_EEEEEEEDcSt16in_place_index_tIXT_EEOT0_
FNDA:0,_ZNSt8__detail9__variant5__getILm11ERKNS0_15_Variadic_unionIJSt8functionIFvSt10unique_ptrIN6rclcpp17SerializedMessageESt14default_deleteIS6_EEEES3_IFvS9_RKNS5_11MessageInfoEEES3_IFvSt10shared_ptrIKN8nav_msgs3msg9Odometry_ISaIvEEEEEES3_IFvSO_SE_EES3_IFvSH_IKS6_EEES3_IFvSU_SE_EES3_IFvRKSO_EES3_IFvS10_SE_EES3_IFvRKSU_EES3_IFvS16_SE_EES3_IFvSH_ISM_EEES3_IFvS1B_SE_EES3_IFvSH_IS6_EEES3_IFvS1G_SE_EEEEEEEDcSt16in_place_index_tIXT_EEOT0_
FN:289,_ZNSt8__detail9__variant5__getILm9ERKNS0_15_Variadic_unionIJSt8functionIFvSt10shared_ptrIKN8nav_msgs3msg9Odometry_ISaIvEEEEEES3_IFvSB_RKN6rclcpp11MessageInfoEEES3_IFvS4_IKNSE_17SerializedMessageEEEES3_IFvSM_SH_EES3_IFvRKSB_EES3_IFvSS_SH_EES3_IFvRKSM_EES3_IFvSY_SH_EES3_IFvS4_IS9_EEES3_IFvS13_SH_EES3_IFvS4_ISK_EEES3_IFvS18_SH_EEEEEEEDcSt16in_place_index_tIXT_EEOT0_
FNDA:0,_ZNSt8__detail9__variant5__getILm9ERKNS0_15_Variadic_unionIJSt8functionIFvSt10shared_ptrIKN8nav_msgs3msg9Odometry_ISaIvEEEEEES3_IFvSB_RKN6rclcpp11MessageInfoEEES3_IFvS4_IKNSE_17SerializedMessageEEEES3_IFvSM_SH_EES3_IFvRKSB_EES3_IFvSS_SH_EES3_IFvRKSM_EES3_IFvSY_SH_EES3_IFvS4_IS9_EEES3_IFvS13_SH_EES3_IFvS4_ISK_EEES3_IFvS18_SH_EEEEEEEDcSt16in_place_index_tIXT_EEOT0_
FN:289,_ZNSt8__detail9__variant5__getILm11ERKNS0_15_Variadic_unionIJSt8functionIFvSt10unique_ptrIN6rclcpp17SerializedMessageESt14default_deleteIS6_EERKNS5_11MessageInfoEEES3_IFvSt10shared_ptrIKN8nav_msgs3msg9Odometry_ISaIvEEEEEES3_IFvSM_SC_EES3_IFvSF_IKS6_EEES3_IFvSS_SC_EES3_IFvRKSM_EES3_IFvSY_SC_EES3_IFvRKSS_EES3_IFvS14_SC_EES3_IFvSF_ISK_EEES3_IFvS19_SC_EES3_IFvSF_IS6_EEES3_IFvS1E_SC_EEEEEEEDcSt16in_place_index_tIXT_EEOT0_
FNDA:0,_ZNSt8__detail9__variant5__getILm11ERKNS0_15_Variadic_unionIJSt8functionIFvSt10unique_ptrIN6rclcpp17SerializedMessageESt14default_deleteIS6_EERKNS5_11MessageInfoEEES3_IFvSt10shared_ptrIKN8nav_msgs3msg9Odometry_ISaIvEEEEEES3_IFvSM_SC_EES3_IFvSF_IKS6_EEES3_IFvSS_SC_EES3_IFvRKSM_EES3_IFvSY_SC_EES3_IFvRKSS_EES3_IFvS14_SC_EES3_IFvSF_ISK_EEES3_IFvS19_SC_EES3_IFvSF_IS6_EEES3_IFvS1E_SC_EEEEEEEDcSt16in_place_index_tIXT_EEOT0_
FN:289,_ZNSt8__detail9__variant5__getILm12ERKNS0_15_Variadic_unionIJSt8functionIFvSt10unique_ptrIN6rclcpp17SerializedMessageESt14default_deleteIS6_EEEES3_IFvS9_RKNS5_11MessageInfoEEES3_IFvSt10shared_ptrIKN8nav_msgs3msg9Odometry_ISaIvEEEEEES3_IFvSO_SE_EES3_IFvSH_IKS6_EEES3_IFvSU_SE_EES3_IFvRKSO_EES3_IFvS10_SE_EES3_IFvRKSU_EES3_IFvS16_SE_EES3_IFvSH_ISM_EEES3_IFvS1B_SE_EES3_IFvSH_IS6_EEES3_IFvS1G_SE_EEEEEEEDcSt16in_place_index_tIXT_EEOT0_
FNDA:0,_ZNSt8__detail9__variant5__getILm12ERKNS0_15_Variadic_unionIJSt8functionIFvSt10unique_ptrIN6rclcpp17SerializedMessageESt14default_deleteIS6_EEEES3_IFvS9_RKNS5_11MessageInfoEEES3_IFvSt10shared_ptrIKN8nav_msgs3msg9Odometry_ISaIvEEEEEES3_IFvSO_SE_EES3_IFvSH_IKS6_EEES3_IFvSU_SE_EES3_IFvRKSO_EES3_IFvS10_SE_EES3_IFvRKSU_EES3_IFvS16_SE_EES3_IFvSH_ISM_EEES3_IFvS1B_SE_EES3_IFvSH_IS6_EEES3_IFvS1G_SE_EEEEEEEDcSt16in_place_index_tIXT_EEOT0_
FN:289,_ZNSt8__detail9__variant5__getILm18ERKNS0_15_Variadic_unionIJSt8functionIFvRKN8nav_msgs3msg9Odometry_ISaIvEEEEES3_IFvSA_RKN6rclcpp11MessageInfoEEES3_IFvRKNSD_17SerializedMessageEEES3_IFvSL_SG_EES3_IFvSt10unique_ptrIS8_St14default_deleteIS8_EEEES3_IFvST_SG_EES3_IFvSQ_ISJ_SR_ISJ_EEEES3_IFvSZ_SG_EES3_IFvSt10shared_ptrIS9_EEES3_IFvS15_SG_EES3_IFvS14_ISK_EEES3_IFvS1A_SG_EES3_IFvRKS15_EES3_IFvS1G_SG_EES3_IFvRKS1A_EES3_IFvS1M_SG_EES3_IFvS14_IS8_EEES3_IFvS1R_SG_EES3_IFvS14_ISJ_EEES3_IFvS1W_SG_EEEEEEEDcSt16in_place_index_tIXT_EEOT0_
FNDA:0,_ZNSt8__detail9__variant5__getILm18ERKNS0_15_Variadic_unionIJSt8functionIFvRKN8nav_msgs3msg9Odometry_ISaIvEEEEES3_IFvSA_RKN6rclcpp11MessageInfoEEES3_IFvRKNSD_17SerializedMessageEEES3_IFvSL_SG_EES3_IFvSt10unique_ptrIS8_St14default_deleteIS8_EEEES3_IFvST_SG_EES3_IFvSQ_ISJ_SR_ISJ_EEEES3_IFvSZ_SG_EES3_IFvSt10shared_ptrIS9_EEES3_IFvS15_SG_EES3_IFvS14_ISK_EEES3_IFvS1A_SG_EES3_IFvRKS15_EES3_IFvS1G_SG_EES3_IFvRKS1A_EES3_IFvS1M_SG_EES3_IFvS14_IS8_EEES3_IFvS1R_SG_EES3_IFvS14_ISJ_EEES3_IFvS1W_SG_EEEEEEEDcSt16in_place_index_tIXT_EEOT0_
FN:289,_ZNSt8__detail9__variant5__getILm10ERKNS0_15_Variadic_unionIJSt8functionIFvSt10unique_ptrIN6rclcpp17SerializedMessageESt14default_deleteIS6_EERKNS5_11MessageInfoEEES3_IFvSt10shared_ptrIKN8nav_msgs3msg9Odometry_ISaIvEEEEEES3_IFvSM_SC_EES3_IFvSF_IKS6_EEES3_IFvSS_SC_EES3_IFvRKSM_EES3_IFvSY_SC_EES3_IFvRKSS_EES3_IFvS14_SC_EES3_IFvSF_ISK_EEES3_IFvS19_SC_EES3_IFvSF_IS6_EEES3_IFvS1E_SC_EEEEEEEDcSt16in_place_index_tIXT_EEOT0_
FNDA:0,_ZNSt8__detail9__variant5__getILm10ERKNS0_15_Variadic_unionIJSt8functionIFvSt10unique_ptrIN6rclcpp17SerializedMessageESt14default_deleteIS6_EERKNS5_11MessageInfoEEES3_IFvSt10shared_ptrIKN8nav_msgs3msg9Odometry_ISaIvEEEEEES3_IFvSM_SC_EES3_IFvSF_IKS6_EEES3_IFvSS_SC_EES3_IFvRKSM_EES3_IFvSY_SC_EES3_IFvRKSS_EES3_IFvS14_SC_EES3_IFvSF_ISK_EEES3_IFvS19_SC_EES3_IFvSF_IS6_EEES3_IFvS1E_SC_EEEEEEEDcSt16in_place_index_tIXT_EEOT0_
FN:289,_ZNSt8__detail9__variant5__getILm13ERKNS0_15_Variadic_unionIJSt8functionIFvSt10unique_ptrIN8nav_msgs3msg9Odometry_ISaIvEEESt14default_deleteIS9_EERKN6rclcpp11MessageInfoEEES3_IFvS4_INSD_17SerializedMessageESA_ISJ_EEEES3_IFvSL_SG_EES3_IFvSt10shared_ptrIKS9_EEES3_IFvSS_SG_EES3_IFvSQ_IKSJ_EEES3_IFvSY_SG_EES3_IFvRKSS_EES3_IFvS14_SG_EES3_IFvRKSY_EES3_IFvS1A_SG_EES3_IFvSQ_IS9_EEES3_IFvS1F_SG_EES3_IFvSQ_ISJ_EEES3_IFvS1K_SG_EEEEEEEDcSt16in_place_index_tIXT_EEOT0_
FNDA:0,_ZNSt8__detail9__variant5__getILm13ERKNS0_15_Variadic_unionIJSt8functionIFvSt10unique_ptrIN8nav_msgs3msg9Odometry_ISaIvEEESt14default_deleteIS9_EERKN6rclcpp11MessageInfoEEES3_IFvS4_INSD_17SerializedMessageESA_ISJ_EEEES3_IFvSL_SG_EES3_IFvSt10shared_ptrIKS9_EEES3_IFvSS_SG_EES3_IFvSQ_IKSJ_EEES3_IFvSY_SG_EES3_IFvRKSS_EES3_IFvS14_SG_EES3_IFvRKSY_EES3_IFvS1A_SG_EES3_IFvSQ_IS9_EEES3_IFvS1F_SG_EES3_IFvSQ_ISJ_EEES3_IFvS1K_SG_EEEEEEEDcSt16in_place_index_tIXT_EEOT0_
FN:289,_ZNSt8__detail9__variant5__getILm14ERKNS0_15_Variadic_unionIJSt8functionIFvSt10unique_ptrIN8nav_msgs3msg9Odometry_ISaIvEEESt14default_deleteIS9_EEEES3_IFvSC_RKN6rclcpp11MessageInfoEEES3_IFvS4_INSF_17SerializedMessageESA_ISL_EEEES3_IFvSN_SI_EES3_IFvSt10shared_ptrIKS9_EEES3_IFvSU_SI_EES3_IFvSS_IKSL_EEES3_IFvS10_SI_EES3_IFvRKSU_EES3_IFvS16_SI_EES3_IFvRKS10_EES3_IFvS1C_SI_EES3_IFvSS_IS9_EEES3_IFvS1H_SI_EES3_IFvSS_ISL_EEES3_IFvS1M_SI_EEEEEEEDcSt16in_place_index_tIXT_EEOT0_
FNDA:0,_ZNSt8__detail9__variant5__getILm14ERKNS0_15_Variadic_unionIJSt8functionIFvSt10unique_ptrIN8nav_msgs3msg9Odometry_ISaIvEEESt14default_deleteIS9_EEEES3_IFvSC_RKN6rclcpp11MessageInfoEEES3_IFvS4_INSF_17SerializedMessageESA_ISL_EEEES3_IFvSN_SI_EES3_IFvSt10shared_ptrIKS9_EEES3_IFvSU_SI_EES3_IFvSS_IKSL_EEES3_IFvS10_SI_EES3_IFvRKSU_EES3_IFvS16_SI_EES3_IFvRKS10_EES3_IFvS1C_SI_EES3_IFvSS_IS9_EEES3_IFvS1H_SI_EES3_IFvSS_ISL_EEES3_IFvS1M_SI_EEEEEEEDcSt16in_place_index_tIXT_EEOT0_
FN:289,_ZNSt8__detail9__variant5__getILm15ERKNS0_15_Variadic_unionIJSt8functionIFvRKN6rclcpp17SerializedMessageERKNS4_11MessageInfoEEES3_IFvSt10unique_ptrIN8nav_msgs3msg9Odometry_ISaIvEEESt14default_deleteISI_EEEES3_IFvSL_SA_EES3_IFvSD_IS5_SJ_IS5_EEEES3_IFvSR_SA_EES3_IFvSt10shared_ptrIKSI_EEES3_IFvSY_SA_EES3_IFvSW_IS6_EEES3_IFvS13_SA_EES3_IFvRKSY_EES3_IFvS19_SA_EES3_IFvRKS13_EES3_IFvS1F_SA_EES3_IFvSW_ISI_EEES3_IFvS1K_SA_EES3_IFvSW_IS5_EEES3_IFvS1P_SA_EEEEEEEDcSt16in_place_index_tIXT_EEOT0_
FNDA:0,_ZNSt8__detail9__variant5__getILm15ERKNS0_15_Variadic_unionIJSt8functionIFvRKN6rclcpp17SerializedMessageERKNS4_11MessageInfoEEES3_IFvSt10unique_ptrIN8nav_msgs3msg9Odometry_ISaIvEEESt14default_deleteISI_EEEES3_IFvSL_SA_EES3_IFvSD_IS5_SJ_IS5_EEEES3_IFvSR_SA_EES3_IFvSt10shared_ptrIKSI_EEES3_IFvSY_SA_EES3_IFvSW_IS6_EEES3_IFvS13_SA_EES3_IFvRKSY_EES3_IFvS19_SA_EES3_IFvRKS13_EES3_IFvS1F_SA_EES3_IFvSW_ISI_EEES3_IFvS1K_SA_EES3_IFvSW_IS5_EEES3_IFvS1P_SA_EEEEEEEDcSt16in_place_index_tIXT_EEOT0_
FN:289,_ZNSt8__detail9__variant5__getILm16ERKNS0_15_Variadic_unionIJSt8functionIFvRKN6rclcpp17SerializedMessageEEES3_IFvS7_RKNS4_11MessageInfoEEES3_IFvSt10unique_ptrIN8nav_msgs3msg9Odometry_ISaIvEEESt14default_deleteISK_EEEES3_IFvSN_SC_EES3_IFvSF_IS5_SL_IS5_EEEES3_IFvST_SC_EES3_IFvSt10shared_ptrIKSK_EEES3_IFvS10_SC_EES3_IFvSY_IS6_EEES3_IFvS15_SC_EES3_IFvRKS10_EES3_IFvS1B_SC_EES3_IFvRKS15_EES3_IFvS1H_SC_EES3_IFvSY_ISK_EEES3_IFvS1M_SC_EES3_IFvSY_IS5_EEES3_IFvS1R_SC_EEEEEEEDcSt16in_place_index_tIXT_EEOT0_
FNDA:0,_ZNSt8__detail9__variant5__getILm16ERKNS0_15_Variadic_unionIJSt8functionIFvRKN6rclcpp17SerializedMessageEEES3_IFvS7_RKNS4_11MessageInfoEEES3_IFvSt10unique_ptrIN8nav_msgs3msg9Odometry_ISaIvEEESt14default_deleteISK_EEEES3_IFvSN_SC_EES3_IFvSF_IS5_SL_IS5_EEEES3_IFvST_SC_EES3_IFvSt10shared_ptrIKSK_EEES3_IFvS10_SC_EES3_IFvSY_IS6_EEES3_IFvS15_SC_EES3_IFvRKS10_EES3_IFvS1B_SC_EES3_IFvRKS15_EES3_IFvS1H_SC_EES3_IFvSY_ISK_EEES3_IFvS1M_SC_EES3_IFvSY_IS5_EEES3_IFvS1R_SC_EEEEEEEDcSt16in_place_index_tIXT_EEOT0_
FN:289,_ZNSt8__detail9__variant5__getILm8ERKNS0_15_Variadic_unionIJSt8functionIFvSt10shared_ptrIKN6rclcpp17SerializedMessageEEEES3_IFvS8_RKNS5_11MessageInfoEEES3_IFvRKS4_IKN8nav_msgs3msg9Odometry_ISaIvEEEEEES3_IFvSO_SD_EES3_IFvRKS8_EES3_IFvSU_SD_EES3_IFvS4_ISK_EEES3_IFvSZ_SD_EES3_IFvS4_IS6_EEES3_IFvS14_SD_EEEEEEEDcSt16in_place_index_tIXT_EEOT0_
FNDA:0,_ZNSt8__detail9__variant5__getILm8ERKNS0_15_Variadic_unionIJSt8functionIFvSt10shared_ptrIKN6rclcpp17SerializedMessageEEEES3_IFvS8_RKNS5_11MessageInfoEEES3_IFvRKS4_IKN8nav_msgs3msg9Odometry_ISaIvEEEEEES3_IFvSO_SD_EES3_IFvRKS8_EES3_IFvSU_SD_EES3_IFvS4_ISK_EEES3_IFvSZ_SD_EES3_IFvS4_IS6_EEES3_IFvS14_SD_EEEEEEEDcSt16in_place_index_tIXT_EEOT0_
FN:289,_ZNSt8__detail9__variant5__getILm17ERKNS0_15_Variadic_unionIJSt8functionIFvRKN8nav_msgs3msg9Odometry_ISaIvEEERKN6rclcpp11MessageInfoEEES3_IFvRKNSB_17SerializedMessageEEES3_IFvSJ_SE_EES3_IFvSt10unique_ptrIS8_St14default_deleteIS8_EEEES3_IFvSR_SE_EES3_IFvSO_ISH_SP_ISH_EEEES3_IFvSX_SE_EES3_IFvSt10shared_ptrIS9_EEES3_IFvS13_SE_EES3_IFvS12_ISI_EEES3_IFvS18_SE_EES3_IFvRKS13_EES3_IFvS1E_SE_EES3_IFvRKS18_EES3_IFvS1K_SE_EES3_IFvS12_IS8_EEES3_IFvS1P_SE_EES3_IFvS12_ISH_EEES3_IFvS1U_SE_EEEEEEEDcSt16in_place_index_tIXT_EEOT0_
FNDA:0,_ZNSt8__detail9__variant5__getILm17ERKNS0_15_Variadic_unionIJSt8functionIFvRKN8nav_msgs3msg9Odometry_ISaIvEEERKN6rclcpp11MessageInfoEEES3_IFvRKNSB_17SerializedMessageEEES3_IFvSJ_SE_EES3_IFvSt10unique_ptrIS8_St14default_deleteIS8_EEEES3_IFvSR_SE_EES3_IFvSO_ISH_SP_ISH_EEEES3_IFvSX_SE_EES3_IFvSt10shared_ptrIS9_EEES3_IFvS13_SE_EES3_IFvS12_ISI_EEES3_IFvS18_SE_EES3_IFvRKS13_EES3_IFvS1E_SE_EES3_IFvRKS18_EES3_IFvS1K_SE_EES3_IFvS12_IS8_EEES3_IFvS1P_SE_EES3_IFvS12_ISH_EEES3_IFvS1U_SE_EEEEEEEDcSt16in_place_index_tIXT_EEOT0_
FN:289,_ZNSt8__detail9__variant5__getILm3ERKNS0_15_Variadic_unionIJSt8functionIFvRKSt10shared_ptrIKN6rclcpp17SerializedMessageEERKNS5_11MessageInfoEEES3_IFvS4_IN8nav_msgs3msg9Odometry_ISaIvEEEEEES3_IFvSL_SD_EES3_IFvS4_IS6_EEES3_IFvSQ_SD_EEEEEEEDcSt16in_place_index_tIXT_EEOT0_
FNDA:0,_ZNSt8__detail9__variant5__getILm3ERKNS0_15_Variadic_unionIJSt8functionIFvRKSt10shared_ptrIKN6rclcpp17SerializedMessageEERKNS5_11MessageInfoEEES3_IFvS4_IN8nav_msgs3msg9Odometry_ISaIvEEEEEES3_IFvSL_SD_EES3_IFvS4_IS6_EEES3_IFvSQ_SD_EEEEEEEDcSt16in_place_index_tIXT_EEOT0_
FN:289,_ZNSt8__detail9__variant5__getILm16ERKNS0_15_Variadic_unionIJSt8functionIFvRKN8nav_msgs3msg9Odometry_ISaIvEEERKN6rclcpp11MessageInfoEEES3_IFvRKNSB_17SerializedMessageEEES3_IFvSJ_SE_EES3_IFvSt10unique_ptrIS8_St14default_deleteIS8_EEEES3_IFvSR_SE_EES3_IFvSO_ISH_SP_ISH_EEEES3_IFvSX_SE_EES3_IFvSt10shared_ptrIS9_EEES3_IFvS13_SE_EES3_IFvS12_ISI_EEES3_IFvS18_SE_EES3_IFvRKS13_EES3_IFvS1E_SE_EES3_IFvRKS18_EES3_IFvS1K_SE_EES3_IFvS12_IS8_EEES3_IFvS1P_SE_EES3_IFvS12_ISH_EEES3_IFvS1U_SE_EEEEEEEDcSt16in_place_index_tIXT_EEOT0_
FNDA:0,_ZNSt8__detail9__variant5__getILm16ERKNS0_15_Variadic_unionIJSt8functionIFvRKN8nav_msgs3msg9Odometry_ISaIvEEERKN6rclcpp11MessageInfoEEES3_IFvRKNSB_17SerializedMessageEEES3_IFvSJ_SE_EES3_IFvSt10unique_ptrIS8_St14default_deleteIS8_EEEES3_IFvSR_SE_EES3_IFvSO_ISH_SP_ISH_EEEES3_IFvSX_SE_EES3_IFvSt10shared_ptrIS9_EEES3_IFvS13_SE_EES3_IFvS12_ISI_EEES3_IFvS18_SE_EES3_IFvRKS13_EES3_IFvS1E_SE_EES3_IFvRKS18_EES3_IFvS1K_SE_EES3_IFvS12_IS8_EEES3_IFvS1P_SE_EES3_IFvS12_ISH_EEES3_IFvS1U_SE_EEEEEEEDcSt16in_place_index_tIXT_EEOT0_
FN:289,_ZNSt8__detail9__variant5__getILm3ERNS0_15_Variadic_unionIJSt8functionIFvSt10shared_ptrIN8nav_msgs3msg9Odometry_ISaIvEEEEEES3_IFvSA_RKN6rclcpp11MessageInfoEEES3_IFvS4_INSD_17SerializedMessageEEEES3_IFvSK_SG_EEEEEEEDcSt16in_place_index_tIXT_EEOT0_
FNDA:0,_ZNSt8__detail9__variant5__getILm3ERNS0_15_Variadic_unionIJSt8functionIFvSt10shared_ptrIN8nav_msgs3msg9Odometry_ISaIvEEEEEES3_IFvSA_RKN6rclcpp11MessageInfoEEES3_IFvS4_INSD_17SerializedMessageEEEES3_IFvSK_SG_EEEEEEEDcSt16in_place_index_tIXT_EEOT0_
FN:289,_ZNSt8__detail9__variant5__getILm15ERKNS0_15_Variadic_unionIJSt8functionIFvRKN6rclcpp17SerializedMessageEEES3_IFvS7_RKNS4_11MessageInfoEEES3_IFvSt10unique_ptrIN8nav_msgs3msg9Odometry_ISaIvEEESt14default_deleteISK_EEEES3_IFvSN_SC_EES3_IFvSF_IS5_SL_IS5_EEEES3_IFvST_SC_EES3_IFvSt10shared_ptrIKSK_EEES3_IFvS10_SC_EES3_IFvSY_IS6_EEES3_IFvS15_SC_EES3_IFvRKS10_EES3_IFvS1B_SC_EES3_IFvRKS15_EES3_IFvS1H_SC_EES3_IFvSY_ISK_EEES3_IFvS1M_SC_EES3_IFvSY_IS5_EEES3_IFvS1R_SC_EEEEEEEDcSt16in_place_index_tIXT_EEOT0_
FNDA:0,_ZNSt8__detail9__variant5__getILm15ERKNS0_15_Variadic_unionIJSt8functionIFvRKN6rclcpp17SerializedMessageEEES3_IFvS7_RKNS4_11MessageInfoEEES3_IFvSt10unique_ptrIN8nav_msgs3msg9Odometry_ISaIvEEESt14default_deleteISK_EEEES3_IFvSN_SC_EES3_IFvSF_IS5_SL_IS5_EEEES3_IFvST_SC_EES3_IFvSt10shared_ptrIKSK_EEES3_IFvS10_SC_EES3_IFvSY_IS6_EEES3_IFvS15_SC_EES3_IFvRKS10_EES3_IFvS1B_SC_EES3_IFvRKS15_EES3_IFvS1H_SC_EES3_IFvSY_ISK_EEES3_IFvS1M_SC_EES3_IFvSY_IS5_EEES3_IFvS1R_SC_EEEEEEEDcSt16in_place_index_tIXT_EEOT0_
FN:289,_ZNSt8__detail9__variant5__getILm14ERKNS0_15_Variadic_unionIJSt8functionIFvRKN6rclcpp17SerializedMessageERKNS4_11MessageInfoEEES3_IFvSt10unique_ptrIN8nav_msgs3msg9Odometry_ISaIvEEESt14default_deleteISI_EEEES3_IFvSL_SA_EES3_IFvSD_IS5_SJ_IS5_EEEES3_IFvSR_SA_EES3_IFvSt10shared_ptrIKSI_EEES3_IFvSY_SA_EES3_IFvSW_IS6_EEES3_IFvS13_SA_EES3_IFvRKSY_EES3_IFvS19_SA_EES3_IFvRKS13_EES3_IFvS1F_SA_EES3_IFvSW_ISI_EEES3_IFvS1K_SA_EES3_IFvSW_IS5_EEES3_IFvS1P_SA_EEEEEEEDcSt16in_place_index_tIXT_EEOT0_
FNDA:0,_ZNSt8__detail9__variant5__getILm14ERKNS0_15_Variadic_unionIJSt8functionIFvRKN6rclcpp17SerializedMessageERKNS4_11MessageInfoEEES3_IFvSt10unique_ptrIN8nav_msgs3msg9Odometry_ISaIvEEESt14default_deleteISI_EEEES3_IFvSL_SA_EES3_IFvSD_IS5_SJ_IS5_EEEES3_IFvSR_SA_EES3_IFvSt10shared_ptrIKSI_EEES3_IFvSY_SA_EES3_IFvSW_IS6_EEES3_IFvS13_SA_EES3_IFvRKSY_EES3_IFvS19_SA_EES3_IFvRKS13_EES3_IFvS1F_SA_EES3_IFvSW_ISI_EEES3_IFvS1K_SA_EES3_IFvSW_IS5_EEES3_IFvS1P_SA_EEEEEEEDcSt16in_place_index_tIXT_EEOT0_
FN:289,_ZNSt8__detail9__variant5__getILm18ERNS0_15_Variadic_unionIJSt8functionIFvRKN8nav_msgs3msg9Odometry_ISaIvEEERKN6rclcpp11MessageInfoEEES3_IFvRKNSB_17SerializedMessageEEES3_IFvSJ_SE_EES3_IFvSt10unique_ptrIS8_St14default_deleteIS8_EEEES3_IFvSR_SE_EES3_IFvSO_ISH_SP_ISH_EEEES3_IFvSX_SE_EES3_IFvSt10shared_ptrIS9_EEES3_IFvS13_SE_EES3_IFvS12_ISI_EEES3_IFvS18_SE_EES3_IFvRKS13_EES3_IFvS1E_SE_EES3_IFvRKS18_EES3_IFvS1K_SE_EES3_IFvS12_IS8_EEES3_IFvS1P_SE_EES3_IFvS12_ISH_EEES3_IFvS1U_SE_EEEEEEEDcSt16in_place_index_tIXT_EEOT0_
FNDA:0,_ZNSt8__detail9__variant5__getILm18ERNS0_15_Variadic_unionIJSt8functionIFvRKN8nav_msgs3msg9Odometry_ISaIvEEERKN6rclcpp11MessageInfoEEES3_IFvRKNSB_17SerializedMessageEEES3_IFvSJ_SE_EES3_IFvSt10unique_ptrIS8_St14default_deleteIS8_EEEES3_IFvSR_SE_EES3_IFvSO_ISH_SP_ISH_EEEES3_IFvSX_SE_EES3_IFvSt10shared_ptrIS9_EEES3_IFvS13_SE_EES3_IFvS12_ISI_EEES3_IFvS18_SE_EES3_IFvRKS13_EES3_IFvS1E_SE_EES3_IFvRKS18_EES3_IFvS1K_SE_EES3_IFvS12_IS8_EEES3_IFvS1P_SE_EES3_IFvS12_ISH_EEES3_IFvS1U_SE_EEEEEEEDcSt16in_place_index_tIXT_EEOT0_
FN:289,_ZNSt8__detail9__variant5__getILm2ERNS0_15_Variadic_unionIJSt8functionIFvSt10shared_ptrIN8nav_msgs3msg9Odometry_ISaIvEEEERKN6rclcpp11MessageInfoEEES3_IFvS4_INSB_17SerializedMessageEEEES3_IFvSI_SE_EEEEEEEDcSt16in_place_index_tIXT_EEOT0_
FNDA:0,_ZNSt8__detail9__variant5__getILm2ERNS0_15_Variadic_unionIJSt8functionIFvSt10shared_ptrIN8nav_msgs3msg9Odometry_ISaIvEEEERKN6rclcpp11MessageInfoEEES3_IFvS4_INSB_17SerializedMessageEEEES3_IFvSI_SE_EEEEEEEDcSt16in_place_index_tIXT_EEOT0_
FN:289,_ZNSt8__detail9__variant5__getILm1ERKNS0_15_Variadic_unionIJSt8functionIFvSt10shared_ptrIN8nav_msgs3msg9Odometry_ISaIvEEEERKN6rclcpp11MessageInfoEEES3_IFvS4_INSB_17SerializedMessageEEEES3_IFvSI_SE_EEEEEEEDcSt16in_place_index_tIXT_EEOT0_
FNDA:0,_ZNSt8__detail9__variant5__getILm1ERKNS0_15_Variadic_unionIJSt8functionIFvSt10shared_ptrIN8nav_msgs3msg9Odometry_ISaIvEEEERKN6rclcpp11MessageInfoEEES3_IFvS4_INSB_17SerializedMessageEEEES3_IFvSI_SE_EEEEEEEDcSt16in_place_index_tIXT_EEOT0_
FN:289,_ZNSt8__detail9__variant5__getILm2ERKNS0_15_Variadic_unionIJSt8functionIFvSt10shared_ptrIN8nav_msgs3msg9Odometry_ISaIvEEEEEES3_IFvSA_RKN6rclcpp11MessageInfoEEES3_IFvS4_INSD_17SerializedMessageEEEES3_IFvSK_SG_EEEEEEEDcSt16in_place_index_tIXT_EEOT0_
FNDA:0,_ZNSt8__detail9__variant5__getILm2ERKNS0_15_Variadic_unionIJSt8functionIFvSt10shared_ptrIN8nav_msgs3msg9Odometry_ISaIvEEEEEES3_IFvSA_RKN6rclcpp11MessageInfoEEES3_IFvS4_INSD_17SerializedMessageEEEES3_IFvSK_SG_EEEEEEEDcSt16in_place_index_tIXT_EEOT0_
FN:289,_ZNSt8__detail9__variant5__getILm13ERKNS0_15_Variadic_unionIJSt8functionIFvSt10unique_ptrIN8nav_msgs3msg9Odometry_ISaIvEEESt14default_deleteIS9_EEEES3_IFvSC_RKN6rclcpp11MessageInfoEEES3_IFvS4_INSF_17SerializedMessageESA_ISL_EEEES3_IFvSN_SI_EES3_IFvSt10shared_ptrIKS9_EEES3_IFvSU_SI_EES3_IFvSS_IKSL_EEES3_IFvS10_SI_EES3_IFvRKSU_EES3_IFvS16_SI_EES3_IFvRKS10_EES3_IFvS1C_SI_EES3_IFvSS_IS9_EEES3_IFvS1H_SI_EES3_IFvSS_ISL_EEES3_IFvS1M_SI_EEEEEEEDcSt16in_place_index_tIXT_EEOT0_
FNDA:0,_ZNSt8__detail9__variant5__getILm13ERKNS0_15_Variadic_unionIJSt8functionIFvSt10unique_ptrIN8nav_msgs3msg9Odometry_ISaIvEEESt14default_deleteIS9_EEEES3_IFvSC_RKN6rclcpp11MessageInfoEEES3_IFvS4_INSF_17SerializedMessageESA_ISL_EEEES3_IFvSN_SI_EES3_IFvSt10shared_ptrIKS9_EEES3_IFvSU_SI_EES3_IFvSS_IKSL_EEES3_IFvS10_SI_EES3_IFvRKSU_EES3_IFvS16_SI_EES3_IFvRKS10_EES3_IFvS1C_SI_EES3_IFvSS_IS9_EEES3_IFvS1H_SI_EES3_IFvSS_ISL_EEES3_IFvS1M_SI_EEEEEEEDcSt16in_place_index_tIXT_EEOT0_
FN:289,_ZNSt8__detail9__variant5__getILm12ERKNS0_15_Variadic_unionIJSt8functionIFvSt10unique_ptrIN8nav_msgs3msg9Odometry_ISaIvEEESt14default_deleteIS9_EERKN6rclcpp11MessageInfoEEES3_IFvS4_INSD_17SerializedMessageESA_ISJ_EEEES3_IFvSL_SG_EES3_IFvSt10shared_ptrIKS9_EEES3_IFvSS_SG_EES3_IFvSQ_IKSJ_EEES3_IFvSY_SG_EES3_IFvRKSS_EES3_IFvS14_SG_EES3_IFvRKSY_EES3_IFvS1A_SG_EES3_IFvSQ_IS9_EEES3_IFvS1F_SG_EES3_IFvSQ_ISJ_EEES3_IFvS1K_SG_EEEEEEEDcSt16in_place_index_tIXT_EEOT0_
FNDA:0,_ZNSt8__detail9__variant5__getILm12ERKNS0_15_Variadic_unionIJSt8functionIFvSt10unique_ptrIN8nav_msgs3msg9Odometry_ISaIvEEESt14default_deleteIS9_EERKN6rclcpp11MessageInfoEEES3_IFvS4_INSD_17SerializedMessageESA_ISJ_EEEES3_IFvSL_SG_EES3_IFvSt10shared_ptrIKS9_EEES3_IFvSS_SG_EES3_IFvSQ_IKSJ_EEES3_IFvSY_SG_EES3_IFvRKSS_EES3_IFvS14_SG_EES3_IFvRKSY_EES3_IFvS1A_SG_EES3_IFvSQ_IS9_EEES3_IFvS1F_SG_EES3_IFvSQ_ISJ_EEES3_IFvS1K_SG_EEEEEEEDcSt16in_place_index_tIXT_EEOT0_
FN:289,_ZNSt8__detail9__variant5__getILm4ERKNS0_15_Variadic_unionIJSt8functionIFvRKSt10shared_ptrIKN6rclcpp17SerializedMessageEEEES3_IFvSA_RKNS5_11MessageInfoEEES3_IFvS4_IN8nav_msgs3msg9Odometry_ISaIvEEEEEES3_IFvSN_SF_EES3_IFvS4_IS6_EEES3_IFvSS_SF_EEEEEEEDcSt16in_place_index_tIXT_EEOT0_
FNDA:0,_ZNSt8__detail9__variant5__getILm4ERKNS0_15_Variadic_unionIJSt8functionIFvRKSt10shared_ptrIKN6rclcpp17SerializedMessageEEEES3_IFvSA_RKNS5_11MessageInfoEEES3_IFvS4_IN8nav_msgs3msg9Odometry_ISaIvEEEEEES3_IFvSN_SF_EES3_IFvS4_IS6_EEES3_IFvSS_SF_EEEEEEEDcSt16in_place_index_tIXT_EEOT0_
FN:289,_ZNSt8__detail9__variant5__getILm5ERKNS0_15_Variadic_unionIJSt8functionIFvRKSt10shared_ptrIKN8nav_msgs3msg9Odometry_ISaIvEEEERKN6rclcpp11MessageInfoEEES3_IFvRKS4_IKNSE_17SerializedMessageEEEES3_IFvSO_SH_EES3_IFvS4_IS9_EEES3_IFvST_SH_EES3_IFvS4_ISK_EEES3_IFvSY_SH_EEEEEEEDcSt16in_place_index_tIXT_EEOT0_
FNDA:0,_ZNSt8__detail9__variant5__getILm5ERKNS0_15_Variadic_unionIJSt8functionIFvRKSt10shared_ptrIKN8nav_msgs3msg9Odometry_ISaIvEEEERKN6rclcpp11MessageInfoEEES3_IFvRKS4_IKNSE_17SerializedMessageEEEES3_IFvSO_SH_EES3_IFvS4_IS9_EEES3_IFvST_SH_EES3_IFvS4_ISK_EEES3_IFvSY_SH_EEEEEEEDcSt16in_place_index_tIXT_EEOT0_
FN:289,_ZNSt8__detail9__variant5__getILm6ERKNS0_15_Variadic_unionIJSt8functionIFvRKSt10shared_ptrIKN8nav_msgs3msg9Odometry_ISaIvEEEEEES3_IFvSD_RKN6rclcpp11MessageInfoEEES3_IFvRKS4_IKNSG_17SerializedMessageEEEES3_IFvSQ_SJ_EES3_IFvS4_IS9_EEES3_IFvSV_SJ_EES3_IFvS4_ISM_EEES3_IFvS10_SJ_EEEEEEEDcSt16in_place_index_tIXT_EEOT0_
FNDA:0,_ZNSt8__detail9__variant5__getILm6ERKNS0_15_Variadic_unionIJSt8functionIFvRKSt10shared_ptrIKN8nav_msgs3msg9Odometry_ISaIvEEEEEES3_IFvSD_RKN6rclcpp11MessageInfoEEES3_IFvRKS4_IKNSG_17SerializedMessageEEEES3_IFvSQ_SJ_EES3_IFvS4_IS9_EEES3_IFvSV_SJ_EES3_IFvS4_ISM_EEES3_IFvS10_SJ_EEEEEEEDcSt16in_place_index_tIXT_EEOT0_
FN:289,_ZNSt8__detail9__variant5__getILm7ERKNS0_15_Variadic_unionIJSt8functionIFvSt10shared_ptrIKN6rclcpp17SerializedMessageEERKNS5_11MessageInfoEEES3_IFvRKS4_IKN8nav_msgs3msg9Odometry_ISaIvEEEEEES3_IFvSM_SB_EES3_IFvRKS8_EES3_IFvSS_SB_EES3_IFvS4_ISI_EEES3_IFvSX_SB_EES3_IFvS4_IS6_EEES3_IFvS12_SB_EEEEEEEDcSt16in_place_index_tIXT_EEOT0_
FNDA:0,_ZNSt8__detail9__variant5__getILm7ERKNS0_15_Variadic_unionIJSt8functionIFvSt10shared_ptrIKN6rclcpp17SerializedMessageEERKNS5_11MessageInfoEEES3_IFvRKS4_IKN8nav_msgs3msg9Odometry_ISaIvEEEEEES3_IFvSM_SB_EES3_IFvRKS8_EES3_IFvSS_SB_EES3_IFvS4_ISI_EEES3_IFvSX_SB_EES3_IFvS4_IS6_EEES3_IFvS12_SB_EEEEEEEDcSt16in_place_index_tIXT_EEOT0_
FN:289,_ZNSt8__detail9__variant5__getILm17ERKNS0_15_Variadic_unionIJSt8functionIFvRKN8nav_msgs3msg9Odometry_ISaIvEEEEES3_IFvSA_RKN6rclcpp11MessageInfoEEES3_IFvRKNSD_17SerializedMessageEEES3_IFvSL_SG_EES3_IFvSt10unique_ptrIS8_St14default_deleteIS8_EEEES3_IFvST_SG_EES3_IFvSQ_ISJ_SR_ISJ_EEEES3_IFvSZ_SG_EES3_IFvSt10shared_ptrIS9_EEES3_IFvS15_SG_EES3_IFvS14_ISK_EEES3_IFvS1A_SG_EES3_IFvRKS15_EES3_IFvS1G_SG_EES3_IFvRKS1A_EES3_IFvS1M_SG_EES3_IFvS14_IS8_EEES3_IFvS1R_SG_EES3_IFvS14_ISJ_EEES3_IFvS1W_SG_EEEEEEEDcSt16in_place_index_tIXT_EEOT0_
FNDA:0,_ZNSt8__detail9__variant5__getILm17ERKNS0_15_Variadic_unionIJSt8functionIFvRKN8nav_msgs3msg9Odometry_ISaIvEEEEES3_IFvSA_RKN6rclcpp11MessageInfoEEES3_IFvRKNSD_17SerializedMessageEEES3_IFvSL_SG_EES3_IFvSt10unique_ptrIS8_St14default_deleteIS8_EEEES3_IFvST_SG_EES3_IFvSQ_ISJ_SR_ISJ_EEEES3_IFvSZ_SG_EES3_IFvSt10shared_ptrIS9_EEES3_IFvS15_SG_EES3_IFvS14_ISK_EEES3_IFvS1A_SG_EES3_IFvRKS15_EES3_IFvS1G_SG_EES3_IFvRKS1A_EES3_IFvS1M_SG_EES3_IFvS14_IS8_EEES3_IFvS1R_SG_EES3_IFvS14_ISJ_EEES3_IFvS1W_SG_EEEEEEEDcSt16in_place_index_tIXT_EEOT0_
FN:289,_ZNSt8__detail9__variant5__getILm5ERKNS0_15_Variadic_unionIJSt8functionIFvSt10unique_ptrIN6rclcpp17SerializedMessageESt14default_deleteIS6_EEEES3_IFvS9_RKNS5_11MessageInfoEEES3_IFvSt10shared_ptrIKN8nav_msgs3msg9Odometry_ISaIvEEEEEES3_IFvSO_SE_EES3_IFvSH_IKS6_EEES3_IFvSU_SE_EES3_IFvRKSO_EES3_IFvS10_SE_EES3_IFvRKSU_EES3_IFvS16_SE_EES3_IFvSH_ISM_EEES3_IFvS1B_SE_EES3_IFvSH_IS6_EEES3_IFvS1G_SE_EEEEEEEDcSt16in_place_index_tIXT_EEOT0_
FNDA:0,_ZNSt8__detail9__variant5__getILm5ERKNS0_15_Variadic_unionIJSt8functionIFvSt10unique_ptrIN6rclcpp17SerializedMessageESt14default_deleteIS6_EEEES3_IFvS9_RKNS5_11MessageInfoEEES3_IFvSt10shared_ptrIKN8nav_msgs3msg9Odometry_ISaIvEEEEEES3_IFvSO_SE_EES3_IFvSH_IKS6_EEES3_IFvSU_SE_EES3_IFvRKSO_EES3_IFvS10_SE_EES3_IFvRKSU_EES3_IFvS16_SE_EES3_IFvSH_ISM_EEES3_IFvS1B_SE_EES3_IFvSH_IS6_EEES3_IFvS1G_SE_EEEEEEEDcSt16in_place_index_tIXT_EEOT0_
FN:289,_ZNSt8__detail9__variant5__getILm9ERKNS0_15_Variadic_unionIJSt8functionIFvSt10shared_ptrIKN8nav_msgs3msg9Odometry_ISaIvEEEERKN6rclcpp11MessageInfoEEES3_IFvS4_IKNSC_17SerializedMessageEEEES3_IFvSK_SF_EES3_IFvRKSB_EES3_IFvSQ_SF_EES3_IFvRKSK_EES3_IFvSW_SF_EES3_IFvS4_IS9_EEES3_IFvS11_SF_EES3_IFvS4_ISI_EEES3_IFvS16_SF_EEEEEEEDcSt16in_place_index_tIXT_EEOT0_
FNDA:0,_ZNSt8__detail9__variant5__getILm9ERKNS0_15_Variadic_unionIJSt8functionIFvSt10shared_ptrIKN8nav_msgs3msg9Odometry_ISaIvEEEERKN6rclcpp11MessageInfoEEES3_IFvS4_IKNSC_17SerializedMessageEEEES3_IFvSK_SF_EES3_IFvRKSB_EES3_IFvSQ_SF_EES3_IFvRKSK_EES3_IFvSW_SF_EES3_IFvS4_IS9_EEES3_IFvS11_SF_EES3_IFvS4_ISI_EEES3_IFvS16_SF_EEEEEEEDcSt16in_place_index_tIXT_EEOT0_
FN:289,_ZNSt8__detail9__variant5__getILm10ERKNS0_15_Variadic_unionIJSt8functionIFvSt10shared_ptrIKN8nav_msgs3msg9Odometry_ISaIvEEEEEES3_IFvSB_RKN6rclcpp11MessageInfoEEES3_IFvS4_IKNSE_17SerializedMessageEEEES3_IFvSM_SH_EES3_IFvRKSB_EES3_IFvSS_SH_EES3_IFvRKSM_EES3_IFvSY_SH_EES3_IFvS4_IS9_EEES3_IFvS13_SH_EES3_IFvS4_ISK_EEES3_IFvS18_SH_EEEEEEEDcSt16in_place_index_tIXT_EEOT0_
FNDA:0,_ZNSt8__detail9__variant5__getILm10ERKNS0_15_Variadic_unionIJSt8functionIFvSt10shared_ptrIKN8nav_msgs3msg9Odometry_ISaIvEEEEEES3_IFvSB_RKN6rclcpp11MessageInfoEEES3_IFvS4_IKNSE_17SerializedMessageEEEES3_IFvSM_SH_EES3_IFvRKSB_EES3_IFvSS_SH_EES3_IFvRKSM_EES3_IFvSY_SH_EES3_IFvS4_IS9_EEES3_IFvS13_SH_EES3_IFvS4_ISK_EEES3_IFvS18_SH_EEEEEEEDcSt16in_place_index_tIXT_EEOT0_
FN:289,_ZNSt8__detail9__variant5__getILm3ERKNS0_15_Variadic_unionIJSt8functionIFvSt10unique_ptrIN6rclcpp17SerializedMessageESt14default_deleteIS6_EEEES3_IFvS9_RKNS5_11MessageInfoEEES3_IFvSt10shared_ptrIKN8nav_msgs3msg9Odometry_ISaIvEEEEEES3_IFvSO_SE_EES3_IFvSH_IKS6_EEES3_IFvSU_SE_EES3_IFvRKSO_EES3_IFvS10_SE_EES3_IFvRKSU_EES3_IFvS16_SE_EES3_IFvSH_ISM_EEES3_IFvS1B_SE_EES3_IFvSH_IS6_EEES3_IFvS1G_SE_EEEEEEEDcSt16in_place_index_tIXT_EEOT0_
FNDA:0,_ZNSt8__detail9__variant5__getILm3ERKNS0_15_Variadic_unionIJSt8functionIFvSt10unique_ptrIN6rclcpp17SerializedMessageESt14default_deleteIS6_EEEES3_IFvS9_RKNS5_11MessageInfoEEES3_IFvSt10shared_ptrIKN8nav_msgs3msg9Odometry_ISaIvEEEEEES3_IFvSO_SE_EES3_IFvSH_IKS6_EEES3_IFvSU_SE_EES3_IFvRKSO_EES3_IFvS10_SE_EES3_IFvRKSU_EES3_IFvS16_SE_EES3_IFvSH_ISM_EEES3_IFvS1B_SE_EES3_IFvSH_IS6_EEES3_IFvS1G_SE_EEEEEEEDcSt16in_place_index_tIXT_EEOT0_
FN:289,_ZNSt8__detail9__variant5__getILm7ERKNS0_15_Variadic_unionIJSt8functionIFvRKN6rclcpp17SerializedMessageEEES3_IFvS7_RKNS4_11MessageInfoEEES3_IFvSt10unique_ptrIN8nav_msgs3msg9Odometry_ISaIvEEESt14default_deleteISK_EEEES3_IFvSN_SC_EES3_IFvSF_IS5_SL_IS5_EEEES3_IFvST_SC_EES3_IFvSt10shared_ptrIKSK_EEES3_IFvS10_SC_EES3_IFvSY_IS6_EEES3_IFvS15_SC_EES3_IFvRKS10_EES3_IFvS1B_SC_EES3_IFvRKS15_EES3_IFvS1H_SC_EES3_IFvSY_ISK_EEES3_IFvS1M_SC_EES3_IFvSY_IS5_EEES3_IFvS1R_SC_EEEEEEEDcSt16in_place_index_tIXT_EEOT0_
FNDA:0,_ZNSt8__detail9__variant5__getILm7ERKNS0_15_Variadic_unionIJSt8functionIFvRKN6rclcpp17SerializedMessageEEES3_IFvS7_RKNS4_11MessageInfoEEES3_IFvSt10unique_ptrIN8nav_msgs3msg9Odometry_ISaIvEEESt14default_deleteISK_EEEES3_IFvSN_SC_EES3_IFvSF_IS5_SL_IS5_EEEES3_IFvST_SC_EES3_IFvSt10shared_ptrIKSK_EEES3_IFvS10_SC_EES3_IFvSY_IS6_EEES3_IFvS15_SC_EES3_IFvRKS10_EES3_IFvS1B_SC_EES3_IFvRKS15_EES3_IFvS1H_SC_EES3_IFvSY_ISK_EEES3_IFvS1M_SC_EES3_IFvSY_IS5_EEES3_IFvS1R_SC_EEEEEEEDcSt16in_place_index_tIXT_EEOT0_
FN:289,_ZNSt8__detail9__variant5__getILm6ERKNS0_15_Variadic_unionIJSt8functionIFvRKN6rclcpp17SerializedMessageERKNS4_11MessageInfoEEES3_IFvSt10unique_ptrIN8nav_msgs3msg9Odometry_ISaIvEEESt14default_deleteISI_EEEES3_IFvSL_SA_EES3_IFvSD_IS5_SJ_IS5_EEEES3_IFvSR_SA_EES3_IFvSt10shared_ptrIKSI_EEES3_IFvSY_SA_EES3_IFvSW_IS6_EEES3_IFvS13_SA_EES3_IFvRKSY_EES3_IFvS19_SA_EES3_IFvRKS13_EES3_IFvS1F_SA_EES3_IFvSW_ISI_EEES3_IFvS1K_SA_EES3_IFvSW_IS5_EEES3_IFvS1P_SA_EEEEEEEDcSt16in_place_index_tIXT_EEOT0_
FNDA:0,_ZNSt8__detail9__variant5__getILm6ERKNS0_15_Variadic_unionIJSt8functionIFvRKN6rclcpp17SerializedMessageERKNS4_11MessageInfoEEES3_IFvSt10unique_ptrIN8nav_msgs3msg9Odometry_ISaIvEEESt14default_deleteISI_EEEES3_IFvSL_SA_EES3_IFvSD_IS5_SJ_IS5_EEEES3_IFvSR_SA_EES3_IFvSt10shared_ptrIKSI_EEES3_IFvSY_SA_EES3_IFvSW_IS6_EEES3_IFvS13_SA_EES3_IFvRKSY_EES3_IFvS19_SA_EES3_IFvRKS13_EES3_IFvS1F_SA_EES3_IFvSW_ISI_EEES3_IFvS1K_SA_EES3_IFvSW_IS5_EEES3_IFvS1P_SA_EEEEEEEDcSt16in_place_index_tIXT_EEOT0_
FN:289,_ZNSt8__detail9__variant5__getILm18ERNS0_15_Variadic_unionIJSt8functionIFvRKN8nav_msgs3msg9Odometry_ISaIvEEEEES3_IFvSA_RKN6rclcpp11MessageInfoEEES3_IFvRKNSD_17SerializedMessageEEES3_IFvSL_SG_EES3_IFvSt10unique_ptrIS8_St14default_deleteIS8_EEEES3_IFvST_SG_EES3_IFvSQ_ISJ_SR_ISJ_EEEES3_IFvSZ_SG_EES3_IFvSt10shared_ptrIS9_EEES3_IFvS15_SG_EES3_IFvS14_ISK_EEES3_IFvS1A_SG_EES3_IFvRKS15_EES3_IFvS1G_SG_EES3_IFvRKS1A_EES3_IFvS1M_SG_EES3_IFvS14_IS8_EEES3_IFvS1R_SG_EES3_IFvS14_ISJ_EEES3_IFvS1W_SG_EEEEEEEDcSt16in_place_index_tIXT_EEOT0_
FNDA:0,_ZNSt8__detail9__variant5__getILm18ERNS0_15_Variadic_unionIJSt8functionIFvRKN8nav_msgs3msg9Odometry_ISaIvEEEEES3_IFvSA_RKN6rclcpp11MessageInfoEEES3_IFvRKNSD_17SerializedMessageEEES3_IFvSL_SG_EES3_IFvSt10unique_ptrIS8_St14default_deleteIS8_EEEES3_IFvST_SG_EES3_IFvSQ_ISJ_SR_ISJ_EEEES3_IFvSZ_SG_EES3_IFvSt10shared_ptrIS9_EEES3_IFvS15_SG_EES3_IFvS14_ISK_EEES3_IFvS1A_SG_EES3_IFvRKS15_EES3_IFvS1G_SG_EES3_IFvRKS1A_EES3_IFvS1M_SG_EES3_IFvS14_IS8_EEES3_IFvS1R_SG_EES3_IFvS14_ISJ_EEES3_IFvS1W_SG_EEEEEEEDcSt16in_place_index_tIXT_EEOT0_
FN:289,_ZNSt8__detail9__variant5__getILm17ERNS0_15_Variadic_unionIJSt8functionIFvRKN8nav_msgs3msg9Odometry_ISaIvEEERKN6rclcpp11MessageInfoEEES3_IFvRKNSB_17SerializedMessageEEES3_IFvSJ_SE_EES3_IFvSt10unique_ptrIS8_St14default_deleteIS8_EEEES3_IFvSR_SE_EES3_IFvSO_ISH_SP_ISH_EEEES3_IFvSX_SE_EES3_IFvSt10shared_ptrIS9_EEES3_IFvS13_SE_EES3_IFvS12_ISI_EEES3_IFvS18_SE_EES3_IFvRKS13_EES3_IFvS1E_SE_EES3_IFvRKS18_EES3_IFvS1K_SE_EES3_IFvS12_IS8_EEES3_IFvS1P_SE_EES3_IFvS12_ISH_EEES3_IFvS1U_SE_EEEEEEEDcSt16in_place_index_tIXT_EEOT0_
FNDA:0,_ZNSt8__detail9__variant5__getILm17ERNS0_15_Variadic_unionIJSt8functionIFvRKN8nav_msgs3msg9Odometry_ISaIvEEERKN6rclcpp11MessageInfoEEES3_IFvRKNSB_17SerializedMessageEEES3_IFvSJ_SE_EES3_IFvSt10unique_ptrIS8_St14default_deleteIS8_EEEES3_IFvSR_SE_EES3_IFvSO_ISH_SP_ISH_EEEES3_IFvSX_SE_EES3_IFvSt10shared_ptrIS9_EEES3_IFvS13_SE_EES3_IFvS12_ISI_EEES3_IFvS18_SE_EES3_IFvRKS13_EES3_IFvS1E_SE_EES3_IFvRKS18_EES3_IFvS1K_SE_EES3_IFvS12_IS8_EEES3_IFvS1P_SE_EES3_IFvS12_ISH_EEES3_IFvS1U_SE_EEEEEEEDcSt16in_place_index_tIXT_EEOT0_
FN:289,_ZNSt8__detail9__variant5__getILm4ERKNS0_15_Variadic_unionIJSt8functionIFvSt10unique_ptrIN6rclcpp17SerializedMessageESt14default_deleteIS6_EERKNS5_11MessageInfoEEES3_IFvSt10shared_ptrIKN8nav_msgs3msg9Odometry_ISaIvEEEEEES3_IFvSM_SC_EES3_IFvSF_IKS6_EEES3_IFvSS_SC_EES3_IFvRKSM_EES3_IFvSY_SC_EES3_IFvRKSS_EES3_IFvS14_SC_EES3_IFvSF_ISK_EEES3_IFvS19_SC_EES3_IFvSF_IS6_EEES3_IFvS1E_SC_EEEEEEEDcSt16in_place_index_tIXT_EEOT0_
FNDA:0,_ZNSt8__detail9__variant5__getILm4ERKNS0_15_Variadic_unionIJSt8functionIFvSt10unique_ptrIN6rclcpp17SerializedMessageESt14default_deleteIS6_EERKNS5_11MessageInfoEEES3_IFvSt10shared_ptrIKN8nav_msgs3msg9Odometry_ISaIvEEEEEES3_IFvSM_SC_EES3_IFvSF_IKS6_EEES3_IFvSS_SC_EES3_IFvRKSM_EES3_IFvSY_SC_EES3_IFvRKSS_EES3_IFvS14_SC_EES3_IFvSF_ISK_EEES3_IFvS19_SC_EES3_IFvSF_IS6_EEES3_IFvS1E_SC_EEEEEEEDcSt16in_place_index_tIXT_EEOT0_
FN:289,_ZNSt8__detail9__variant5__getILm16ERNS0_15_Variadic_unionIJSt8functionIFvRKN6rclcpp17SerializedMessageEEES3_IFvS7_RKNS4_11MessageInfoEEES3_IFvSt10unique_ptrIN8nav_msgs3msg9Odometry_ISaIvEEESt14default_deleteISK_EEEES3_IFvSN_SC_EES3_IFvSF_IS5_SL_IS5_EEEES3_IFvST_SC_EES3_IFvSt10shared_ptrIKSK_EEES3_IFvS10_SC_EES3_IFvSY_IS6_EEES3_IFvS15_SC_EES3_IFvRKS10_EES3_IFvS1B_SC_EES3_IFvRKS15_EES3_IFvS1H_SC_EES3_IFvSY_ISK_EEES3_IFvS1M_SC_EES3_IFvSY_IS5_EEES3_IFvS1R_SC_EEEEEEEDcSt16in_place_index_tIXT_EEOT0_
FNDA:0,_ZNSt8__detail9__variant5__getILm16ERNS0_15_Variadic_unionIJSt8functionIFvRKN6rclcpp17SerializedMessageEEES3_IFvS7_RKNS4_11MessageInfoEEES3_IFvSt10unique_ptrIN8nav_msgs3msg9Odometry_ISaIvEEESt14default_deleteISK_EEEES3_IFvSN_SC_EES3_IFvSF_IS5_SL_IS5_EEEES3_IFvST_SC_EES3_IFvSt10shared_ptrIKSK_EEES3_IFvS10_SC_EES3_IFvSY_IS6_EEES3_IFvS15_SC_EES3_IFvRKS10_EES3_IFvS1B_SC_EES3_IFvRKS15_EES3_IFvS1H_SC_EES3_IFvSY_ISK_EEES3_IFvS1M_SC_EES3_IFvSY_IS5_EEES3_IFvS1R_SC_EEEEEEEDcSt16in_place_index_tIXT_EEOT0_
FN:289,_ZNSt8__detail9__variant5__getILm15ERNS0_15_Variadic_unionIJSt8functionIFvRKN6rclcpp17SerializedMessageERKNS4_11MessageInfoEEES3_IFvSt10unique_ptrIN8nav_msgs3msg9Odometry_ISaIvEEESt14default_deleteISI_EEEES3_IFvSL_SA_EES3_IFvSD_IS5_SJ_IS5_EEEES3_IFvSR_SA_EES3_IFvSt10shared_ptrIKSI_EEES3_IFvSY_SA_EES3_IFvSW_IS6_EEES3_IFvS13_SA_EES3_IFvRKSY_EES3_IFvS19_SA_EES3_IFvRKS13_EES3_IFvS1F_SA_EES3_IFvSW_ISI_EEES3_IFvS1K_SA_EES3_IFvSW_IS5_EEES3_IFvS1P_SA_EEEEEEEDcSt16in_place_index_tIXT_EEOT0_
FNDA:0,_ZNSt8__detail9__variant5__getILm15ERNS0_15_Variadic_unionIJSt8functionIFvRKN6rclcpp17SerializedMessageERKNS4_11MessageInfoEEES3_IFvSt10unique_ptrIN8nav_msgs3msg9Odometry_ISaIvEEESt14default_deleteISI_EEEES3_IFvSL_SA_EES3_IFvSD_IS5_SJ_IS5_EEEES3_IFvSR_SA_EES3_IFvSt10shared_ptrIKSI_EEES3_IFvSY_SA_EES3_IFvSW_IS6_EEES3_IFvS13_SA_EES3_IFvRKSY_EES3_IFvS19_SA_EES3_IFvRKS13_EES3_IFvS1F_SA_EES3_IFvSW_ISI_EEES3_IFvS1K_SA_EES3_IFvSW_IS5_EEES3_IFvS1P_SA_EEEEEEEDcSt16in_place_index_tIXT_EEOT0_
FN:289,_ZNSt8__detail9__variant5__getILm5ERKNS0_15_Variadic_unionIJSt8functionIFvSt10unique_ptrIN8nav_msgs3msg9Odometry_ISaIvEEESt14default_deleteIS9_EEEES3_IFvSC_RKN6rclcpp11MessageInfoEEES3_IFvS4_INSF_17SerializedMessageESA_ISL_EEEES3_IFvSN_SI_EES3_IFvSt10shared_ptrIKS9_EEES3_IFvSU_SI_EES3_IFvSS_IKSL_EEES3_IFvS10_SI_EES3_IFvRKSU_EES3_IFvS16_SI_EES3_IFvRKS10_EES3_IFvS1C_SI_EES3_IFvSS_IS9_EEES3_IFvS1H_SI_EES3_IFvSS_ISL_EEES3_IFvS1M_SI_EEEEEEEDcSt16in_place_index_tIXT_EEOT0_
FNDA:0,_ZNSt8__detail9__variant5__getILm5ERKNS0_15_Variadic_unionIJSt8functionIFvSt10unique_ptrIN8nav_msgs3msg9Odometry_ISaIvEEESt14default_deleteIS9_EEEES3_IFvSC_RKN6rclcpp11MessageInfoEEES3_IFvS4_INSF_17SerializedMessageESA_ISL_EEEES3_IFvSN_SI_EES3_IFvSt10shared_ptrIKS9_EEES3_IFvSU_SI_EES3_IFvSS_IKSL_EEES3_IFvS10_SI_EES3_IFvRKSU_EES3_IFvS16_SI_EES3_IFvRKS10_EES3_IFvS1C_SI_EES3_IFvSS_IS9_EEES3_IFvS1H_SI_EES3_IFvSS_ISL_EEES3_IFvS1M_SI_EEEEEEEDcSt16in_place_index_tIXT_EEOT0_
FN:289,_ZNSt8__detail9__variant5__getILm4ERKNS0_15_Variadic_unionIJSt8functionIFvSt10unique_ptrIN8nav_msgs3msg9Odometry_ISaIvEEESt14default_deleteIS9_EERKN6rclcpp11MessageInfoEEES3_IFvS4_INSD_17SerializedMessageESA_ISJ_EEEES3_IFvSL_SG_EES3_IFvSt10shared_ptrIKS9_EEES3_IFvSS_SG_EES3_IFvSQ_IKSJ_EEES3_IFvSY_SG_EES3_IFvRKSS_EES3_IFvS14_SG_EES3_IFvRKSY_EES3_IFvS1A_SG_EES3_IFvSQ_IS9_EEES3_IFvS1F_SG_EES3_IFvSQ_ISJ_EEES3_IFvS1K_SG_EEEEEEEDcSt16in_place_index_tIXT_EEOT0_
FNDA:0,_ZNSt8__detail9__variant5__getILm4ERKNS0_15_Variadic_unionIJSt8functionIFvSt10unique_ptrIN8nav_msgs3msg9Odometry_ISaIvEEESt14default_deleteIS9_EERKN6rclcpp11MessageInfoEEES3_IFvS4_INSD_17SerializedMessageESA_ISJ_EEEES3_IFvSL_SG_EES3_IFvSt10shared_ptrIKS9_EEES3_IFvSS_SG_EES3_IFvSQ_IKSJ_EEES3_IFvSY_SG_EES3_IFvRKSS_EES3_IFvS14_SG_EES3_IFvRKSY_EES3_IFvS1A_SG_EES3_IFvSQ_IS9_EEES3_IFvS1F_SG_EES3_IFvSQ_ISJ_EEES3_IFvS1K_SG_EEEEEEEDcSt16in_place_index_tIXT_EEOT0_
FN:289,_ZNSt8__detail9__variant5__getILm3ERKNS0_15_Variadic_unionIJSt8functionIFvSt10shared_ptrIKN8nav_msgs3msg9Odometry_ISaIvEEEEEES3_IFvSB_RKN6rclcpp11MessageInfoEEES3_IFvS4_IKNSE_17SerializedMessageEEEES3_IFvSM_SH_EES3_IFvRKSB_EES3_IFvSS_SH_EES3_IFvRKSM_EES3_IFvSY_SH_EES3_IFvS4_IS9_EEES3_IFvS13_SH_EES3_IFvS4_ISK_EEES3_IFvS18_SH_EEEEEEEDcSt16in_place_index_tIXT_EEOT0_
FNDA:0,_ZNSt8__detail9__variant5__getILm3ERKNS0_15_Variadic_unionIJSt8functionIFvSt10shared_ptrIKN8nav_msgs3msg9Odometry_ISaIvEEEEEES3_IFvSB_RKN6rclcpp11MessageInfoEEES3_IFvS4_IKNSE_17SerializedMessageEEEES3_IFvSM_SH_EES3_IFvRKSB_EES3_IFvSS_SH_EES3_IFvRKSM_EES3_IFvSY_SH_EES3_IFvS4_IS9_EEES3_IFvS13_SH_EES3_IFvS4_ISK_EEES3_IFvS18_SH_EEEEEEEDcSt16in_place_index_tIXT_EEOT0_
FN:289,_ZNSt8__detail9__variant5__getILm8ERKNS0_15_Variadic_unionIJSt8functionIFvRKN8nav_msgs3msg9Odometry_ISaIvEEERKN6rclcpp11MessageInfoEEES3_IFvRKNSB_17SerializedMessageEEES3_IFvSJ_SE_EES3_IFvSt10unique_ptrIS8_St14default_deleteIS8_EEEES3_IFvSR_SE_EES3_IFvSO_ISH_SP_ISH_EEEES3_IFvSX_SE_EES3_IFvSt10shared_ptrIS9_EEES3_IFvS13_SE_EES3_IFvS12_ISI_EEES3_IFvS18_SE_EES3_IFvRKS13_EES3_IFvS1E_SE_EES3_IFvRKS18_EES3_IFvS1K_SE_EES3_IFvS12_IS8_EEES3_IFvS1P_SE_EES3_IFvS12_ISH_EEES3_IFvS1U_SE_EEEEEEEDcSt16in_place_index_tIXT_EEOT0_
FNDA:0,_ZNSt8__detail9__variant5__getILm8ERKNS0_15_Variadic_unionIJSt8functionIFvRKN8nav_msgs3msg9Odometry_ISaIvEEERKN6rclcpp11MessageInfoEEES3_IFvRKNSB_17SerializedMessageEEES3_IFvSJ_SE_EES3_IFvSt10unique_ptrIS8_St14default_deleteIS8_EEEES3_IFvSR_SE_EES3_IFvSO_ISH_SP_ISH_EEEES3_IFvSX_SE_EES3_IFvSt10shared_ptrIS9_EEES3_IFvS13_SE_EES3_IFvS12_ISI_EEES3_IFvS18_SE_EES3_IFvRKS13_EES3_IFvS1E_SE_EES3_IFvRKS18_EES3_IFvS1K_SE_EES3_IFvS12_IS8_EEES3_IFvS1P_SE_EES3_IFvS12_ISH_EEES3_IFvS1U_SE_EEEEEEEDcSt16in_place_index_tIXT_EEOT0_
FN:289,_ZNSt8__detail9__variant5__getILm2ERKNS0_15_Variadic_unionIJSt8functionIFvSt10shared_ptrIKN8nav_msgs3msg9Odometry_ISaIvEEEERKN6rclcpp11MessageInfoEEES3_IFvS4_IKNSC_17SerializedMessageEEEES3_IFvSK_SF_EES3_IFvRKSB_EES3_IFvSQ_SF_EES3_IFvRKSK_EES3_IFvSW_SF_EES3_IFvS4_IS9_EEES3_IFvS11_SF_EES3_IFvS4_ISI_EEES3_IFvS16_SF_EEEEEEEDcSt16in_place_index_tIXT_EEOT0_
FNDA:0,_ZNSt8__detail9__variant5__getILm2ERKNS0_15_Variadic_unionIJSt8functionIFvSt10shared_ptrIKN8nav_msgs3msg9Odometry_ISaIvEEEERKN6rclcpp11MessageInfoEEES3_IFvS4_IKNSC_17SerializedMessageEEEES3_IFvSK_SF_EES3_IFvRKSB_EES3_IFvSQ_SF_EES3_IFvRKSK_EES3_IFvSW_SF_EES3_IFvS4_IS9_EEES3_IFvS11_SF_EES3_IFvS4_ISI_EEES3_IFvS16_SF_EEEEEEEDcSt16in_place_index_tIXT_EEOT0_
FN:289,_ZNSt8__detail9__variant5__getILm2ERKNS0_15_Variadic_unionIJSt8functionIFvSt10unique_ptrIN6rclcpp17SerializedMessageESt14default_deleteIS6_EERKNS5_11MessageInfoEEES3_IFvSt10shared_ptrIKN8nav_msgs3msg9Odometry_ISaIvEEEEEES3_IFvSM_SC_EES3_IFvSF_IKS6_EEES3_IFvSS_SC_EES3_IFvRKSM_EES3_IFvSY_SC_EES3_IFvRKSS_EES3_IFvS14_SC_EES3_IFvSF_ISK_EEES3_IFvS19_SC_EES3_IFvSF_IS6_EEES3_IFvS1E_SC_EEEEEEEDcSt16in_place_index_tIXT_EEOT0_
FNDA:0,_ZNSt8__detail9__variant5__getILm2ERKNS0_15_Variadic_unionIJSt8functionIFvSt10unique_ptrIN6rclcpp17SerializedMessageESt14default_deleteIS6_EERKNS5_11MessageInfoEEES3_IFvSt10shared_ptrIKN8nav_msgs3msg9Odometry_ISaIvEEEEEES3_IFvSM_SC_EES3_IFvSF_IKS6_EEES3_IFvSS_SC_EES3_IFvRKSM_EES3_IFvSY_SC_EES3_IFvRKSS_EES3_IFvS14_SC_EES3_IFvSF_ISK_EEES3_IFvS19_SC_EES3_IFvSF_IS6_EEES3_IFvS1E_SC_EEEEEEEDcSt16in_place_index_tIXT_EEOT0_
FN:289,_ZNSt8__detail9__variant5__getILm1ERKNS0_15_Variadic_unionIJSt8functionIFvSt10shared_ptrIKN6rclcpp17SerializedMessageEEEES3_IFvS8_RKNS5_11MessageInfoEEES3_IFvRKS4_IKN8nav_msgs3msg9Odometry_ISaIvEEEEEES3_IFvSO_SD_EES3_IFvRKS8_EES3_IFvSU_SD_EES3_IFvS4_ISK_EEES3_IFvSZ_SD_EES3_IFvS4_IS6_EEES3_IFvS14_SD_EEEEEEEDcSt16in_place_index_tIXT_EEOT0_
FNDA:0,_ZNSt8__detail9__variant5__getILm1ERKNS0_15_Variadic_unionIJSt8functionIFvSt10shared_ptrIKN6rclcpp17SerializedMessageEEEES3_IFvS8_RKNS5_11MessageInfoEEES3_IFvRKS4_IKN8nav_msgs3msg9Odometry_ISaIvEEEEEES3_IFvSO_SD_EES3_IFvRKS8_EES3_IFvSU_SD_EES3_IFvS4_ISK_EEES3_IFvSZ_SD_EES3_IFvS4_IS6_EEES3_IFvS14_SD_EEEEEEEDcSt16in_place_index_tIXT_EEOT0_
FN:289,_ZNSt8__detail9__variant5__getILm1ERKNS0_15_Variadic_unionIJSt8functionIFvSt10shared_ptrIKN8nav_msgs3msg9Odometry_ISaIvEEEEEES3_IFvSB_RKN6rclcpp11MessageInfoEEES3_IFvS4_IKNSE_17SerializedMessageEEEES3_IFvSM_SH_EES3_IFvRKSB_EES3_IFvSS_SH_EES3_IFvRKSM_EES3_IFvSY_SH_EES3_IFvS4_IS9_EEES3_IFvS13_SH_EES3_IFvS4_ISK_EEES3_IFvS18_SH_EEEEEEEDcSt16in_place_index_tIXT_EEOT0_
FNDA:0,_ZNSt8__detail9__variant5__getILm1ERKNS0_15_Variadic_unionIJSt8functionIFvSt10shared_ptrIKN8nav_msgs3msg9Odometry_ISaIvEEEEEES3_IFvSB_RKN6rclcpp11MessageInfoEEES3_IFvS4_IKNSE_17SerializedMessageEEEES3_IFvSM_SH_EES3_IFvRKSB_EES3_IFvSS_SH_EES3_IFvRKSM_EES3_IFvSY_SH_EES3_IFvS4_IS9_EEES3_IFvS13_SH_EES3_IFvS4_ISK_EEES3_IFvS18_SH_EEEEEEEDcSt16in_place_index_tIXT_EEOT0_
FN:289,_ZNSt8__detail9__variant5__getILm8ERKNS0_15_Variadic_unionIJSt8functionIFvRKN8nav_msgs3msg9Odometry_ISaIvEEEEES3_IFvSA_RKN6rclcpp11MessageInfoEEES3_IFvRKNSD_17SerializedMessageEEES3_IFvSL_SG_EES3_IFvSt10unique_ptrIS8_St14default_deleteIS8_EEEES3_IFvST_SG_EES3_IFvSQ_ISJ_SR_ISJ_EEEES3_IFvSZ_SG_EES3_IFvSt10shared_ptrIS9_EEES3_IFvS15_SG_EES3_IFvS14_ISK_EEES3_IFvS1A_SG_EES3_IFvRKS15_EES3_IFvS1G_SG_EES3_IFvRKS1A_EES3_IFvS1M_SG_EES3_IFvS14_IS8_EEES3_IFvS1R_SG_EES3_IFvS14_ISJ_EEES3_IFvS1W_SG_EEEEEEEDcSt16in_place_index_tIXT_EEOT0_
FNDA:0,_ZNSt8__detail9__variant5__getILm8ERKNS0_15_Variadic_unionIJSt8functionIFvRKN8nav_msgs3msg9Odometry_ISaIvEEEEES3_IFvSA_RKN6rclcpp11MessageInfoEEES3_IFvRKNSD_17SerializedMessageEEES3_IFvSL_SG_EES3_IFvSt10unique_ptrIS8_St14default_deleteIS8_EEEES3_IFvST_SG_EES3_IFvSQ_ISJ_SR_ISJ_EEEES3_IFvSZ_SG_EES3_IFvSt10shared_ptrIS9_EEES3_IFvS15_SG_EES3_IFvS14_ISK_EEES3_IFvS1A_SG_EES3_IFvRKS15_EES3_IFvS1G_SG_EES3_IFvRKS1A_EES3_IFvS1M_SG_EES3_IFvS14_IS8_EEES3_IFvS1R_SG_EES3_IFvS14_ISJ_EEES3_IFvS1W_SG_EEEEEEEDcSt16in_place_index_tIXT_EEOT0_
FN:289,_ZNSt8__detail9__variant5__getILm7ERKNS0_15_Variadic_unionIJSt8functionIFvRKN8nav_msgs3msg9Odometry_ISaIvEEERKN6rclcpp11MessageInfoEEES3_IFvRKNSB_17SerializedMessageEEES3_IFvSJ_SE_EES3_IFvSt10unique_ptrIS8_St14default_deleteIS8_EEEES3_IFvSR_SE_EES3_IFvSO_ISH_SP_ISH_EEEES3_IFvSX_SE_EES3_IFvSt10shared_ptrIS9_EEES3_IFvS13_SE_EES3_IFvS12_ISI_EEES3_IFvS18_SE_EES3_IFvRKS13_EES3_IFvS1E_SE_EES3_IFvRKS18_EES3_IFvS1K_SE_EES3_IFvS12_IS8_EEES3_IFvS1P_SE_EES3_IFvS12_ISH_EEES3_IFvS1U_SE_EEEEEEEDcSt16in_place_index_tIXT_EEOT0_
FNDA:0,_ZNSt8__detail9__variant5__getILm7ERKNS0_15_Variadic_unionIJSt8functionIFvRKN8nav_msgs3msg9Odometry_ISaIvEEERKN6rclcpp11MessageInfoEEES3_IFvRKNSB_17SerializedMessageEEES3_IFvSJ_SE_EES3_IFvSt10unique_ptrIS8_St14default_deleteIS8_EEEES3_IFvSR_SE_EES3_IFvSO_ISH_SP_ISH_EEEES3_IFvSX_SE_EES3_IFvSt10shared_ptrIS9_EEES3_IFvS13_SE_EES3_IFvS12_ISI_EEES3_IFvS18_SE_EES3_IFvRKS13_EES3_IFvS1E_SE_EES3_IFvRKS18_EES3_IFvS1K_SE_EES3_IFvS12_IS8_EEES3_IFvS1P_SE_EES3_IFvS12_ISH_EEES3_IFvS1U_SE_EEEEEEEDcSt16in_place_index_tIXT_EEOT0_
FN:289,_ZNSt8__detail9__variant5__getILm6ERKNS0_15_Variadic_unionIJSt8functionIFvRKN6rclcpp17SerializedMessageEEES3_IFvS7_RKNS4_11MessageInfoEEES3_IFvSt10unique_ptrIN8nav_msgs3msg9Odometry_ISaIvEEESt14default_deleteISK_EEEES3_IFvSN_SC_EES3_IFvSF_IS5_SL_IS5_EEEES3_IFvST_SC_EES3_IFvSt10shared_ptrIKSK_EEES3_IFvS10_SC_EES3_IFvSY_IS6_EEES3_IFvS15_SC_EES3_IFvRKS10_EES3_IFvS1B_SC_EES3_IFvRKS15_EES3_IFvS1H_SC_EES3_IFvSY_ISK_EEES3_IFvS1M_SC_EES3_IFvSY_IS5_EEES3_IFvS1R_SC_EEEEEEEDcSt16in_place_index_tIXT_EEOT0_
FNDA:0,_ZNSt8__detail9__variant5__getILm6ERKNS0_15_Variadic_unionIJSt8functionIFvRKN6rclcpp17SerializedMessageEEES3_IFvS7_RKNS4_11MessageInfoEEES3_IFvSt10unique_ptrIN8nav_msgs3msg9Odometry_ISaIvEEESt14default_deleteISK_EEEES3_IFvSN_SC_EES3_IFvSF_IS5_SL_IS5_EEEES3_IFvST_SC_EES3_IFvSt10shared_ptrIKSK_EEES3_IFvS10_SC_EES3_IFvSY_IS6_EEES3_IFvS15_SC_EES3_IFvRKS10_EES3_IFvS1B_SC_EES3_IFvRKS15_EES3_IFvS1H_SC_EES3_IFvSY_ISK_EEES3_IFvS1M_SC_EES3_IFvSY_IS5_EEES3_IFvS1R_SC_EEEEEEEDcSt16in_place_index_tIXT_EEOT0_
FN:289,_ZNSt8__detail9__variant5__getILm5ERKNS0_15_Variadic_unionIJSt8functionIFvRKN6rclcpp17SerializedMessageERKNS4_11MessageInfoEEES3_IFvSt10unique_ptrIN8nav_msgs3msg9Odometry_ISaIvEEESt14default_deleteISI_EEEES3_IFvSL_SA_EES3_IFvSD_IS5_SJ_IS5_EEEES3_IFvSR_SA_EES3_IFvSt10shared_ptrIKSI_EEES3_IFvSY_SA_EES3_IFvSW_IS6_EEES3_IFvS13_SA_EES3_IFvRKSY_EES3_IFvS19_SA_EES3_IFvRKS13_EES3_IFvS1F_SA_EES3_IFvSW_ISI_EEES3_IFvS1K_SA_EES3_IFvSW_IS5_EEES3_IFvS1P_SA_EEEEEEEDcSt16in_place_index_tIXT_EEOT0_
FNDA:0,_ZNSt8__detail9__variant5__getILm5ERKNS0_15_Variadic_unionIJSt8functionIFvRKN6rclcpp17SerializedMessageERKNS4_11MessageInfoEEES3_IFvSt10unique_ptrIN8nav_msgs3msg9Odometry_ISaIvEEESt14default_deleteISI_EEEES3_IFvSL_SA_EES3_IFvSD_IS5_SJ_IS5_EEEES3_IFvSR_SA_EES3_IFvSt10shared_ptrIKSI_EEES3_IFvSY_SA_EES3_IFvSW_IS6_EEES3_IFvS13_SA_EES3_IFvRKSY_EES3_IFvS19_SA_EES3_IFvRKS13_EES3_IFvS1F_SA_EES3_IFvSW_ISI_EEES3_IFvS1K_SA_EES3_IFvSW_IS5_EEES3_IFvS1P_SA_EEEEEEEDcSt16in_place_index_tIXT_EEOT0_
FN:289,_ZNSt8__detail9__variant5__getILm4ERKNS0_15_Variadic_unionIJSt8functionIFvSt10unique_ptrIN8nav_msgs3msg9Odometry_ISaIvEEESt14default_deleteIS9_EEEES3_IFvSC_RKN6rclcpp11MessageInfoEEES3_IFvS4_INSF_17SerializedMessageESA_ISL_EEEES3_IFvSN_SI_EES3_IFvSt10shared_ptrIKS9_EEES3_IFvSU_SI_EES3_IFvSS_IKSL_EEES3_IFvS10_SI_EES3_IFvRKSU_EES3_IFvS16_SI_EES3_IFvRKS10_EES3_IFvS1C_SI_EES3_IFvSS_IS9_EEES3_IFvS1H_SI_EES3_IFvSS_ISL_EEES3_IFvS1M_SI_EEEEEEEDcSt16in_place_index_tIXT_EEOT0_
FNDA:0,_ZNSt8__detail9__variant5__getILm4ERKNS0_15_Variadic_unionIJSt8functionIFvSt10unique_ptrIN8nav_msgs3msg9Odometry_ISaIvEEESt14default_deleteIS9_EEEES3_IFvSC_RKN6rclcpp11MessageInfoEEES3_IFvS4_INSF_17SerializedMessageESA_ISL_EEEES3_IFvSN_SI_EES3_IFvSt10shared_ptrIKS9_EEES3_IFvSU_SI_EES3_IFvSS_IKSL_EEES3_IFvS10_SI_EES3_IFvRKSU_EES3_IFvS16_SI_EES3_IFvRKS10_EES3_IFvS1C_SI_EES3_IFvSS_IS9_EEES3_IFvS1H_SI_EES3_IFvSS_ISL_EEES3_IFvS1M_SI_EEEEEEEDcSt16in_place_index_tIXT_EEOT0_
FN:289,_ZNSt8__detail9__variant5__getILm16ERNS0_15_Variadic_unionIJSt8functionIFvRKN6rclcpp17SerializedMessageERKNS4_11MessageInfoEEES3_IFvSt10unique_ptrIN8nav_msgs3msg9Odometry_ISaIvEEESt14default_deleteISI_EEEES3_IFvSL_SA_EES3_IFvSD_IS5_SJ_IS5_EEEES3_IFvSR_SA_EES3_IFvSt10shared_ptrIKSI_EEES3_IFvSY_SA_EES3_IFvSW_IS6_EEES3_IFvS13_SA_EES3_IFvRKSY_EES3_IFvS19_SA_EES3_IFvRKS13_EES3_IFvS1F_SA_EES3_IFvSW_ISI_EEES3_IFvS1K_SA_EES3_IFvSW_IS5_EEES3_IFvS1P_SA_EEEEEEEDcSt16in_place_index_tIXT_EEOT0_
FNDA:0,_ZNSt8__detail9__variant5__getILm16ERNS0_15_Variadic_unionIJSt8functionIFvRKN6rclcpp17SerializedMessageERKNS4_11MessageInfoEEES3_IFvSt10unique_ptrIN8nav_msgs3msg9Odometry_ISaIvEEESt14default_deleteISI_EEEES3_IFvSL_SA_EES3_IFvSD_IS5_SJ_IS5_EEEES3_IFvSR_SA_EES3_IFvSt10shared_ptrIKSI_EEES3_IFvSY_SA_EES3_IFvSW_IS6_EEES3_IFvS13_SA_EES3_IFvRKSY_EES3_IFvS19_SA_EES3_IFvRKS13_EES3_IFvS1F_SA_EES3_IFvSW_ISI_EEES3_IFvS1K_SA_EES3_IFvSW_IS5_EEES3_IFvS1P_SA_EEEEEEEDcSt16in_place_index_tIXT_EEOT0_
FN:289,_ZNSt8__detail9__variant5__getILm11ERKNS0_15_Variadic_unionIJSt8functionIFvSt10shared_ptrIKN8nav_msgs3msg9Odometry_ISaIvEEEEEES3_IFvSB_RKN6rclcpp11MessageInfoEEES3_IFvS4_IKNSE_17SerializedMessageEEEES3_IFvSM_SH_EES3_IFvRKSB_EES3_IFvSS_SH_EES3_IFvRKSM_EES3_IFvSY_SH_EES3_IFvS4_IS9_EEES3_IFvS13_SH_EES3_IFvS4_ISK_EEES3_IFvS18_SH_EEEEEEEDcSt16in_place_index_tIXT_EEOT0_
FNDA:0,_ZNSt8__detail9__variant5__getILm11ERKNS0_15_Variadic_unionIJSt8functionIFvSt10shared_ptrIKN8nav_msgs3msg9Odometry_ISaIvEEEEEES3_IFvSB_RKN6rclcpp11MessageInfoEEES3_IFvS4_IKNSE_17SerializedMessageEEEES3_IFvSM_SH_EES3_IFvRKSB_EES3_IFvSS_SH_EES3_IFvRKSM_EES3_IFvSY_SH_EES3_IFvS4_IS9_EEES3_IFvS13_SH_EES3_IFvS4_ISK_EEES3_IFvS18_SH_EEEEEEEDcSt16in_place_index_tIXT_EEOT0_
FN:289,_ZNSt8__detail9__variant5__getILm1ERKNS0_15_Variadic_unionIJSt8functionIFvSt10shared_ptrIN6rclcpp17SerializedMessageEEEES3_IFvS7_RKNS5_11MessageInfoEEEEEEEEDcSt16in_place_index_tIXT_EEOT0_
FNDA:0,_ZNSt8__detail9__variant5__getILm1ERKNS0_15_Variadic_unionIJSt8functionIFvSt10shared_ptrIN6rclcpp17SerializedMessageEEEES3_IFvS7_RKNS5_11MessageInfoEEEEEEEEDcSt16in_place_index_tIXT_EEOT0_
FN:289,_ZNSt8__detail9__variant5__getILm2ERKNS0_15_Variadic_unionIJSt8functionIFvSt10shared_ptrIN8nav_msgs3msg9Odometry_ISaIvEEEERKN6rclcpp11MessageInfoEEES3_IFvS4_INSB_17SerializedMessageEEEES3_IFvSI_SE_EEEEEEEDcSt16in_place_index_tIXT_EEOT0_
FNDA:0,_ZNSt8__detail9__variant5__getILm2ERKNS0_15_Variadic_unionIJSt8functionIFvSt10shared_ptrIN8nav_msgs3msg9Odometry_ISaIvEEEERKN6rclcpp11MessageInfoEEES3_IFvS4_INSB_17SerializedMessageEEEES3_IFvSI_SE_EEEEEEEDcSt16in_place_index_tIXT_EEOT0_
FN:289,_ZNSt8__detail9__variant5__getILm3ERKNS0_15_Variadic_unionIJSt8functionIFvSt10shared_ptrIN8nav_msgs3msg9Odometry_ISaIvEEEEEES3_IFvSA_RKN6rclcpp11MessageInfoEEES3_IFvS4_INSD_17SerializedMessageEEEES3_IFvSK_SG_EEEEEEEDcSt16in_place_index_tIXT_EEOT0_
FNDA:0,_ZNSt8__detail9__variant5__getILm3ERKNS0_15_Variadic_unionIJSt8functionIFvSt10shared_ptrIN8nav_msgs3msg9Odometry_ISaIvEEEEEES3_IFvSA_RKN6rclcpp11MessageInfoEEES3_IFvS4_INSD_17SerializedMessageEEEES3_IFvSK_SG_EEEEEEEDcSt16in_place_index_tIXT_EEOT0_
FN:289,_ZNSt8__detail9__variant5__getILm4ERKNS0_15_Variadic_unionIJSt8functionIFvRKSt10shared_ptrIKN6rclcpp17SerializedMessageEERKNS5_11MessageInfoEEES3_IFvS4_IN8nav_msgs3msg9Odometry_ISaIvEEEEEES3_IFvSL_SD_EES3_IFvS4_IS6_EEES3_IFvSQ_SD_EEEEEEEDcSt16in_place_index_tIXT_EEOT0_
FNDA:0,_ZNSt8__detail9__variant5__getILm4ERKNS0_15_Variadic_unionIJSt8functionIFvRKSt10shared_ptrIKN6rclcpp17SerializedMessageEERKNS5_11MessageInfoEEES3_IFvS4_IN8nav_msgs3msg9Odometry_ISaIvEEEEEES3_IFvSL_SD_EES3_IFvS4_IS6_EEES3_IFvSQ_SD_EEEEEEEDcSt16in_place_index_tIXT_EEOT0_
FN:289,_ZNSt8__detail9__variant5__getILm5ERKNS0_15_Variadic_unionIJSt8functionIFvRKSt10shared_ptrIKN6rclcpp17SerializedMessageEEEES3_IFvSA_RKNS5_11MessageInfoEEES3_IFvS4_IN8nav_msgs3msg9Odometry_ISaIvEEEEEES3_IFvSN_SF_EES3_IFvS4_IS6_EEES3_IFvSS_SF_EEEEEEEDcSt16in_place_index_tIXT_EEOT0_
FNDA:0,_ZNSt8__detail9__variant5__getILm5ERKNS0_15_Variadic_unionIJSt8functionIFvRKSt10shared_ptrIKN6rclcpp17SerializedMessageEEEES3_IFvSA_RKNS5_11MessageInfoEEES3_IFvS4_IN8nav_msgs3msg9Odometry_ISaIvEEEEEES3_IFvSN_SF_EES3_IFvS4_IS6_EEES3_IFvSS_SF_EEEEEEEDcSt16in_place_index_tIXT_EEOT0_
FN:289,_ZNSt8__detail9__variant5__getILm6ERKNS0_15_Variadic_unionIJSt8functionIFvRKSt10shared_ptrIKN8nav_msgs3msg9Odometry_ISaIvEEEERKN6rclcpp11MessageInfoEEES3_IFvRKS4_IKNSE_17SerializedMessageEEEES3_IFvSO_SH_EES3_IFvS4_IS9_EEES3_IFvST_SH_EES3_IFvS4_ISK_EEES3_IFvSY_SH_EEEEEEEDcSt16in_place_index_tIXT_EEOT0_
FNDA:0,_ZNSt8__detail9__variant5__getILm6ERKNS0_15_Variadic_unionIJSt8functionIFvRKSt10shared_ptrIKN8nav_msgs3msg9Odometry_ISaIvEEEERKN6rclcpp11MessageInfoEEES3_IFvRKS4_IKNSE_17SerializedMessageEEEES3_IFvSO_SH_EES3_IFvS4_IS9_EEES3_IFvST_SH_EES3_IFvS4_ISK_EEES3_IFvSY_SH_EEEEEEEDcSt16in_place_index_tIXT_EEOT0_
FN:289,_ZNSt8__detail9__variant5__getILm7ERKNS0_15_Variadic_unionIJSt8functionIFvRKSt10shared_ptrIKN8nav_msgs3msg9Odometry_ISaIvEEEEEES3_IFvSD_RKN6rclcpp11MessageInfoEEES3_IFvRKS4_IKNSG_17SerializedMessageEEEES3_IFvSQ_SJ_EES3_IFvS4_IS9_EEES3_IFvSV_SJ_EES3_IFvS4_ISM_EEES3_IFvS10_SJ_EEEEEEEDcSt16in_place_index_tIXT_EEOT0_
FNDA:0,_ZNSt8__detail9__variant5__getILm7ERKNS0_15_Variadic_unionIJSt8functionIFvRKSt10shared_ptrIKN8nav_msgs3msg9Odometry_ISaIvEEEEEES3_IFvSD_RKN6rclcpp11MessageInfoEEES3_IFvRKS4_IKNSG_17SerializedMessageEEEES3_IFvSQ_SJ_EES3_IFvS4_IS9_EEES3_IFvSV_SJ_EES3_IFvS4_ISM_EEES3_IFvS10_SJ_EEEEEEEDcSt16in_place_index_tIXT_EEOT0_
FN:289,_ZNSt8__detail9__variant5__getILm8ERKNS0_15_Variadic_unionIJSt8functionIFvSt10shared_ptrIKN6rclcpp17SerializedMessageEERKNS5_11MessageInfoEEES3_IFvRKS4_IKN8nav_msgs3msg9Odometry_ISaIvEEEEEES3_IFvSM_SB_EES3_IFvRKS8_EES3_IFvSS_SB_EES3_IFvS4_ISI_EEES3_IFvSX_SB_EES3_IFvS4_IS6_EEES3_IFvS12_SB_EEEEEEEDcSt16in_place_index_tIXT_EEOT0_
FNDA:0,_ZNSt8__detail9__variant5__getILm8ERKNS0_15_Variadic_unionIJSt8functionIFvSt10shared_ptrIKN6rclcpp17SerializedMessageEERKNS5_11MessageInfoEEES3_IFvRKS4_IKN8nav_msgs3msg9Odometry_ISaIvEEEEEES3_IFvSM_SB_EES3_IFvRKS8_EES3_IFvSS_SB_EES3_IFvS4_ISI_EEES3_IFvSX_SB_EES3_IFvS4_IS6_EEES3_IFvS12_SB_EEEEEEEDcSt16in_place_index_tIXT_EEOT0_
FN:289,_ZNSt8__detail9__variant5__getILm9ERKNS0_15_Variadic_unionIJSt8functionIFvSt10shared_ptrIKN6rclcpp17SerializedMessageEEEES3_IFvS8_RKNS5_11MessageInfoEEES3_IFvRKS4_IKN8nav_msgs3msg9Odometry_ISaIvEEEEEES3_IFvSO_SD_EES3_IFvRKS8_EES3_IFvSU_SD_EES3_IFvS4_ISK_EEES3_IFvSZ_SD_EES3_IFvS4_IS6_EEES3_IFvS14_SD_EEEEEEEDcSt16in_place_index_tIXT_EEOT0_
FNDA:0,_ZNSt8__detail9__variant5__getILm9ERKNS0_15_Variadic_unionIJSt8functionIFvSt10shared_ptrIKN6rclcpp17SerializedMessageEEEES3_IFvS8_RKNS5_11MessageInfoEEES3_IFvRKS4_IKN8nav_msgs3msg9Odometry_ISaIvEEEEEES3_IFvSO_SD_EES3_IFvRKS8_EES3_IFvSU_SD_EES3_IFvS4_ISK_EEES3_IFvSZ_SD_EES3_IFvS4_IS6_EEES3_IFvS14_SD_EEEEEEEDcSt16in_place_index_tIXT_EEOT0_
FN:289,_ZNSt8__detail9__variant5__getILm10ERKNS0_15_Variadic_unionIJSt8functionIFvSt10shared_ptrIKN8nav_msgs3msg9Odometry_ISaIvEEEERKN6rclcpp11MessageInfoEEES3_IFvS4_IKNSC_17SerializedMessageEEEES3_IFvSK_SF_EES3_IFvRKSB_EES3_IFvSQ_SF_EES3_IFvRKSK_EES3_IFvSW_SF_EES3_IFvS4_IS9_EEES3_IFvS11_SF_EES3_IFvS4_ISI_EEES3_IFvS16_SF_EEEEEEEDcSt16in_place_index_tIXT_EEOT0_
FNDA:0,_ZNSt8__detail9__variant5__getILm10ERKNS0_15_Variadic_unionIJSt8functionIFvSt10shared_ptrIKN8nav_msgs3msg9Odometry_ISaIvEEEERKN6rclcpp11MessageInfoEEES3_IFvS4_IKNSC_17SerializedMessageEEEES3_IFvSK_SF_EES3_IFvRKSB_EES3_IFvSQ_SF_EES3_IFvRKSK_EES3_IFvSW_SF_EES3_IFvS4_IS9_EEES3_IFvS11_SF_EES3_IFvS4_ISI_EEES3_IFvS16_SF_EEEEEEEDcSt16in_place_index_tIXT_EEOT0_
FN:289,_ZNSt8__detail9__variant5__getILm1ERNS0_15_Variadic_unionIJSt8functionIFvSt10shared_ptrIN6rclcpp17SerializedMessageEEEES3_IFvS7_RKNS5_11MessageInfoEEEEEEEEDcSt16in_place_index_tIXT_EEOT0_
FNDA:0,_ZNSt8__detail9__variant5__getILm1ERNS0_15_Variadic_unionIJSt8functionIFvSt10shared_ptrIN6rclcpp17SerializedMessageEEEES3_IFvS7_RKNS5_11MessageInfoEEEEEEEEDcSt16in_place_index_tIXT_EEOT0_
FN:289,_ZNSt8__detail9__variant5__getILm12ERKNS0_15_Variadic_unionIJSt8functionIFvSt10unique_ptrIN6rclcpp17SerializedMessageESt14default_deleteIS6_EERKNS5_11MessageInfoEEES3_IFvSt10shared_ptrIKN8nav_msgs3msg9Odometry_ISaIvEEEEEES3_IFvSM_SC_EES3_IFvSF_IKS6_EEES3_IFvSS_SC_EES3_IFvRKSM_EES3_IFvSY_SC_EES3_IFvRKSS_EES3_IFvS14_SC_EES3_IFvSF_ISK_EEES3_IFvS19_SC_EES3_IFvSF_IS6_EEES3_IFvS1E_SC_EEEEEEEDcSt16in_place_index_tIXT_EEOT0_
FNDA:0,_ZNSt8__detail9__variant5__getILm12ERKNS0_15_Variadic_unionIJSt8functionIFvSt10unique_ptrIN6rclcpp17SerializedMessageESt14default_deleteIS6_EERKNS5_11MessageInfoEEES3_IFvSt10shared_ptrIKN8nav_msgs3msg9Odometry_ISaIvEEEEEES3_IFvSM_SC_EES3_IFvSF_IKS6_EEES3_IFvSS_SC_EES3_IFvRKSM_EES3_IFvSY_SC_EES3_IFvRKSS_EES3_IFvS14_SC_EES3_IFvSF_ISK_EEES3_IFvS19_SC_EES3_IFvSF_IS6_EEES3_IFvS1E_SC_EEEEEEEDcSt16in_place_index_tIXT_EEOT0_
FN:289,_ZNSt8__detail9__variant5__getILm13ERKNS0_15_Variadic_unionIJSt8functionIFvSt10unique_ptrIN6rclcpp17SerializedMessageESt14default_deleteIS6_EEEES3_IFvS9_RKNS5_11MessageInfoEEES3_IFvSt10shared_ptrIKN8nav_msgs3msg9Odometry_ISaIvEEEEEES3_IFvSO_SE_EES3_IFvSH_IKS6_EEES3_IFvSU_SE_EES3_IFvRKSO_EES3_IFvS10_SE_EES3_IFvRKSU_EES3_IFvS16_SE_EES3_IFvSH_ISM_EEES3_IFvS1B_SE_EES3_IFvSH_IS6_EEES3_IFvS1G_SE_EEEEEEEDcSt16in_place_index_tIXT_EEOT0_
FNDA:0,_ZNSt8__detail9__variant5__getILm13ERKNS0_15_Variadic_unionIJSt8functionIFvSt10unique_ptrIN6rclcpp17SerializedMessageESt14default_deleteIS6_EEEES3_IFvS9_RKNS5_11MessageInfoEEES3_IFvSt10shared_ptrIKN8nav_msgs3msg9Odometry_ISaIvEEEEEES3_IFvSO_SE_EES3_IFvSH_IKS6_EEES3_IFvSU_SE_EES3_IFvRKSO_EES3_IFvS10_SE_EES3_IFvRKSU_EES3_IFvS16_SE_EES3_IFvSH_ISM_EEES3_IFvS1B_SE_EES3_IFvSH_IS6_EEES3_IFvS1G_SE_EEEEEEEDcSt16in_place_index_tIXT_EEOT0_
FN:289,_ZNSt8__detail9__variant5__getILm5ERNS0_15_Variadic_unionIJSt8functionIFvRKSt10shared_ptrIKN6rclcpp17SerializedMessageEEEES3_IFvSA_RKNS5_11MessageInfoEEES3_IFvS4_IN8nav_msgs3msg9Odometry_ISaIvEEEEEES3_IFvSN_SF_EES3_IFvS4_IS6_EEES3_IFvSS_SF_EEEEEEEDcSt16in_place_index_tIXT_EEOT0_
FNDA:0,_ZNSt8__detail9__variant5__getILm5ERNS0_15_Variadic_unionIJSt8functionIFvRKSt10shared_ptrIKN6rclcpp17SerializedMessageEEEES3_IFvSA_RKNS5_11MessageInfoEEES3_IFvS4_IN8nav_msgs3msg9Odometry_ISaIvEEEEEES3_IFvSN_SF_EES3_IFvS4_IS6_EEES3_IFvSS_SF_EEEEEEEDcSt16in_place_index_tIXT_EEOT0_
FN:289,_ZNSt8__detail9__variant5__getILm15ERKNS0_15_Variadic_unionIJSt8functionIFvSt10unique_ptrIN8nav_msgs3msg9Odometry_ISaIvEEESt14default_deleteIS9_EEEES3_IFvSC_RKN6rclcpp11MessageInfoEEES3_IFvS4_INSF_17SerializedMessageESA_ISL_EEEES3_IFvSN_SI_EES3_IFvSt10shared_ptrIKS9_EEES3_IFvSU_SI_EES3_IFvSS_IKSL_EEES3_IFvS10_SI_EES3_IFvRKSU_EES3_IFvS16_SI_EES3_IFvRKS10_EES3_IFvS1C_SI_EES3_IFvSS_IS9_EEES3_IFvS1H_SI_EES3_IFvSS_ISL_EEES3_IFvS1M_SI_EEEEEEEDcSt16in_place_index_tIXT_EEOT0_
FNDA:0,_ZNSt8__detail9__variant5__getILm15ERKNS0_15_Variadic_unionIJSt8functionIFvSt10unique_ptrIN8nav_msgs3msg9Odometry_ISaIvEEESt14default_deleteIS9_EEEES3_IFvSC_RKN6rclcpp11MessageInfoEEES3_IFvS4_INSF_17SerializedMessageESA_ISL_EEEES3_IFvSN_SI_EES3_IFvSt10shared_ptrIKS9_EEES3_IFvSU_SI_EES3_IFvSS_IKSL_EEES3_IFvS10_SI_EES3_IFvRKSU_EES3_IFvS16_SI_EES3_IFvRKS10_EES3_IFvS1C_SI_EES3_IFvSS_IS9_EEES3_IFvS1H_SI_EES3_IFvSS_ISL_EEES3_IFvS1M_SI_EEEEEEEDcSt16in_place_index_tIXT_EEOT0_
FN:289,_ZNSt8__detail9__variant5__getILm16ERKNS0_15_Variadic_unionIJSt8functionIFvRKN6rclcpp17SerializedMessageERKNS4_11MessageInfoEEES3_IFvSt10unique_ptrIN8nav_msgs3msg9Odometry_ISaIvEEESt14default_deleteISI_EEEES3_IFvSL_SA_EES3_IFvSD_IS5_SJ_IS5_EEEES3_IFvSR_SA_EES3_IFvSt10shared_ptrIKSI_EEES3_IFvSY_SA_EES3_IFvSW_IS6_EEES3_IFvS13_SA_EES3_IFvRKSY_EES3_IFvS19_SA_EES3_IFvRKS13_EES3_IFvS1F_SA_EES3_IFvSW_ISI_EEES3_IFvS1K_SA_EES3_IFvSW_IS5_EEES3_IFvS1P_SA_EEEEEEEDcSt16in_place_index_tIXT_EEOT0_
FNDA:0,_ZNSt8__detail9__variant5__getILm16ERKNS0_15_Variadic_unionIJSt8functionIFvRKN6rclcpp17SerializedMessageERKNS4_11MessageInfoEEES3_IFvSt10unique_ptrIN8nav_msgs3msg9Odometry_ISaIvEEESt14default_deleteISI_EEEES3_IFvSL_SA_EES3_IFvSD_IS5_SJ_IS5_EEEES3_IFvSR_SA_EES3_IFvSt10shared_ptrIKSI_EEES3_IFvSY_SA_EES3_IFvSW_IS6_EEES3_IFvS13_SA_EES3_IFvRKSY_EES3_IFvS19_SA_EES3_IFvRKS13_EES3_IFvS1F_SA_EES3_IFvSW_ISI_EEES3_IFvS1K_SA_EES3_IFvSW_IS5_EEES3_IFvS1P_SA_EEEEEEEDcSt16in_place_index_tIXT_EEOT0_
FN:289,_ZNSt8__detail9__variant5__getILm17ERKNS0_15_Variadic_unionIJSt8functionIFvRKN6rclcpp17SerializedMessageEEES3_IFvS7_RKNS4_11MessageInfoEEES3_IFvSt10unique_ptrIN8nav_msgs3msg9Odometry_ISaIvEEESt14default_deleteISK_EEEES3_IFvSN_SC_EES3_IFvSF_IS5_SL_IS5_EEEES3_IFvST_SC_EES3_IFvSt10shared_ptrIKSK_EEES3_IFvS10_SC_EES3_IFvSY_IS6_EEES3_IFvS15_SC_EES3_IFvRKS10_EES3_IFvS1B_SC_EES3_IFvRKS15_EES3_IFvS1H_SC_EES3_IFvSY_ISK_EEES3_IFvS1M_SC_EES3_IFvSY_IS5_EEES3_IFvS1R_SC_EEEEEEEDcSt16in_place_index_tIXT_EEOT0_
FNDA:0,_ZNSt8__detail9__variant5__getILm17ERKNS0_15_Variadic_unionIJSt8functionIFvRKN6rclcpp17SerializedMessageEEES3_IFvS7_RKNS4_11MessageInfoEEES3_IFvSt10unique_ptrIN8nav_msgs3msg9Odometry_ISaIvEEESt14default_deleteISK_EEEES3_IFvSN_SC_EES3_IFvSF_IS5_SL_IS5_EEEES3_IFvST_SC_EES3_IFvSt10shared_ptrIKSK_EEES3_IFvS10_SC_EES3_IFvSY_IS6_EEES3_IFvS15_SC_EES3_IFvRKS10_EES3_IFvS1B_SC_EES3_IFvRKS15_EES3_IFvS1H_SC_EES3_IFvSY_ISK_EEES3_IFvS1M_SC_EES3_IFvSY_IS5_EEES3_IFvS1R_SC_EEEEEEEDcSt16in_place_index_tIXT_EEOT0_
FN:289,_ZNSt8__detail9__variant5__getILm18ERKNS0_15_Variadic_unionIJSt8functionIFvRKN8nav_msgs3msg9Odometry_ISaIvEEERKN6rclcpp11MessageInfoEEES3_IFvRKNSB_17SerializedMessageEEES3_IFvSJ_SE_EES3_IFvSt10unique_ptrIS8_St14default_deleteIS8_EEEES3_IFvSR_SE_EES3_IFvSO_ISH_SP_ISH_EEEES3_IFvSX_SE_EES3_IFvSt10shared_ptrIS9_EEES3_IFvS13_SE_EES3_IFvS12_ISI_EEES3_IFvS18_SE_EES3_IFvRKS13_EES3_IFvS1E_SE_EES3_IFvRKS18_EES3_IFvS1K_SE_EES3_IFvS12_IS8_EEES3_IFvS1P_SE_EES3_IFvS12_ISH_EEES3_IFvS1U_SE_EEEEEEEDcSt16in_place_index_tIXT_EEOT0_
FNDA:0,_ZNSt8__detail9__variant5__getILm18ERKNS0_15_Variadic_unionIJSt8functionIFvRKN8nav_msgs3msg9Odometry_ISaIvEEERKN6rclcpp11MessageInfoEEES3_IFvRKNSB_17SerializedMessageEEES3_IFvSJ_SE_EES3_IFvSt10unique_ptrIS8_St14default_deleteIS8_EEEES3_IFvSR_SE_EES3_IFvSO_ISH_SP_ISH_EEEES3_IFvSX_SE_EES3_IFvSt10shared_ptrIS9_EEES3_IFvS13_SE_EES3_IFvS12_ISI_EEES3_IFvS18_SE_EES3_IFvRKS13_EES3_IFvS1E_SE_EES3_IFvRKS18_EES3_IFvS1K_SE_EES3_IFvS12_IS8_EEES3_IFvS1P_SE_EES3_IFvS12_ISH_EEES3_IFvS1U_SE_EEEEEEEDcSt16in_place_index_tIXT_EEOT0_
FN:289,_ZNSt8__detail9__variant5__getILm19ERKNS0_15_Variadic_unionIJSt8functionIFvRKN8nav_msgs3msg9Odometry_ISaIvEEEEES3_IFvSA_RKN6rclcpp11MessageInfoEEES3_IFvRKNSD_17SerializedMessageEEES3_IFvSL_SG_EES3_IFvSt10unique_ptrIS8_St14default_deleteIS8_EEEES3_IFvST_SG_EES3_IFvSQ_ISJ_SR_ISJ_EEEES3_IFvSZ_SG_EES3_IFvSt10shared_ptrIS9_EEES3_IFvS15_SG_EES3_IFvS14_ISK_EEES3_IFvS1A_SG_EES3_IFvRKS15_EES3_IFvS1G_SG_EES3_IFvRKS1A_EES3_IFvS1M_SG_EES3_IFvS14_IS8_EEES3_IFvS1R_SG_EES3_IFvS14_ISJ_EEES3_IFvS1W_SG_EEEEEEEDcSt16in_place_index_tIXT_EEOT0_
FNDA:0,_ZNSt8__detail9__variant5__getILm19ERKNS0_15_Variadic_unionIJSt8functionIFvRKN8nav_msgs3msg9Odometry_ISaIvEEEEES3_IFvSA_RKN6rclcpp11MessageInfoEEES3_IFvRKNSD_17SerializedMessageEEES3_IFvSL_SG_EES3_IFvSt10unique_ptrIS8_St14default_deleteIS8_EEEES3_IFvST_SG_EES3_IFvSQ_ISJ_SR_ISJ_EEEES3_IFvSZ_SG_EES3_IFvSt10shared_ptrIS9_EEES3_IFvS15_SG_EES3_IFvS14_ISK_EEES3_IFvS1A_SG_EES3_IFvRKS15_EES3_IFvS1G_SG_EES3_IFvRKS1A_EES3_IFvS1M_SG_EES3_IFvS14_IS8_EEES3_IFvS1R_SG_EES3_IFvS14_ISJ_EEES3_IFvS1W_SG_EEEEEEEDcSt16in_place_index_tIXT_EEOT0_
FN:289,_ZNSt8__detail9__variant5__getILm9ERKNS0_15_Variadic_unionIJSt8functionIFvRKN8nav_msgs3msg9Odometry_ISaIvEEEEES3_IFvSA_RKN6rclcpp11MessageInfoEEES3_IFvRKNSD_17SerializedMessageEEES3_IFvSL_SG_EES3_IFvSt10unique_ptrIS8_St14default_deleteIS8_EEEES3_IFvST_SG_EES3_IFvSQ_ISJ_SR_ISJ_EEEES3_IFvSZ_SG_EES3_IFvSt10shared_ptrIS9_EEES3_IFvS15_SG_EES3_IFvS14_ISK_EEES3_IFvS1A_SG_EES3_IFvRKS15_EES3_IFvS1G_SG_EES3_IFvRKS1A_EES3_IFvS1M_SG_EES3_IFvS14_IS8_EEES3_IFvS1R_SG_EES3_IFvS14_ISJ_EEES3_IFvS1W_SG_EEEEEEEDcSt16in_place_index_tIXT_EEOT0_
FNDA:0,_ZNSt8__detail9__variant5__getILm9ERKNS0_15_Variadic_unionIJSt8functionIFvRKN8nav_msgs3msg9Odometry_ISaIvEEEEES3_IFvSA_RKN6rclcpp11MessageInfoEEES3_IFvRKNSD_17SerializedMessageEEES3_IFvSL_SG_EES3_IFvSt10unique_ptrIS8_St14default_deleteIS8_EEEES3_IFvST_SG_EES3_IFvSQ_ISJ_SR_ISJ_EEEES3_IFvSZ_SG_EES3_IFvSt10shared_ptrIS9_EEES3_IFvS15_SG_EES3_IFvS14_ISK_EEES3_IFvS1A_SG_EES3_IFvRKS15_EES3_IFvS1G_SG_EES3_IFvRKS1A_EES3_IFvS1M_SG_EES3_IFvS14_IS8_EEES3_IFvS1R_SG_EES3_IFvS14_ISJ_EEES3_IFvS1W_SG_EEEEEEEDcSt16in_place_index_tIXT_EEOT0_
FN:289,_ZNSt8__detail9__variant5__getILm10ERNS0_15_Variadic_unionIJSt8functionIFvSt10shared_ptrIKN8nav_msgs3msg9Odometry_ISaIvEEEERKN6rclcpp11MessageInfoEEES3_IFvS4_IKNSC_17SerializedMessageEEEES3_IFvSK_SF_EES3_IFvRKSB_EES3_IFvSQ_SF_EES3_IFvRKSK_EES3_IFvSW_SF_EES3_IFvS4_IS9_EEES3_IFvS11_SF_EES3_IFvS4_ISI_EEES3_IFvS16_SF_EEEEEEEDcSt16in_place_index_tIXT_EEOT0_
FNDA:0,_ZNSt8__detail9__variant5__getILm10ERNS0_15_Variadic_unionIJSt8functionIFvSt10shared_ptrIKN8nav_msgs3msg9Odometry_ISaIvEEEERKN6rclcpp11MessageInfoEEES3_IFvS4_IKNSC_17SerializedMessageEEEES3_IFvSK_SF_EES3_IFvRKSB_EES3_IFvSQ_SF_EES3_IFvRKSK_EES3_IFvSW_SF_EES3_IFvS4_IS9_EEES3_IFvS11_SF_EES3_IFvS4_ISI_EEES3_IFvS16_SF_EEEEEEEDcSt16in_place_index_tIXT_EEOT0_
FN:289,_ZNSt8__detail9__variant5__getILm4ERKNS0_15_Variadic_unionIJSt8functionIFvSt10shared_ptrIKN8nav_msgs3msg9Odometry_ISaIvEEEERKN6rclcpp11MessageInfoEEES3_IFvS4_IKNSC_17SerializedMessageEEEES3_IFvSK_SF_EES3_IFvRKSB_EES3_IFvSQ_SF_EES3_IFvRKSK_EES3_IFvSW_SF_EES3_IFvS4_IS9_EEES3_IFvS11_SF_EES3_IFvS4_ISI_EEES3_IFvS16_SF_EEEEEEEDcSt16in_place_index_tIXT_EEOT0_
FNDA:0,_ZNSt8__detail9__variant5__getILm4ERKNS0_15_Variadic_unionIJSt8functionIFvSt10shared_ptrIKN8nav_msgs3msg9Odometry_ISaIvEEEERKN6rclcpp11MessageInfoEEES3_IFvS4_IKNSC_17SerializedMessageEEEES3_IFvSK_SF_EES3_IFvRKSB_EES3_IFvSQ_SF_EES3_IFvRKSK_EES3_IFvSW_SF_EES3_IFvS4_IS9_EEES3_IFvS11_SF_EES3_IFvS4_ISI_EEES3_IFvS16_SF_EEEEEEEDcSt16in_place_index_tIXT_EEOT0_
FN:289,_ZNSt8__detail9__variant5__getILm5ERKNS0_15_Variadic_unionIJSt8functionIFvSt10shared_ptrIKN8nav_msgs3msg9Odometry_ISaIvEEEEEES3_IFvSB_RKN6rclcpp11MessageInfoEEES3_IFvS4_IKNSE_17SerializedMessageEEEES3_IFvSM_SH_EES3_IFvRKSB_EES3_IFvSS_SH_EES3_IFvRKSM_EES3_IFvSY_SH_EES3_IFvS4_IS9_EEES3_IFvS13_SH_EES3_IFvS4_ISK_EEES3_IFvS18_SH_EEEEEEEDcSt16in_place_index_tIXT_EEOT0_
FNDA:0,_ZNSt8__detail9__variant5__getILm5ERKNS0_15_Variadic_unionIJSt8functionIFvSt10shared_ptrIKN8nav_msgs3msg9Odometry_ISaIvEEEEEES3_IFvSB_RKN6rclcpp11MessageInfoEEES3_IFvS4_IKNSE_17SerializedMessageEEEES3_IFvSM_SH_EES3_IFvRKSB_EES3_IFvSS_SH_EES3_IFvRKSM_EES3_IFvSY_SH_EES3_IFvS4_IS9_EEES3_IFvS13_SH_EES3_IFvS4_ISK_EEES3_IFvS18_SH_EEEEEEEDcSt16in_place_index_tIXT_EEOT0_
FN:289,_ZNSt8__detail9__variant5__getILm6ERKNS0_15_Variadic_unionIJSt8functionIFvSt10unique_ptrIN6rclcpp17SerializedMessageESt14default_deleteIS6_EERKNS5_11MessageInfoEEES3_IFvSt10shared_ptrIKN8nav_msgs3msg9Odometry_ISaIvEEEEEES3_IFvSM_SC_EES3_IFvSF_IKS6_EEES3_IFvSS_SC_EES3_IFvRKSM_EES3_IFvSY_SC_EES3_IFvRKSS_EES3_IFvS14_SC_EES3_IFvSF_ISK_EEES3_IFvS19_SC_EES3_IFvSF_IS6_EEES3_IFvS1E_SC_EEEEEEEDcSt16in_place_index_tIXT_EEOT0_
FNDA:0,_ZNSt8__detail9__variant5__getILm6ERKNS0_15_Variadic_unionIJSt8functionIFvSt10unique_ptrIN6rclcpp17SerializedMessageESt14default_deleteIS6_EERKNS5_11MessageInfoEEES3_IFvSt10shared_ptrIKN8nav_msgs3msg9Odometry_ISaIvEEEEEES3_IFvSM_SC_EES3_IFvSF_IKS6_EEES3_IFvSS_SC_EES3_IFvRKSM_EES3_IFvSY_SC_EES3_IFvRKSS_EES3_IFvS14_SC_EES3_IFvSF_ISK_EEES3_IFvS19_SC_EES3_IFvSF_IS6_EEES3_IFvS1E_SC_EEEEEEEDcSt16in_place_index_tIXT_EEOT0_
FN:289,_ZNSt8__detail9__variant5__getILm7ERKNS0_15_Variadic_unionIJSt8functionIFvSt10unique_ptrIN6rclcpp17SerializedMessageESt14default_deleteIS6_EEEES3_IFvS9_RKNS5_11MessageInfoEEES3_IFvSt10shared_ptrIKN8nav_msgs3msg9Odometry_ISaIvEEEEEES3_IFvSO_SE_EES3_IFvSH_IKS6_EEES3_IFvSU_SE_EES3_IFvRKSO_EES3_IFvS10_SE_EES3_IFvRKSU_EES3_IFvS16_SE_EES3_IFvSH_ISM_EEES3_IFvS1B_SE_EES3_IFvSH_IS6_EEES3_IFvS1G_SE_EEEEEEEDcSt16in_place_index_tIXT_EEOT0_
FNDA:0,_ZNSt8__detail9__variant5__getILm7ERKNS0_15_Variadic_unionIJSt8functionIFvSt10unique_ptrIN6rclcpp17SerializedMessageESt14default_deleteIS6_EEEES3_IFvS9_RKNS5_11MessageInfoEEES3_IFvSt10shared_ptrIKN8nav_msgs3msg9Odometry_ISaIvEEEEEES3_IFvSO_SE_EES3_IFvSH_IKS6_EEES3_IFvSU_SE_EES3_IFvRKSO_EES3_IFvS10_SE_EES3_IFvRKSU_EES3_IFvS16_SE_EES3_IFvSH_ISM_EEES3_IFvS1B_SE_EES3_IFvSH_IS6_EEES3_IFvS1G_SE_EEEEEEEDcSt16in_place_index_tIXT_EEOT0_
FN:289,_ZNSt8__detail9__variant5__getILm8ERKNS0_15_Variadic_unionIJSt8functionIFvSt10unique_ptrIN8nav_msgs3msg9Odometry_ISaIvEEESt14default_deleteIS9_EERKN6rclcpp11MessageInfoEEES3_IFvS4_INSD_17SerializedMessageESA_ISJ_EEEES3_IFvSL_SG_EES3_IFvSt10shared_ptrIKS9_EEES3_IFvSS_SG_EES3_IFvSQ_IKSJ_EEES3_IFvSY_SG_EES3_IFvRKSS_EES3_IFvS14_SG_EES3_IFvRKSY_EES3_IFvS1A_SG_EES3_IFvSQ_IS9_EEES3_IFvS1F_SG_EES3_IFvSQ_ISJ_EEES3_IFvS1K_SG_EEEEEEEDcSt16in_place_index_tIXT_EEOT0_
FNDA:0,_ZNSt8__detail9__variant5__getILm8ERKNS0_15_Variadic_unionIJSt8functionIFvSt10unique_ptrIN8nav_msgs3msg9Odometry_ISaIvEEESt14default_deleteIS9_EERKN6rclcpp11MessageInfoEEES3_IFvS4_INSD_17SerializedMessageESA_ISJ_EEEES3_IFvSL_SG_EES3_IFvSt10shared_ptrIKS9_EEES3_IFvSS_SG_EES3_IFvSQ_IKSJ_EEES3_IFvSY_SG_EES3_IFvRKSS_EES3_IFvS14_SG_EES3_IFvRKSY_EES3_IFvS1A_SG_EES3_IFvSQ_IS9_EEES3_IFvS1F_SG_EES3_IFvSQ_ISJ_EEES3_IFvS1K_SG_EEEEEEEDcSt16in_place_index_tIXT_EEOT0_
FN:289,_ZNSt8__detail9__variant5__getILm9ERKNS0_15_Variadic_unionIJSt8functionIFvSt10unique_ptrIN8nav_msgs3msg9Odometry_ISaIvEEESt14default_deleteIS9_EEEES3_IFvSC_RKN6rclcpp11MessageInfoEEES3_IFvS4_INSF_17SerializedMessageESA_ISL_EEEES3_IFvSN_SI_EES3_IFvSt10shared_ptrIKS9_EEES3_IFvSU_SI_EES3_IFvSS_IKSL_EEES3_IFvS10_SI_EES3_IFvRKSU_EES3_IFvS16_SI_EES3_IFvRKS10_EES3_IFvS1C_SI_EES3_IFvSS_IS9_EEES3_IFvS1H_SI_EES3_IFvSS_ISL_EEES3_IFvS1M_SI_EEEEEEEDcSt16in_place_index_tIXT_EEOT0_
FNDA:0,_ZNSt8__detail9__variant5__getILm9ERKNS0_15_Variadic_unionIJSt8functionIFvSt10unique_ptrIN8nav_msgs3msg9Odometry_ISaIvEEESt14default_deleteIS9_EEEES3_IFvSC_RKN6rclcpp11MessageInfoEEES3_IFvS4_INSF_17SerializedMessageESA_ISL_EEEES3_IFvSN_SI_EES3_IFvSt10shared_ptrIKS9_EEES3_IFvSU_SI_EES3_IFvSS_IKSL_EEES3_IFvS10_SI_EES3_IFvRKSU_EES3_IFvS16_SI_EES3_IFvRKS10_EES3_IFvS1C_SI_EES3_IFvSS_IS9_EEES3_IFvS1H_SI_EES3_IFvSS_ISL_EEES3_IFvS1M_SI_EEEEEEEDcSt16in_place_index_tIXT_EEOT0_
FN:289,_ZNSt8__detail9__variant5__getILm10ERKNS0_15_Variadic_unionIJSt8functionIFvRKN6rclcpp17SerializedMessageERKNS4_11MessageInfoEEES3_IFvSt10unique_ptrIN8nav_msgs3msg9Odometry_ISaIvEEESt14default_deleteISI_EEEES3_IFvSL_SA_EES3_IFvSD_IS5_SJ_IS5_EEEES3_IFvSR_SA_EES3_IFvSt10shared_ptrIKSI_EEES3_IFvSY_SA_EES3_IFvSW_IS6_EEES3_IFvS13_SA_EES3_IFvRKSY_EES3_IFvS19_SA_EES3_IFvRKS13_EES3_IFvS1F_SA_EES3_IFvSW_ISI_EEES3_IFvS1K_SA_EES3_IFvSW_IS5_EEES3_IFvS1P_SA_EEEEEEEDcSt16in_place_index_tIXT_EEOT0_
FNDA:0,_ZNSt8__detail9__variant5__getILm10ERKNS0_15_Variadic_unionIJSt8functionIFvRKN6rclcpp17SerializedMessageERKNS4_11MessageInfoEEES3_IFvSt10unique_ptrIN8nav_msgs3msg9Odometry_ISaIvEEESt14default_deleteISI_EEEES3_IFvSL_SA_EES3_IFvSD_IS5_SJ_IS5_EEEES3_IFvSR_SA_EES3_IFvSt10shared_ptrIKSI_EEES3_IFvSY_SA_EES3_IFvSW_IS6_EEES3_IFvS13_SA_EES3_IFvRKSY_EES3_IFvS19_SA_EES3_IFvRKS13_EES3_IFvS1F_SA_EES3_IFvSW_ISI_EEES3_IFvS1K_SA_EES3_IFvSW_IS5_EEES3_IFvS1P_SA_EEEEEEEDcSt16in_place_index_tIXT_EEOT0_
FN:289,_ZNSt8__detail9__variant5__getILm11ERKNS0_15_Variadic_unionIJSt8functionIFvRKN6rclcpp17SerializedMessageEEES3_IFvS7_RKNS4_11MessageInfoEEES3_IFvSt10unique_ptrIN8nav_msgs3msg9Odometry_ISaIvEEESt14default_deleteISK_EEEES3_IFvSN_SC_EES3_IFvSF_IS5_SL_IS5_EEEES3_IFvST_SC_EES3_IFvSt10shared_ptrIKSK_EEES3_IFvS10_SC_EES3_IFvSY_IS6_EEES3_IFvS15_SC_EES3_IFvRKS10_EES3_IFvS1B_SC_EES3_IFvRKS15_EES3_IFvS1H_SC_EES3_IFvSY_ISK_EEES3_IFvS1M_SC_EES3_IFvSY_IS5_EEES3_IFvS1R_SC_EEEEEEEDcSt16in_place_index_tIXT_EEOT0_
FNDA:0,_ZNSt8__detail9__variant5__getILm11ERKNS0_15_Variadic_unionIJSt8functionIFvRKN6rclcpp17SerializedMessageEEES3_IFvS7_RKNS4_11MessageInfoEEES3_IFvSt10unique_ptrIN8nav_msgs3msg9Odometry_ISaIvEEESt14default_deleteISK_EEEES3_IFvSN_SC_EES3_IFvSF_IS5_SL_IS5_EEEES3_IFvST_SC_EES3_IFvSt10shared_ptrIKSK_EEES3_IFvS10_SC_EES3_IFvSY_IS6_EEES3_IFvS15_SC_EES3_IFvRKS10_EES3_IFvS1B_SC_EES3_IFvRKS15_EES3_IFvS1H_SC_EES3_IFvSY_ISK_EEES3_IFvS1M_SC_EES3_IFvSY_IS5_EEES3_IFvS1R_SC_EEEEEEEDcSt16in_place_index_tIXT_EEOT0_
FN:289,_ZNSt8__detail9__variant5__getILm12ERKNS0_15_Variadic_unionIJSt8functionIFvRKN8nav_msgs3msg9Odometry_ISaIvEEERKN6rclcpp11MessageInfoEEES3_IFvRKNSB_17SerializedMessageEEES3_IFvSJ_SE_EES3_IFvSt10unique_ptrIS8_St14default_deleteIS8_EEEES3_IFvSR_SE_EES3_IFvSO_ISH_SP_ISH_EEEES3_IFvSX_SE_EES3_IFvSt10shared_ptrIS9_EEES3_IFvS13_SE_EES3_IFvS12_ISI_EEES3_IFvS18_SE_EES3_IFvRKS13_EES3_IFvS1E_SE_EES3_IFvRKS18_EES3_IFvS1K_SE_EES3_IFvS12_IS8_EEES3_IFvS1P_SE_EES3_IFvS12_ISH_EEES3_IFvS1U_SE_EEEEEEEDcSt16in_place_index_tIXT_EEOT0_
FNDA:0,_ZNSt8__detail9__variant5__getILm12ERKNS0_15_Variadic_unionIJSt8functionIFvRKN8nav_msgs3msg9Odometry_ISaIvEEERKN6rclcpp11MessageInfoEEES3_IFvRKNSB_17SerializedMessageEEES3_IFvSJ_SE_EES3_IFvSt10unique_ptrIS8_St14default_deleteIS8_EEEES3_IFvSR_SE_EES3_IFvSO_ISH_SP_ISH_EEEES3_IFvSX_SE_EES3_IFvSt10shared_ptrIS9_EEES3_IFvS13_SE_EES3_IFvS12_ISI_EEES3_IFvS18_SE_EES3_IFvRKS13_EES3_IFvS1E_SE_EES3_IFvRKS18_EES3_IFvS1K_SE_EES3_IFvS12_IS8_EEES3_IFvS1P_SE_EES3_IFvS12_ISH_EEES3_IFvS1U_SE_EEEEEEEDcSt16in_place_index_tIXT_EEOT0_
FN:289,_ZNSt8__detail9__variant5__getILm13ERKNS0_15_Variadic_unionIJSt8functionIFvRKN8nav_msgs3msg9Odometry_ISaIvEEEEES3_IFvSA_RKN6rclcpp11MessageInfoEEES3_IFvRKNSD_17SerializedMessageEEES3_IFvSL_SG_EES3_IFvSt10unique_ptrIS8_St14default_deleteIS8_EEEES3_IFvST_SG_EES3_IFvSQ_ISJ_SR_ISJ_EEEES3_IFvSZ_SG_EES3_IFvSt10shared_ptrIS9_EEES3_IFvS15_SG_EES3_IFvS14_ISK_EEES3_IFvS1A_SG_EES3_IFvRKS15_EES3_IFvS1G_SG_EES3_IFvRKS1A_EES3_IFvS1M_SG_EES3_IFvS14_IS8_EEES3_IFvS1R_SG_EES3_IFvS14_ISJ_EEES3_IFvS1W_SG_EEEEEEEDcSt16in_place_index_tIXT_EEOT0_
FNDA:0,_ZNSt8__detail9__variant5__getILm13ERKNS0_15_Variadic_unionIJSt8functionIFvRKN8nav_msgs3msg9Odometry_ISaIvEEEEES3_IFvSA_RKN6rclcpp11MessageInfoEEES3_IFvRKNSD_17SerializedMessageEEES3_IFvSL_SG_EES3_IFvSt10unique_ptrIS8_St14default_deleteIS8_EEEES3_IFvST_SG_EES3_IFvSQ_ISJ_SR_ISJ_EEEES3_IFvSZ_SG_EES3_IFvSt10shared_ptrIS9_EEES3_IFvS15_SG_EES3_IFvS14_ISK_EEES3_IFvS1A_SG_EES3_IFvRKS15_EES3_IFvS1G_SG_EES3_IFvRKS1A_EES3_IFvS1M_SG_EES3_IFvS14_IS8_EEES3_IFvS1R_SG_EES3_IFvS14_ISJ_EEES3_IFvS1W_SG_EEEEEEEDcSt16in_place_index_tIXT_EEOT0_
FN:289,_ZNSt8__detail9__variant5__getILm8ERKNS0_15_Variadic_unionIJSt8functionIFvRKN6rclcpp17SerializedMessageEEES3_IFvS7_RKNS4_11MessageInfoEEES3_IFvSt10unique_ptrIN8nav_msgs3msg9Odometry_ISaIvEEESt14default_deleteISK_EEEES3_IFvSN_SC_EES3_IFvSF_IS5_SL_IS5_EEEES3_IFvST_SC_EES3_IFvSt10shared_ptrIKSK_EEES3_IFvS10_SC_EES3_IFvSY_IS6_EEES3_IFvS15_SC_EES3_IFvRKS10_EES3_IFvS1B_SC_EES3_IFvRKS15_EES3_IFvS1H_SC_EES3_IFvSY_ISK_EEES3_IFvS1M_SC_EES3_IFvSY_IS5_EEES3_IFvS1R_SC_EEEEEEEDcSt16in_place_index_tIXT_EEOT0_
FNDA:0,_ZNSt8__detail9__variant5__getILm8ERKNS0_15_Variadic_unionIJSt8functionIFvRKN6rclcpp17SerializedMessageEEES3_IFvS7_RKNS4_11MessageInfoEEES3_IFvSt10unique_ptrIN8nav_msgs3msg9Odometry_ISaIvEEESt14default_deleteISK_EEEES3_IFvSN_SC_EES3_IFvSF_IS5_SL_IS5_EEEES3_IFvST_SC_EES3_IFvSt10shared_ptrIKSK_EEES3_IFvS10_SC_EES3_IFvSY_IS6_EEES3_IFvS15_SC_EES3_IFvRKS10_EES3_IFvS1B_SC_EES3_IFvRKS15_EES3_IFvS1H_SC_EES3_IFvSY_ISK_EEES3_IFvS1M_SC_EES3_IFvSY_IS5_EEES3_IFvS1R_SC_EEEEEEEDcSt16in_place_index_tIXT_EEOT0_
FN:289,_ZNSt8__detail9__variant5__getILm11ERNS0_15_Variadic_unionIJSt8functionIFvSt10shared_ptrIKN8nav_msgs3msg9Odometry_ISaIvEEEEEES3_IFvSB_RKN6rclcpp11MessageInfoEEES3_IFvS4_IKNSE_17SerializedMessageEEEES3_IFvSM_SH_EES3_IFvRKSB_EES3_IFvSS_SH_EES3_IFvRKSM_EES3_IFvSY_SH_EES3_IFvS4_IS9_EEES3_IFvS13_SH_EES3_IFvS4_ISK_EEES3_IFvS18_SH_EEEEEEEDcSt16in_place_index_tIXT_EEOT0_
FNDA:0,_ZNSt8__detail9__variant5__getILm11ERNS0_15_Variadic_unionIJSt8functionIFvSt10shared_ptrIKN8nav_msgs3msg9Odometry_ISaIvEEEEEES3_IFvSB_RKN6rclcpp11MessageInfoEEES3_IFvS4_IKNSE_17SerializedMessageEEEES3_IFvSM_SH_EES3_IFvRKSB_EES3_IFvSS_SH_EES3_IFvRKSM_EES3_IFvSY_SH_EES3_IFvS4_IS9_EEES3_IFvS13_SH_EES3_IFvS4_ISK_EEES3_IFvS18_SH_EEEEEEEDcSt16in_place_index_tIXT_EEOT0_
FN:289,_ZNSt8__detail9__variant5__getILm7ERKNS0_15_Variadic_unionIJSt8functionIFvRKN6rclcpp17SerializedMessageERKNS4_11MessageInfoEEES3_IFvSt10unique_ptrIN8nav_msgs3msg9Odometry_ISaIvEEESt14default_deleteISI_EEEES3_IFvSL_SA_EES3_IFvSD_IS5_SJ_IS5_EEEES3_IFvSR_SA_EES3_IFvSt10shared_ptrIKSI_EEES3_IFvSY_SA_EES3_IFvSW_IS6_EEES3_IFvS13_SA_EES3_IFvRKSY_EES3_IFvS19_SA_EES3_IFvRKS13_EES3_IFvS1F_SA_EES3_IFvSW_ISI_EEES3_IFvS1K_SA_EES3_IFvSW_IS5_EEES3_IFvS1P_SA_EEEEEEEDcSt16in_place_index_tIXT_EEOT0_
FNDA:0,_ZNSt8__detail9__variant5__getILm7ERKNS0_15_Variadic_unionIJSt8functionIFvRKN6rclcpp17SerializedMessageERKNS4_11MessageInfoEEES3_IFvSt10unique_ptrIN8nav_msgs3msg9Odometry_ISaIvEEESt14default_deleteISI_EEEES3_IFvSL_SA_EES3_IFvSD_IS5_SJ_IS5_EEEES3_IFvSR_SA_EES3_IFvSt10shared_ptrIKSI_EEES3_IFvSY_SA_EES3_IFvSW_IS6_EEES3_IFvS13_SA_EES3_IFvRKSY_EES3_IFvS19_SA_EES3_IFvRKS13_EES3_IFvS1F_SA_EES3_IFvSW_ISI_EEES3_IFvS1K_SA_EES3_IFvSW_IS5_EEES3_IFvS1P_SA_EEEEEEEDcSt16in_place_index_tIXT_EEOT0_
FN:289,_ZNSt8__detail9__variant5__getILm3ERKNS0_15_Variadic_unionIJSt8functionIFvSt10shared_ptrIKN6rclcpp17SerializedMessageEEEES3_IFvS8_RKNS5_11MessageInfoEEES3_IFvRKS4_IKN8nav_msgs3msg9Odometry_ISaIvEEEEEES3_IFvSO_SD_EES3_IFvRKS8_EES3_IFvSU_SD_EES3_IFvS4_ISK_EEES3_IFvSZ_SD_EES3_IFvS4_IS6_EEES3_IFvS14_SD_EEEEEEEDcSt16in_place_index_tIXT_EEOT0_
FNDA:0,_ZNSt8__detail9__variant5__getILm3ERKNS0_15_Variadic_unionIJSt8functionIFvSt10shared_ptrIKN6rclcpp17SerializedMessageEEEES3_IFvS8_RKNS5_11MessageInfoEEES3_IFvRKS4_IKN8nav_msgs3msg9Odometry_ISaIvEEEEEES3_IFvSO_SD_EES3_IFvRKS8_EES3_IFvSU_SD_EES3_IFvS4_ISK_EEES3_IFvSZ_SD_EES3_IFvS4_IS6_EEES3_IFvS14_SD_EEEEEEEDcSt16in_place_index_tIXT_EEOT0_
FN:289,_ZNSt8__detail9__variant5__getILm1ERKNS0_15_Variadic_unionIJSt8functionIFvRKSt10shared_ptrIKN8nav_msgs3msg9Odometry_ISaIvEEEERKN6rclcpp11MessageInfoEEES3_IFvRKS4_IKNSE_17SerializedMessageEEEES3_IFvSO_SH_EES3_IFvS4_IS9_EEES3_IFvST_SH_EES3_IFvS4_ISK_EEES3_IFvSY_SH_EEEEEEEDcSt16in_place_index_tIXT_EEOT0_
FNDA:0,_ZNSt8__detail9__variant5__getILm1ERKNS0_15_Variadic_unionIJSt8functionIFvRKSt10shared_ptrIKN8nav_msgs3msg9Odometry_ISaIvEEEERKN6rclcpp11MessageInfoEEES3_IFvRKS4_IKNSE_17SerializedMessageEEEES3_IFvSO_SH_EES3_IFvS4_IS9_EEES3_IFvST_SH_EES3_IFvS4_ISK_EEES3_IFvSY_SH_EEEEEEEDcSt16in_place_index_tIXT_EEOT0_
FN:289,_ZNSt8__detail9__variant5__getILm2ERKNS0_15_Variadic_unionIJSt8functionIFvRKSt10shared_ptrIKN8nav_msgs3msg9Odometry_ISaIvEEEEEES3_IFvSD_RKN6rclcpp11MessageInfoEEES3_IFvRKS4_IKNSG_17SerializedMessageEEEES3_IFvSQ_SJ_EES3_IFvS4_IS9_EEES3_IFvSV_SJ_EES3_IFvS4_ISM_EEES3_IFvS10_SJ_EEEEEEEDcSt16in_place_index_tIXT_EEOT0_
FNDA:0,_ZNSt8__detail9__variant5__getILm2ERKNS0_15_Variadic_unionIJSt8functionIFvRKSt10shared_ptrIKN8nav_msgs3msg9Odometry_ISaIvEEEEEES3_IFvSD_RKN6rclcpp11MessageInfoEEES3_IFvRKS4_IKNSG_17SerializedMessageEEEES3_IFvSQ_SJ_EES3_IFvS4_IS9_EEES3_IFvSV_SJ_EES3_IFvS4_ISM_EEES3_IFvS10_SJ_EEEEEEEDcSt16in_place_index_tIXT_EEOT0_
FN:289,_ZNSt8__detail9__variant5__getILm3ERKNS0_15_Variadic_unionIJSt8functionIFvSt10shared_ptrIKN6rclcpp17SerializedMessageEERKNS5_11MessageInfoEEES3_IFvRKS4_IKN8nav_msgs3msg9Odometry_ISaIvEEEEEES3_IFvSM_SB_EES3_IFvRKS8_EES3_IFvSS_SB_EES3_IFvS4_ISI_EEES3_IFvSX_SB_EES3_IFvS4_IS6_EEES3_IFvS12_SB_EEEEEEEDcSt16in_place_index_tIXT_EEOT0_
FNDA:0,_ZNSt8__detail9__variant5__getILm3ERKNS0_15_Variadic_unionIJSt8functionIFvSt10shared_ptrIKN6rclcpp17SerializedMessageEERKNS5_11MessageInfoEEES3_IFvRKS4_IKN8nav_msgs3msg9Odometry_ISaIvEEEEEES3_IFvSM_SB_EES3_IFvRKS8_EES3_IFvSS_SB_EES3_IFvS4_ISI_EEES3_IFvSX_SB_EES3_IFvS4_IS6_EEES3_IFvS12_SB_EEEEEEEDcSt16in_place_index_tIXT_EEOT0_
FN:289,_ZNSt8__detail9__variant5__getILm4ERKNS0_15_Variadic_unionIJSt8functionIFvSt10shared_ptrIKN6rclcpp17SerializedMessageEEEES3_IFvS8_RKNS5_11MessageInfoEEES3_IFvRKS4_IKN8nav_msgs3msg9Odometry_ISaIvEEEEEES3_IFvSO_SD_EES3_IFvRKS8_EES3_IFvSU_SD_EES3_IFvS4_ISK_EEES3_IFvSZ_SD_EES3_IFvS4_IS6_EEES3_IFvS14_SD_EEEEEEEDcSt16in_place_index_tIXT_EEOT0_
FNDA:0,_ZNSt8__detail9__variant5__getILm4ERKNS0_15_Variadic_unionIJSt8functionIFvSt10shared_ptrIKN6rclcpp17SerializedMessageEEEES3_IFvS8_RKNS5_11MessageInfoEEES3_IFvRKS4_IKN8nav_msgs3msg9Odometry_ISaIvEEEEEES3_IFvSO_SD_EES3_IFvRKS8_EES3_IFvSU_SD_EES3_IFvS4_ISK_EEES3_IFvSZ_SD_EES3_IFvS4_IS6_EEES3_IFvS14_SD_EEEEEEEDcSt16in_place_index_tIXT_EEOT0_
FN:289,_ZNSt8__detail9__variant5__getILm5ERKNS0_15_Variadic_unionIJSt8functionIFvSt10shared_ptrIKN8nav_msgs3msg9Odometry_ISaIvEEEERKN6rclcpp11MessageInfoEEES3_IFvS4_IKNSC_17SerializedMessageEEEES3_IFvSK_SF_EES3_IFvRKSB_EES3_IFvSQ_SF_EES3_IFvRKSK_EES3_IFvSW_SF_EES3_IFvS4_IS9_EEES3_IFvS11_SF_EES3_IFvS4_ISI_EEES3_IFvS16_SF_EEEEEEEDcSt16in_place_index_tIXT_EEOT0_
FNDA:0,_ZNSt8__detail9__variant5__getILm5ERKNS0_15_Variadic_unionIJSt8functionIFvSt10shared_ptrIKN8nav_msgs3msg9Odometry_ISaIvEEEERKN6rclcpp11MessageInfoEEES3_IFvS4_IKNSC_17SerializedMessageEEEES3_IFvSK_SF_EES3_IFvRKSB_EES3_IFvSQ_SF_EES3_IFvRKSK_EES3_IFvSW_SF_EES3_IFvS4_IS9_EEES3_IFvS11_SF_EES3_IFvS4_ISI_EEES3_IFvS16_SF_EEEEEEEDcSt16in_place_index_tIXT_EEOT0_
FN:289,_ZNSt8__detail9__variant5__getILm6ERKNS0_15_Variadic_unionIJSt8functionIFvSt10shared_ptrIKN8nav_msgs3msg9Odometry_ISaIvEEEEEES3_IFvSB_RKN6rclcpp11MessageInfoEEES3_IFvS4_IKNSE_17SerializedMessageEEEES3_IFvSM_SH_EES3_IFvRKSB_EES3_IFvSS_SH_EES3_IFvRKSM_EES3_IFvSY_SH_EES3_IFvS4_IS9_EEES3_IFvS13_SH_EES3_IFvS4_ISK_EEES3_IFvS18_SH_EEEEEEEDcSt16in_place_index_tIXT_EEOT0_
FNDA:0,_ZNSt8__detail9__variant5__getILm6ERKNS0_15_Variadic_unionIJSt8functionIFvSt10shared_ptrIKN8nav_msgs3msg9Odometry_ISaIvEEEEEES3_IFvSB_RKN6rclcpp11MessageInfoEEES3_IFvS4_IKNSE_17SerializedMessageEEEES3_IFvSM_SH_EES3_IFvRKSB_EES3_IFvSS_SH_EES3_IFvRKSM_EES3_IFvSY_SH_EES3_IFvS4_IS9_EEES3_IFvS13_SH_EES3_IFvS4_ISK_EEES3_IFvS18_SH_EEEEEEEDcSt16in_place_index_tIXT_EEOT0_
FN:289,_ZNSt8__detail9__variant5__getILm7ERKNS0_15_Variadic_unionIJSt8functionIFvSt10unique_ptrIN6rclcpp17SerializedMessageESt14default_deleteIS6_EERKNS5_11MessageInfoEEES3_IFvSt10shared_ptrIKN8nav_msgs3msg9Odometry_ISaIvEEEEEES3_IFvSM_SC_EES3_IFvSF_IKS6_EEES3_IFvSS_SC_EES3_IFvRKSM_EES3_IFvSY_SC_EES3_IFvRKSS_EES3_IFvS14_SC_EES3_IFvSF_ISK_EEES3_IFvS19_SC_EES3_IFvSF_IS6_EEES3_IFvS1E_SC_EEEEEEEDcSt16in_place_index_tIXT_EEOT0_
FNDA:0,_ZNSt8__detail9__variant5__getILm7ERKNS0_15_Variadic_unionIJSt8functionIFvSt10unique_ptrIN6rclcpp17SerializedMessageESt14default_deleteIS6_EERKNS5_11MessageInfoEEES3_IFvSt10shared_ptrIKN8nav_msgs3msg9Odometry_ISaIvEEEEEES3_IFvSM_SC_EES3_IFvSF_IKS6_EEES3_IFvSS_SC_EES3_IFvRKSM_EES3_IFvSY_SC_EES3_IFvRKSS_EES3_IFvS14_SC_EES3_IFvSF_ISK_EEES3_IFvS19_SC_EES3_IFvSF_IS6_EEES3_IFvS1E_SC_EEEEEEEDcSt16in_place_index_tIXT_EEOT0_
FN:289,_ZNSt8__detail9__variant5__getILm8ERKNS0_15_Variadic_unionIJSt8functionIFvSt10unique_ptrIN6rclcpp17SerializedMessageESt14default_deleteIS6_EEEES3_IFvS9_RKNS5_11MessageInfoEEES3_IFvSt10shared_ptrIKN8nav_msgs3msg9Odometry_ISaIvEEEEEES3_IFvSO_SE_EES3_IFvSH_IKS6_EEES3_IFvSU_SE_EES3_IFvRKSO_EES3_IFvS10_SE_EES3_IFvRKSU_EES3_IFvS16_SE_EES3_IFvSH_ISM_EEES3_IFvS1B_SE_EES3_IFvSH_IS6_EEES3_IFvS1G_SE_EEEEEEEDcSt16in_place_index_tIXT_EEOT0_
FNDA:0,_ZNSt8__detail9__variant5__getILm8ERKNS0_15_Variadic_unionIJSt8functionIFvSt10unique_ptrIN6rclcpp17SerializedMessageESt14default_deleteIS6_EEEES3_IFvS9_RKNS5_11MessageInfoEEES3_IFvSt10shared_ptrIKN8nav_msgs3msg9Odometry_ISaIvEEEEEES3_IFvSO_SE_EES3_IFvSH_IKS6_EEES3_IFvSU_SE_EES3_IFvRKSO_EES3_IFvS10_SE_EES3_IFvRKSU_EES3_IFvS16_SE_EES3_IFvSH_ISM_EEES3_IFvS1B_SE_EES3_IFvSH_IS6_EEES3_IFvS1G_SE_EEEEEEEDcSt16in_place_index_tIXT_EEOT0_
FN:289,_ZNSt8__detail9__variant5__getILm9ERKNS0_15_Variadic_unionIJSt8functionIFvSt10unique_ptrIN8nav_msgs3msg9Odometry_ISaIvEEESt14default_deleteIS9_EERKN6rclcpp11MessageInfoEEES3_IFvS4_INSD_17SerializedMessageESA_ISJ_EEEES3_IFvSL_SG_EES3_IFvSt10shared_ptrIKS9_EEES3_IFvSS_SG_EES3_IFvSQ_IKSJ_EEES3_IFvSY_SG_EES3_IFvRKSS_EES3_IFvS14_SG_EES3_IFvRKSY_EES3_IFvS1A_SG_EES3_IFvSQ_IS9_EEES3_IFvS1F_SG_EES3_IFvSQ_ISJ_EEES3_IFvS1K_SG_EEEEEEEDcSt16in_place_index_tIXT_EEOT0_
FNDA:0,_ZNSt8__detail9__variant5__getILm9ERKNS0_15_Variadic_unionIJSt8functionIFvSt10unique_ptrIN8nav_msgs3msg9Odometry_ISaIvEEESt14default_deleteIS9_EERKN6rclcpp11MessageInfoEEES3_IFvS4_INSD_17SerializedMessageESA_ISJ_EEEES3_IFvSL_SG_EES3_IFvSt10shared_ptrIKS9_EEES3_IFvSS_SG_EES3_IFvSQ_IKSJ_EEES3_IFvSY_SG_EES3_IFvRKSS_EES3_IFvS14_SG_EES3_IFvRKSY_EES3_IFvS1A_SG_EES3_IFvSQ_IS9_EEES3_IFvS1F_SG_EES3_IFvSQ_ISJ_EEES3_IFvS1K_SG_EEEEEEEDcSt16in_place_index_tIXT_EEOT0_
FN:289,_ZNSt8__detail9__variant5__getILm10ERKNS0_15_Variadic_unionIJSt8functionIFvSt10unique_ptrIN8nav_msgs3msg9Odometry_ISaIvEEESt14default_deleteIS9_EEEES3_IFvSC_RKN6rclcpp11MessageInfoEEES3_IFvS4_INSF_17SerializedMessageESA_ISL_EEEES3_IFvSN_SI_EES3_IFvSt10shared_ptrIKS9_EEES3_IFvSU_SI_EES3_IFvSS_IKSL_EEES3_IFvS10_SI_EES3_IFvRKSU_EES3_IFvS16_SI_EES3_IFvRKS10_EES3_IFvS1C_SI_EES3_IFvSS_IS9_EEES3_IFvS1H_SI_EES3_IFvSS_ISL_EEES3_IFvS1M_SI_EEEEEEEDcSt16in_place_index_tIXT_EEOT0_
FNDA:0,_ZNSt8__detail9__variant5__getILm10ERKNS0_15_Variadic_unionIJSt8functionIFvSt10unique_ptrIN8nav_msgs3msg9Odometry_ISaIvEEESt14default_deleteIS9_EEEES3_IFvSC_RKN6rclcpp11MessageInfoEEES3_IFvS4_INSF_17SerializedMessageESA_ISL_EEEES3_IFvSN_SI_EES3_IFvSt10shared_ptrIKS9_EEES3_IFvSU_SI_EES3_IFvSS_IKSL_EEES3_IFvS10_SI_EES3_IFvRKSU_EES3_IFvS16_SI_EES3_IFvRKS10_EES3_IFvS1C_SI_EES3_IFvSS_IS9_EEES3_IFvS1H_SI_EES3_IFvSS_ISL_EEES3_IFvS1M_SI_EEEEEEEDcSt16in_place_index_tIXT_EEOT0_
FN:289,_ZNSt8__detail9__variant5__getILm11ERKNS0_15_Variadic_unionIJSt8functionIFvRKN6rclcpp17SerializedMessageERKNS4_11MessageInfoEEES3_IFvSt10unique_ptrIN8nav_msgs3msg9Odometry_ISaIvEEESt14default_deleteISI_EEEES3_IFvSL_SA_EES3_IFvSD_IS5_SJ_IS5_EEEES3_IFvSR_SA_EES3_IFvSt10shared_ptrIKSI_EEES3_IFvSY_SA_EES3_IFvSW_IS6_EEES3_IFvS13_SA_EES3_IFvRKSY_EES3_IFvS19_SA_EES3_IFvRKS13_EES3_IFvS1F_SA_EES3_IFvSW_ISI_EEES3_IFvS1K_SA_EES3_IFvSW_IS5_EEES3_IFvS1P_SA_EEEEEEEDcSt16in_place_index_tIXT_EEOT0_
FNDA:0,_ZNSt8__detail9__variant5__getILm11ERKNS0_15_Variadic_unionIJSt8functionIFvRKN6rclcpp17SerializedMessageERKNS4_11MessageInfoEEES3_IFvSt10unique_ptrIN8nav_msgs3msg9Odometry_ISaIvEEESt14default_deleteISI_EEEES3_IFvSL_SA_EES3_IFvSD_IS5_SJ_IS5_EEEES3_IFvSR_SA_EES3_IFvSt10shared_ptrIKSI_EEES3_IFvSY_SA_EES3_IFvSW_IS6_EEES3_IFvS13_SA_EES3_IFvRKSY_EES3_IFvS19_SA_EES3_IFvRKS13_EES3_IFvS1F_SA_EES3_IFvSW_ISI_EEES3_IFvS1K_SA_EES3_IFvSW_IS5_EEES3_IFvS1P_SA_EEEEEEEDcSt16in_place_index_tIXT_EEOT0_
FN:289,_ZNSt8__detail9__variant5__getILm12ERKNS0_15_Variadic_unionIJSt8functionIFvRKN6rclcpp17SerializedMessageEEES3_IFvS7_RKNS4_11MessageInfoEEES3_IFvSt10unique_ptrIN8nav_msgs3msg9Odometry_ISaIvEEESt14default_deleteISK_EEEES3_IFvSN_SC_EES3_IFvSF_IS5_SL_IS5_EEEES3_IFvST_SC_EES3_IFvSt10shared_ptrIKSK_EEES3_IFvS10_SC_EES3_IFvSY_IS6_EEES3_IFvS15_SC_EES3_IFvRKS10_EES3_IFvS1B_SC_EES3_IFvRKS15_EES3_IFvS1H_SC_EES3_IFvSY_ISK_EEES3_IFvS1M_SC_EES3_IFvSY_IS5_EEES3_IFvS1R_SC_EEEEEEEDcSt16in_place_index_tIXT_EEOT0_
FNDA:0,_ZNSt8__detail9__variant5__getILm12ERKNS0_15_Variadic_unionIJSt8functionIFvRKN6rclcpp17SerializedMessageEEES3_IFvS7_RKNS4_11MessageInfoEEES3_IFvSt10unique_ptrIN8nav_msgs3msg9Odometry_ISaIvEEESt14default_deleteISK_EEEES3_IFvSN_SC_EES3_IFvSF_IS5_SL_IS5_EEEES3_IFvST_SC_EES3_IFvSt10shared_ptrIKSK_EEES3_IFvS10_SC_EES3_IFvSY_IS6_EEES3_IFvS15_SC_EES3_IFvRKS10_EES3_IFvS1B_SC_EES3_IFvRKS15_EES3_IFvS1H_SC_EES3_IFvSY_ISK_EEES3_IFvS1M_SC_EES3_IFvSY_IS5_EEES3_IFvS1R_SC_EEEEEEEDcSt16in_place_index_tIXT_EEOT0_
FN:289,_ZNSt8__detail9__variant5__getILm6ERKNS0_15_Variadic_unionIJSt8functionIFvSt10unique_ptrIN6rclcpp17SerializedMessageESt14default_deleteIS6_EEEES3_IFvS9_RKNS5_11MessageInfoEEES3_IFvSt10shared_ptrIKN8nav_msgs3msg9Odometry_ISaIvEEEEEES3_IFvSO_SE_EES3_IFvSH_IKS6_EEES3_IFvSU_SE_EES3_IFvRKSO_EES3_IFvS10_SE_EES3_IFvRKSU_EES3_IFvS16_SE_EES3_IFvSH_ISM_EEES3_IFvS1B_SE_EES3_IFvSH_IS6_EEES3_IFvS1G_SE_EEEEEEEDcSt16in_place_index_tIXT_EEOT0_
FNDA:0,_ZNSt8__detail9__variant5__getILm6ERKNS0_15_Variadic_unionIJSt8functionIFvSt10unique_ptrIN6rclcpp17SerializedMessageESt14default_deleteIS6_EEEES3_IFvS9_RKNS5_11MessageInfoEEES3_IFvSt10shared_ptrIKN8nav_msgs3msg9Odometry_ISaIvEEEEEES3_IFvSO_SE_EES3_IFvSH_IKS6_EEES3_IFvSU_SE_EES3_IFvRKSO_EES3_IFvS10_SE_EES3_IFvRKSU_EES3_IFvS16_SE_EES3_IFvSH_ISM_EEES3_IFvS1B_SE_EES3_IFvSH_IS6_EEES3_IFvS1G_SE_EEEEEEEDcSt16in_place_index_tIXT_EEOT0_
FN:289,_ZNSt8__detail9__variant5__getILm10ERKNS0_15_Variadic_unionIJSt8functionIFvRKN8nav_msgs3msg9Odometry_ISaIvEEERKN6rclcpp11MessageInfoEEES3_IFvRKNSB_17SerializedMessageEEES3_IFvSJ_SE_EES3_IFvSt10unique_ptrIS8_St14default_deleteIS8_EEEES3_IFvSR_SE_EES3_IFvSO_ISH_SP_ISH_EEEES3_IFvSX_SE_EES3_IFvSt10shared_ptrIS9_EEES3_IFvS13_SE_EES3_IFvS12_ISI_EEES3_IFvS18_SE_EES3_IFvRKS13_EES3_IFvS1E_SE_EES3_IFvRKS18_EES3_IFvS1K_SE_EES3_IFvS12_IS8_EEES3_IFvS1P_SE_EES3_IFvS12_ISH_EEES3_IFvS1U_SE_EEEEEEEDcSt16in_place_index_tIXT_EEOT0_
FNDA:0,_ZNSt8__detail9__variant5__getILm10ERKNS0_15_Variadic_unionIJSt8functionIFvRKN8nav_msgs3msg9Odometry_ISaIvEEERKN6rclcpp11MessageInfoEEES3_IFvRKNSB_17SerializedMessageEEES3_IFvSJ_SE_EES3_IFvSt10unique_ptrIS8_St14default_deleteIS8_EEEES3_IFvSR_SE_EES3_IFvSO_ISH_SP_ISH_EEEES3_IFvSX_SE_EES3_IFvSt10shared_ptrIS9_EEES3_IFvS13_SE_EES3_IFvS12_ISI_EEES3_IFvS18_SE_EES3_IFvRKS13_EES3_IFvS1E_SE_EES3_IFvRKS18_EES3_IFvS1K_SE_EES3_IFvS12_IS8_EEES3_IFvS1P_SE_EES3_IFvS12_ISH_EEES3_IFvS1U_SE_EEEEEEEDcSt16in_place_index_tIXT_EEOT0_
FN:289,_ZNSt8__detail9__variant5__getILm11ERKNS0_15_Variadic_unionIJSt8functionIFvRKN8nav_msgs3msg9Odometry_ISaIvEEEEES3_IFvSA_RKN6rclcpp11MessageInfoEEES3_IFvRKNSD_17SerializedMessageEEES3_IFvSL_SG_EES3_IFvSt10unique_ptrIS8_St14default_deleteIS8_EEEES3_IFvST_SG_EES3_IFvSQ_ISJ_SR_ISJ_EEEES3_IFvSZ_SG_EES3_IFvSt10shared_ptrIS9_EEES3_IFvS15_SG_EES3_IFvS14_ISK_EEES3_IFvS1A_SG_EES3_IFvRKS15_EES3_IFvS1G_SG_EES3_IFvRKS1A_EES3_IFvS1M_SG_EES3_IFvS14_IS8_EEES3_IFvS1R_SG_EES3_IFvS14_ISJ_EEES3_IFvS1W_SG_EEEEEEEDcSt16in_place_index_tIXT_EEOT0_
FNDA:0,_ZNSt8__detail9__variant5__getILm11ERKNS0_15_Variadic_unionIJSt8functionIFvRKN8nav_msgs3msg9Odometry_ISaIvEEEEES3_IFvSA_RKN6rclcpp11MessageInfoEEES3_IFvRKNSD_17SerializedMessageEEES3_IFvSL_SG_EES3_IFvSt10unique_ptrIS8_St14default_deleteIS8_EEEES3_IFvST_SG_EES3_IFvSQ_ISJ_SR_ISJ_EEEES3_IFvSZ_SG_EES3_IFvSt10shared_ptrIS9_EEES3_IFvS15_SG_EES3_IFvS14_ISK_EEES3_IFvS1A_SG_EES3_IFvRKS15_EES3_IFvS1G_SG_EES3_IFvRKS1A_EES3_IFvS1M_SG_EES3_IFvS14_IS8_EEES3_IFvS1R_SG_EES3_IFvS14_ISJ_EEES3_IFvS1W_SG_EEEEEEEDcSt16in_place_index_tIXT_EEOT0_
FN:289,_ZNSt8__detail9__variant5__getILm17ERNS0_15_Variadic_unionIJSt8functionIFvRKN6rclcpp17SerializedMessageEEES3_IFvS7_RKNS4_11MessageInfoEEES3_IFvSt10unique_ptrIN8nav_msgs3msg9Odometry_ISaIvEEESt14default_deleteISK_EEEES3_IFvSN_SC_EES3_IFvSF_IS5_SL_IS5_EEEES3_IFvST_SC_EES3_IFvSt10shared_ptrIKSK_EEES3_IFvS10_SC_EES3_IFvSY_IS6_EEES3_IFvS15_SC_EES3_IFvRKS10_EES3_IFvS1B_SC_EES3_IFvRKS15_EES3_IFvS1H_SC_EES3_IFvSY_ISK_EEES3_IFvS1M_SC_EES3_IFvSY_IS5_EEES3_IFvS1R_SC_EEEEEEEDcSt16in_place_index_tIXT_EEOT0_
FNDA:0,_ZNSt8__detail9__variant5__getILm17ERNS0_15_Variadic_unionIJSt8functionIFvRKN6rclcpp17SerializedMessageEEES3_IFvS7_RKNS4_11MessageInfoEEES3_IFvSt10unique_ptrIN8nav_msgs3msg9Odometry_ISaIvEEESt14default_deleteISK_EEEES3_IFvSN_SC_EES3_IFvSF_IS5_SL_IS5_EEEES3_IFvST_SC_EES3_IFvSt10shared_ptrIKSK_EEES3_IFvS10_SC_EES3_IFvSY_IS6_EEES3_IFvS15_SC_EES3_IFvRKS10_EES3_IFvS1B_SC_EES3_IFvRKS15_EES3_IFvS1H_SC_EES3_IFvSY_ISK_EEES3_IFvS1M_SC_EES3_IFvSY_IS5_EEES3_IFvS1R_SC_EEEEEEEDcSt16in_place_index_tIXT_EEOT0_
FN:289,_ZNSt8__detail9__variant5__getILm15ERNS0_15_Variadic_unionIJSt8functionIFvSt10unique_ptrIN8nav_msgs3msg9Odometry_ISaIvEEESt14default_deleteIS9_EEEES3_IFvSC_RKN6rclcpp11MessageInfoEEES3_IFvS4_INSF_17SerializedMessageESA_ISL_EEEES3_IFvSN_SI_EES3_IFvSt10shared_ptrIKS9_EEES3_IFvSU_SI_EES3_IFvSS_IKSL_EEES3_IFvS10_SI_EES3_IFvRKSU_EES3_IFvS16_SI_EES3_IFvRKS10_EES3_IFvS1C_SI_EES3_IFvSS_IS9_EEES3_IFvS1H_SI_EES3_IFvSS_ISL_EEES3_IFvS1M_SI_EEEEEEEDcSt16in_place_index_tIXT_EEOT0_
FNDA:0,_ZNSt8__detail9__variant5__getILm15ERNS0_15_Variadic_unionIJSt8functionIFvSt10unique_ptrIN8nav_msgs3msg9Odometry_ISaIvEEESt14default_deleteIS9_EEEES3_IFvSC_RKN6rclcpp11MessageInfoEEES3_IFvS4_INSF_17SerializedMessageESA_ISL_EEEES3_IFvSN_SI_EES3_IFvSt10shared_ptrIKS9_EEES3_IFvSU_SI_EES3_IFvSS_IKSL_EEES3_IFvS10_SI_EES3_IFvRKSU_EES3_IFvS16_SI_EES3_IFvRKS10_EES3_IFvS1C_SI_EES3_IFvSS_IS9_EEES3_IFvS1H_SI_EES3_IFvSS_ISL_EEES3_IFvS1M_SI_EEEEEEEDcSt16in_place_index_tIXT_EEOT0_
FN:289,_ZNSt8__detail9__variant5__getILm14ERNS0_15_Variadic_unionIJSt8functionIFvSt10unique_ptrIN8nav_msgs3msg9Odometry_ISaIvEEESt14default_deleteIS9_EERKN6rclcpp11MessageInfoEEES3_IFvS4_INSD_17SerializedMessageESA_ISJ_EEEES3_IFvSL_SG_EES3_IFvSt10shared_ptrIKS9_EEES3_IFvSS_SG_EES3_IFvSQ_IKSJ_EEES3_IFvSY_SG_EES3_IFvRKSS_EES3_IFvS14_SG_EES3_IFvRKSY_EES3_IFvS1A_SG_EES3_IFvSQ_IS9_EEES3_IFvS1F_SG_EES3_IFvSQ_ISJ_EEES3_IFvS1K_SG_EEEEEEEDcSt16in_place_index_tIXT_EEOT0_
FNDA:0,_ZNSt8__detail9__variant5__getILm14ERNS0_15_Variadic_unionIJSt8functionIFvSt10unique_ptrIN8nav_msgs3msg9Odometry_ISaIvEEESt14default_deleteIS9_EERKN6rclcpp11MessageInfoEEES3_IFvS4_INSD_17SerializedMessageESA_ISJ_EEEES3_IFvSL_SG_EES3_IFvSt10shared_ptrIKS9_EEES3_IFvSS_SG_EES3_IFvSQ_IKSJ_EEES3_IFvSY_SG_EES3_IFvRKSS_EES3_IFvS14_SG_EES3_IFvRKSY_EES3_IFvS1A_SG_EES3_IFvSQ_IS9_EEES3_IFvS1F_SG_EES3_IFvSQ_ISJ_EEES3_IFvS1K_SG_EEEEEEEDcSt16in_place_index_tIXT_EEOT0_
FN:289,_ZNSt8__detail9__variant5__getILm1ERKNS0_15_Variadic_unionIJSt8functionIFvSt10shared_ptrIKN6rclcpp17SerializedMessageEERKNS5_11MessageInfoEEES3_IFvRKS4_IKN8nav_msgs3msg9Odometry_ISaIvEEEEEES3_IFvSM_SB_EES3_IFvRKS8_EES3_IFvSS_SB_EES3_IFvS4_ISI_EEES3_IFvSX_SB_EES3_IFvS4_IS6_EEES3_IFvS12_SB_EEEEEEEDcSt16in_place_index_tIXT_EEOT0_
FNDA:0,_ZNSt8__detail9__variant5__getILm1ERKNS0_15_Variadic_unionIJSt8functionIFvSt10shared_ptrIKN6rclcpp17SerializedMessageEERKNS5_11MessageInfoEEES3_IFvRKS4_IKN8nav_msgs3msg9Odometry_ISaIvEEEEEES3_IFvSM_SB_EES3_IFvRKS8_EES3_IFvSS_SB_EES3_IFvS4_ISI_EEES3_IFvSX_SB_EES3_IFvS4_IS6_EEES3_IFvS12_SB_EEEEEEEDcSt16in_place_index_tIXT_EEOT0_
FN:289,_ZNSt8__detail9__variant5__getILm2ERKNS0_15_Variadic_unionIJSt8functionIFvSt10shared_ptrIKN6rclcpp17SerializedMessageEEEES3_IFvS8_RKNS5_11MessageInfoEEES3_IFvRKS4_IKN8nav_msgs3msg9Odometry_ISaIvEEEEEES3_IFvSO_SD_EES3_IFvRKS8_EES3_IFvSU_SD_EES3_IFvS4_ISK_EEES3_IFvSZ_SD_EES3_IFvS4_IS6_EEES3_IFvS14_SD_EEEEEEEDcSt16in_place_index_tIXT_EEOT0_
FNDA:0,_ZNSt8__detail9__variant5__getILm2ERKNS0_15_Variadic_unionIJSt8functionIFvSt10shared_ptrIKN6rclcpp17SerializedMessageEEEES3_IFvS8_RKNS5_11MessageInfoEEES3_IFvRKS4_IKN8nav_msgs3msg9Odometry_ISaIvEEEEEES3_IFvSO_SD_EES3_IFvRKS8_EES3_IFvSU_SD_EES3_IFvS4_ISK_EEES3_IFvSZ_SD_EES3_IFvS4_IS6_EEES3_IFvS14_SD_EEEEEEEDcSt16in_place_index_tIXT_EEOT0_
FN:289,_ZNSt8__detail9__variant5__getILm8ERKNS0_15_Variadic_unionIJSt8functionIFvRKN6rclcpp17SerializedMessageERKNS4_11MessageInfoEEES3_IFvSt10unique_ptrIN8nav_msgs3msg9Odometry_ISaIvEEESt14default_deleteISI_EEEES3_IFvSL_SA_EES3_IFvSD_IS5_SJ_IS5_EEEES3_IFvSR_SA_EES3_IFvSt10shared_ptrIKSI_EEES3_IFvSY_SA_EES3_IFvSW_IS6_EEES3_IFvS13_SA_EES3_IFvRKSY_EES3_IFvS19_SA_EES3_IFvRKS13_EES3_IFvS1F_SA_EES3_IFvSW_ISI_EEES3_IFvS1K_SA_EES3_IFvSW_IS5_EEES3_IFvS1P_SA_EEEEEEEDcSt16in_place_index_tIXT_EEOT0_
FNDA:0,_ZNSt8__detail9__variant5__getILm8ERKNS0_15_Variadic_unionIJSt8functionIFvRKN6rclcpp17SerializedMessageERKNS4_11MessageInfoEEES3_IFvSt10unique_ptrIN8nav_msgs3msg9Odometry_ISaIvEEESt14default_deleteISI_EEEES3_IFvSL_SA_EES3_IFvSD_IS5_SJ_IS5_EEEES3_IFvSR_SA_EES3_IFvSt10shared_ptrIKSI_EEES3_IFvSY_SA_EES3_IFvSW_IS6_EEES3_IFvS13_SA_EES3_IFvRKSY_EES3_IFvS19_SA_EES3_IFvRKS13_EES3_IFvS1F_SA_EES3_IFvSW_ISI_EEES3_IFvS1K_SA_EES3_IFvSW_IS5_EEES3_IFvS1P_SA_EEEEEEEDcSt16in_place_index_tIXT_EEOT0_
FN:289,_ZNSt8__detail9__variant5__getILm7ERKNS0_15_Variadic_unionIJSt8functionIFvSt10unique_ptrIN8nav_msgs3msg9Odometry_ISaIvEEESt14default_deleteIS9_EEEES3_IFvSC_RKN6rclcpp11MessageInfoEEES3_IFvS4_INSF_17SerializedMessageESA_ISL_EEEES3_IFvSN_SI_EES3_IFvSt10shared_ptrIKS9_EEES3_IFvSU_SI_EES3_IFvSS_IKSL_EEES3_IFvS10_SI_EES3_IFvRKSU_EES3_IFvS16_SI_EES3_IFvRKS10_EES3_IFvS1C_SI_EES3_IFvSS_IS9_EEES3_IFvS1H_SI_EES3_IFvSS_ISL_EEES3_IFvS1M_SI_EEEEEEEDcSt16in_place_index_tIXT_EEOT0_
FNDA:0,_ZNSt8__detail9__variant5__getILm7ERKNS0_15_Variadic_unionIJSt8functionIFvSt10unique_ptrIN8nav_msgs3msg9Odometry_ISaIvEEESt14default_deleteIS9_EEEES3_IFvSC_RKN6rclcpp11MessageInfoEEES3_IFvS4_INSF_17SerializedMessageESA_ISL_EEEES3_IFvSN_SI_EES3_IFvSt10shared_ptrIKS9_EEES3_IFvSU_SI_EES3_IFvSS_IKSL_EEES3_IFvS10_SI_EES3_IFvRKSU_EES3_IFvS16_SI_EES3_IFvRKS10_EES3_IFvS1C_SI_EES3_IFvSS_IS9_EEES3_IFvS1H_SI_EES3_IFvSS_ISL_EEES3_IFvS1M_SI_EEEEEEEDcSt16in_place_index_tIXT_EEOT0_
FN:289,_ZNSt8__detail9__variant5__getILm3ERKNS0_15_Variadic_unionIJSt8functionIFvSt10shared_ptrIKN8nav_msgs3msg9Odometry_ISaIvEEEERKN6rclcpp11MessageInfoEEES3_IFvS4_IKNSC_17SerializedMessageEEEES3_IFvSK_SF_EES3_IFvRKSB_EES3_IFvSQ_SF_EES3_IFvRKSK_EES3_IFvSW_SF_EES3_IFvS4_IS9_EEES3_IFvS11_SF_EES3_IFvS4_ISI_EEES3_IFvS16_SF_EEEEEEEDcSt16in_place_index_tIXT_EEOT0_
FNDA:0,_ZNSt8__detail9__variant5__getILm3ERKNS0_15_Variadic_unionIJSt8functionIFvSt10shared_ptrIKN8nav_msgs3msg9Odometry_ISaIvEEEERKN6rclcpp11MessageInfoEEES3_IFvS4_IKNSC_17SerializedMessageEEEES3_IFvSK_SF_EES3_IFvRKSB_EES3_IFvSQ_SF_EES3_IFvRKSK_EES3_IFvSW_SF_EES3_IFvS4_IS9_EEES3_IFvS11_SF_EES3_IFvS4_ISI_EEES3_IFvS16_SF_EEEEEEEDcSt16in_place_index_tIXT_EEOT0_
FN:289,_ZNSt8__detail9__variant5__getILm4ERKNS0_15_Variadic_unionIJSt8functionIFvSt10shared_ptrIKN8nav_msgs3msg9Odometry_ISaIvEEEEEES3_IFvSB_RKN6rclcpp11MessageInfoEEES3_IFvS4_IKNSE_17SerializedMessageEEEES3_IFvSM_SH_EES3_IFvRKSB_EES3_IFvSS_SH_EES3_IFvRKSM_EES3_IFvSY_SH_EES3_IFvS4_IS9_EEES3_IFvS13_SH_EES3_IFvS4_ISK_EEES3_IFvS18_SH_EEEEEEEDcSt16in_place_index_tIXT_EEOT0_
FNDA:0,_ZNSt8__detail9__variant5__getILm4ERKNS0_15_Variadic_unionIJSt8functionIFvSt10shared_ptrIKN8nav_msgs3msg9Odometry_ISaIvEEEEEES3_IFvSB_RKN6rclcpp11MessageInfoEEES3_IFvS4_IKNSE_17SerializedMessageEEEES3_IFvSM_SH_EES3_IFvRKSB_EES3_IFvSS_SH_EES3_IFvRKSM_EES3_IFvSY_SH_EES3_IFvS4_IS9_EEES3_IFvS13_SH_EES3_IFvS4_ISK_EEES3_IFvS18_SH_EEEEEEEDcSt16in_place_index_tIXT_EEOT0_
FN:289,_ZNSt8__detail9__variant5__getILm5ERKNS0_15_Variadic_unionIJSt8functionIFvSt10unique_ptrIN6rclcpp17SerializedMessageESt14default_deleteIS6_EERKNS5_11MessageInfoEEES3_IFvSt10shared_ptrIKN8nav_msgs3msg9Odometry_ISaIvEEEEEES3_IFvSM_SC_EES3_IFvSF_IKS6_EEES3_IFvSS_SC_EES3_IFvRKSM_EES3_IFvSY_SC_EES3_IFvRKSS_EES3_IFvS14_SC_EES3_IFvSF_ISK_EEES3_IFvS19_SC_EES3_IFvSF_IS6_EEES3_IFvS1E_SC_EEEEEEEDcSt16in_place_index_tIXT_EEOT0_
FNDA:0,_ZNSt8__detail9__variant5__getILm5ERKNS0_15_Variadic_unionIJSt8functionIFvSt10unique_ptrIN6rclcpp17SerializedMessageESt14default_deleteIS6_EERKNS5_11MessageInfoEEES3_IFvSt10shared_ptrIKN8nav_msgs3msg9Odometry_ISaIvEEEEEES3_IFvSM_SC_EES3_IFvSF_IKS6_EEES3_IFvSS_SC_EES3_IFvRKSM_EES3_IFvSY_SC_EES3_IFvRKSS_EES3_IFvS14_SC_EES3_IFvSF_ISK_EEES3_IFvS19_SC_EES3_IFvSF_IS6_EEES3_IFvS1E_SC_EEEEEEEDcSt16in_place_index_tIXT_EEOT0_
FN:289,_ZNSt8__detail9__variant5__getILm13ERKNS0_15_Variadic_unionIJSt8functionIFvRKN8nav_msgs3msg9Odometry_ISaIvEEERKN6rclcpp11MessageInfoEEES3_IFvRKNSB_17SerializedMessageEEES3_IFvSJ_SE_EES3_IFvSt10unique_ptrIS8_St14default_deleteIS8_EEEES3_IFvSR_SE_EES3_IFvSO_ISH_SP_ISH_EEEES3_IFvSX_SE_EES3_IFvSt10shared_ptrIS9_EEES3_IFvS13_SE_EES3_IFvS12_ISI_EEES3_IFvS18_SE_EES3_IFvRKS13_EES3_IFvS1E_SE_EES3_IFvRKS18_EES3_IFvS1K_SE_EES3_IFvS12_IS8_EEES3_IFvS1P_SE_EES3_IFvS12_ISH_EEES3_IFvS1U_SE_EEEEEEEDcSt16in_place_index_tIXT_EEOT0_
FNDA:0,_ZNSt8__detail9__variant5__getILm13ERKNS0_15_Variadic_unionIJSt8functionIFvRKN8nav_msgs3msg9Odometry_ISaIvEEERKN6rclcpp11MessageInfoEEES3_IFvRKNSB_17SerializedMessageEEES3_IFvSJ_SE_EES3_IFvSt10unique_ptrIS8_St14default_deleteIS8_EEEES3_IFvSR_SE_EES3_IFvSO_ISH_SP_ISH_EEEES3_IFvSX_SE_EES3_IFvSt10shared_ptrIS9_EEES3_IFvS13_SE_EES3_IFvS12_ISI_EEES3_IFvS18_SE_EES3_IFvRKS13_EES3_IFvS1E_SE_EES3_IFvRKS18_EES3_IFvS1K_SE_EES3_IFvS12_IS8_EEES3_IFvS1P_SE_EES3_IFvS12_ISH_EEES3_IFvS1U_SE_EEEEEEEDcSt16in_place_index_tIXT_EEOT0_
FN:289,_ZNSt8__detail9__variant5__getILm7ERKNS0_15_Variadic_unionIJSt8functionIFvSt10unique_ptrIN8nav_msgs3msg9Odometry_ISaIvEEESt14default_deleteIS9_EERKN6rclcpp11MessageInfoEEES3_IFvS4_INSD_17SerializedMessageESA_ISJ_EEEES3_IFvSL_SG_EES3_IFvSt10shared_ptrIKS9_EEES3_IFvSS_SG_EES3_IFvSQ_IKSJ_EEES3_IFvSY_SG_EES3_IFvRKSS_EES3_IFvS14_SG_EES3_IFvRKSY_EES3_IFvS1A_SG_EES3_IFvSQ_IS9_EEES3_IFvS1F_SG_EES3_IFvSQ_ISJ_EEES3_IFvS1K_SG_EEEEEEEDcSt16in_place_index_tIXT_EEOT0_
FNDA:0,_ZNSt8__detail9__variant5__getILm7ERKNS0_15_Variadic_unionIJSt8functionIFvSt10unique_ptrIN8nav_msgs3msg9Odometry_ISaIvEEESt14default_deleteIS9_EERKN6rclcpp11MessageInfoEEES3_IFvS4_INSD_17SerializedMessageESA_ISJ_EEEES3_IFvSL_SG_EES3_IFvSt10shared_ptrIKS9_EEES3_IFvSS_SG_EES3_IFvSQ_IKSJ_EEES3_IFvSY_SG_EES3_IFvRKSS_EES3_IFvS14_SG_EES3_IFvRKSY_EES3_IFvS1A_SG_EES3_IFvSQ_IS9_EEES3_IFvS1F_SG_EES3_IFvSQ_ISJ_EEES3_IFvS1K_SG_EEEEEEEDcSt16in_place_index_tIXT_EEOT0_
FN:289,_ZNSt8__detail9__variant5__getILm8ERKNS0_15_Variadic_unionIJSt8functionIFvSt10unique_ptrIN8nav_msgs3msg9Odometry_ISaIvEEESt14default_deleteIS9_EEEES3_IFvSC_RKN6rclcpp11MessageInfoEEES3_IFvS4_INSF_17SerializedMessageESA_ISL_EEEES3_IFvSN_SI_EES3_IFvSt10shared_ptrIKS9_EEES3_IFvSU_SI_EES3_IFvSS_IKSL_EEES3_IFvS10_SI_EES3_IFvRKSU_EES3_IFvS16_SI_EES3_IFvRKS10_EES3_IFvS1C_SI_EES3_IFvSS_IS9_EEES3_IFvS1H_SI_EES3_IFvSS_ISL_EEES3_IFvS1M_SI_EEEEEEEDcSt16in_place_index_tIXT_EEOT0_
FNDA:0,_ZNSt8__detail9__variant5__getILm8ERKNS0_15_Variadic_unionIJSt8functionIFvSt10unique_ptrIN8nav_msgs3msg9Odometry_ISaIvEEESt14default_deleteIS9_EEEES3_IFvSC_RKN6rclcpp11MessageInfoEEES3_IFvS4_INSF_17SerializedMessageESA_ISL_EEEES3_IFvSN_SI_EES3_IFvSt10shared_ptrIKS9_EEES3_IFvSU_SI_EES3_IFvSS_IKSL_EEES3_IFvS10_SI_EES3_IFvRKSU_EES3_IFvS16_SI_EES3_IFvRKS10_EES3_IFvS1C_SI_EES3_IFvSS_IS9_EEES3_IFvS1H_SI_EES3_IFvSS_ISL_EEES3_IFvS1M_SI_EEEEEEEDcSt16in_place_index_tIXT_EEOT0_
FN:289,_ZNSt8__detail9__variant5__getILm9ERKNS0_15_Variadic_unionIJSt8functionIFvRKN6rclcpp17SerializedMessageERKNS4_11MessageInfoEEES3_IFvSt10unique_ptrIN8nav_msgs3msg9Odometry_ISaIvEEESt14default_deleteISI_EEEES3_IFvSL_SA_EES3_IFvSD_IS5_SJ_IS5_EEEES3_IFvSR_SA_EES3_IFvSt10shared_ptrIKSI_EEES3_IFvSY_SA_EES3_IFvSW_IS6_EEES3_IFvS13_SA_EES3_IFvRKSY_EES3_IFvS19_SA_EES3_IFvRKS13_EES3_IFvS1F_SA_EES3_IFvSW_ISI_EEES3_IFvS1K_SA_EES3_IFvSW_IS5_EEES3_IFvS1P_SA_EEEEEEEDcSt16in_place_index_tIXT_EEOT0_
FNDA:0,_ZNSt8__detail9__variant5__getILm9ERKNS0_15_Variadic_unionIJSt8functionIFvRKN6rclcpp17SerializedMessageERKNS4_11MessageInfoEEES3_IFvSt10unique_ptrIN8nav_msgs3msg9Odometry_ISaIvEEESt14default_deleteISI_EEEES3_IFvSL_SA_EES3_IFvSD_IS5_SJ_IS5_EEEES3_IFvSR_SA_EES3_IFvSt10shared_ptrIKSI_EEES3_IFvSY_SA_EES3_IFvSW_IS6_EEES3_IFvS13_SA_EES3_IFvRKSY_EES3_IFvS19_SA_EES3_IFvRKS13_EES3_IFvS1F_SA_EES3_IFvSW_ISI_EEES3_IFvS1K_SA_EES3_IFvSW_IS5_EEES3_IFvS1P_SA_EEEEEEEDcSt16in_place_index_tIXT_EEOT0_
FN:289,_ZNSt8__detail9__variant5__getILm10ERKNS0_15_Variadic_unionIJSt8functionIFvRKN6rclcpp17SerializedMessageEEES3_IFvS7_RKNS4_11MessageInfoEEES3_IFvSt10unique_ptrIN8nav_msgs3msg9Odometry_ISaIvEEESt14default_deleteISK_EEEES3_IFvSN_SC_EES3_IFvSF_IS5_SL_IS5_EEEES3_IFvST_SC_EES3_IFvSt10shared_ptrIKSK_EEES3_IFvS10_SC_EES3_IFvSY_IS6_EEES3_IFvS15_SC_EES3_IFvRKS10_EES3_IFvS1B_SC_EES3_IFvRKS15_EES3_IFvS1H_SC_EES3_IFvSY_ISK_EEES3_IFvS1M_SC_EES3_IFvSY_IS5_EEES3_IFvS1R_SC_EEEEEEEDcSt16in_place_index_tIXT_EEOT0_
FNDA:0,_ZNSt8__detail9__variant5__getILm10ERKNS0_15_Variadic_unionIJSt8functionIFvRKN6rclcpp17SerializedMessageEEES3_IFvS7_RKNS4_11MessageInfoEEES3_IFvSt10unique_ptrIN8nav_msgs3msg9Odometry_ISaIvEEESt14default_deleteISK_EEEES3_IFvSN_SC_EES3_IFvSF_IS5_SL_IS5_EEEES3_IFvST_SC_EES3_IFvSt10shared_ptrIKSK_EEES3_IFvS10_SC_EES3_IFvSY_IS6_EEES3_IFvS15_SC_EES3_IFvRKS10_EES3_IFvS1B_SC_EES3_IFvRKS15_EES3_IFvS1H_SC_EES3_IFvSY_ISK_EEES3_IFvS1M_SC_EES3_IFvSY_IS5_EEES3_IFvS1R_SC_EEEEEEEDcSt16in_place_index_tIXT_EEOT0_
FN:289,_ZNSt8__detail9__variant5__getILm11ERKNS0_15_Variadic_unionIJSt8functionIFvRKN8nav_msgs3msg9Odometry_ISaIvEEERKN6rclcpp11MessageInfoEEES3_IFvRKNSB_17SerializedMessageEEES3_IFvSJ_SE_EES3_IFvSt10unique_ptrIS8_St14default_deleteIS8_EEEES3_IFvSR_SE_EES3_IFvSO_ISH_SP_ISH_EEEES3_IFvSX_SE_EES3_IFvSt10shared_ptrIS9_EEES3_IFvS13_SE_EES3_IFvS12_ISI_EEES3_IFvS18_SE_EES3_IFvRKS13_EES3_IFvS1E_SE_EES3_IFvRKS18_EES3_IFvS1K_SE_EES3_IFvS12_IS8_EEES3_IFvS1P_SE_EES3_IFvS12_ISH_EEES3_IFvS1U_SE_EEEEEEEDcSt16in_place_index_tIXT_EEOT0_
FNDA:0,_ZNSt8__detail9__variant5__getILm11ERKNS0_15_Variadic_unionIJSt8functionIFvRKN8nav_msgs3msg9Odometry_ISaIvEEERKN6rclcpp11MessageInfoEEES3_IFvRKNSB_17SerializedMessageEEES3_IFvSJ_SE_EES3_IFvSt10unique_ptrIS8_St14default_deleteIS8_EEEES3_IFvSR_SE_EES3_IFvSO_ISH_SP_ISH_EEEES3_IFvSX_SE_EES3_IFvSt10shared_ptrIS9_EEES3_IFvS13_SE_EES3_IFvS12_ISI_EEES3_IFvS18_SE_EES3_IFvRKS13_EES3_IFvS1E_SE_EES3_IFvRKS18_EES3_IFvS1K_SE_EES3_IFvS12_IS8_EEES3_IFvS1P_SE_EES3_IFvS12_ISH_EEES3_IFvS1U_SE_EEEEEEEDcSt16in_place_index_tIXT_EEOT0_
FN:289,_ZNSt8__detail9__variant5__getILm12ERKNS0_15_Variadic_unionIJSt8functionIFvRKN8nav_msgs3msg9Odometry_ISaIvEEEEES3_IFvSA_RKN6rclcpp11MessageInfoEEES3_IFvRKNSD_17SerializedMessageEEES3_IFvSL_SG_EES3_IFvSt10unique_ptrIS8_St14default_deleteIS8_EEEES3_IFvST_SG_EES3_IFvSQ_ISJ_SR_ISJ_EEEES3_IFvSZ_SG_EES3_IFvSt10shared_ptrIS9_EEES3_IFvS15_SG_EES3_IFvS14_ISK_EEES3_IFvS1A_SG_EES3_IFvRKS15_EES3_IFvS1G_SG_EES3_IFvRKS1A_EES3_IFvS1M_SG_EES3_IFvS14_IS8_EEES3_IFvS1R_SG_EES3_IFvS14_ISJ_EEES3_IFvS1W_SG_EEEEEEEDcSt16in_place_index_tIXT_EEOT0_
FNDA:0,_ZNSt8__detail9__variant5__getILm12ERKNS0_15_Variadic_unionIJSt8functionIFvRKN8nav_msgs3msg9Odometry_ISaIvEEEEES3_IFvSA_RKN6rclcpp11MessageInfoEEES3_IFvRKNSD_17SerializedMessageEEES3_IFvSL_SG_EES3_IFvSt10unique_ptrIS8_St14default_deleteIS8_EEEES3_IFvST_SG_EES3_IFvSQ_ISJ_SR_ISJ_EEEES3_IFvSZ_SG_EES3_IFvSt10shared_ptrIS9_EEES3_IFvS15_SG_EES3_IFvS14_ISK_EEES3_IFvS1A_SG_EES3_IFvRKS15_EES3_IFvS1G_SG_EES3_IFvRKS1A_EES3_IFvS1M_SG_EES3_IFvS14_IS8_EEES3_IFvS1R_SG_EES3_IFvS14_ISJ_EEES3_IFvS1W_SG_EEEEEEEDcSt16in_place_index_tIXT_EEOT0_
FN:289,_ZNSt8__detail9__variant5__getILm10ERKNS0_15_Variadic_unionIJSt8functionIFvRKN8nav_msgs3msg9Odometry_ISaIvEEEEES3_IFvSA_RKN6rclcpp11MessageInfoEEES3_IFvRKNSD_17SerializedMessageEEES3_IFvSL_SG_EES3_IFvSt10unique_ptrIS8_St14default_deleteIS8_EEEES3_IFvST_SG_EES3_IFvSQ_ISJ_SR_ISJ_EEEES3_IFvSZ_SG_EES3_IFvSt10shared_ptrIS9_EEES3_IFvS15_SG_EES3_IFvS14_ISK_EEES3_IFvS1A_SG_EES3_IFvRKS15_EES3_IFvS1G_SG_EES3_IFvRKS1A_EES3_IFvS1M_SG_EES3_IFvS14_IS8_EEES3_IFvS1R_SG_EES3_IFvS14_ISJ_EEES3_IFvS1W_SG_EEEEEEEDcSt16in_place_index_tIXT_EEOT0_
FNDA:0,_ZNSt8__detail9__variant5__getILm10ERKNS0_15_Variadic_unionIJSt8functionIFvRKN8nav_msgs3msg9Odometry_ISaIvEEEEES3_IFvSA_RKN6rclcpp11MessageInfoEEES3_IFvRKNSD_17SerializedMessageEEES3_IFvSL_SG_EES3_IFvSt10unique_ptrIS8_St14default_deleteIS8_EEEES3_IFvST_SG_EES3_IFvSQ_ISJ_SR_ISJ_EEEES3_IFvSZ_SG_EES3_IFvSt10shared_ptrIS9_EEES3_IFvS15_SG_EES3_IFvS14_ISK_EEES3_IFvS1A_SG_EES3_IFvRKS15_EES3_IFvS1G_SG_EES3_IFvRKS1A_EES3_IFvS1M_SG_EES3_IFvS14_IS8_EEES3_IFvS1R_SG_EES3_IFvS14_ISJ_EEES3_IFvS1W_SG_EEEEEEEDcSt16in_place_index_tIXT_EEOT0_
FN:289,_ZNSt8__detail9__variant5__getILm13ERNS0_15_Variadic_unionIJSt8functionIFvSt10unique_ptrIN6rclcpp17SerializedMessageESt14default_deleteIS6_EEEES3_IFvS9_RKNS5_11MessageInfoEEES3_IFvSt10shared_ptrIKN8nav_msgs3msg9Odometry_ISaIvEEEEEES3_IFvSO_SE_EES3_IFvSH_IKS6_EEES3_IFvSU_SE_EES3_IFvRKSO_EES3_IFvS10_SE_EES3_IFvRKSU_EES3_IFvS16_SE_EES3_IFvSH_ISM_EEES3_IFvS1B_SE_EES3_IFvSH_IS6_EEES3_IFvS1G_SE_EEEEEEEDcSt16in_place_index_tIXT_EEOT0_
FNDA:0,_ZNSt8__detail9__variant5__getILm13ERNS0_15_Variadic_unionIJSt8functionIFvSt10unique_ptrIN6rclcpp17SerializedMessageESt14default_deleteIS6_EEEES3_IFvS9_RKNS5_11MessageInfoEEES3_IFvSt10shared_ptrIKN8nav_msgs3msg9Odometry_ISaIvEEEEEES3_IFvSO_SE_EES3_IFvSH_IKS6_EEES3_IFvSU_SE_EES3_IFvRKSO_EES3_IFvS10_SE_EES3_IFvRKSU_EES3_IFvS16_SE_EES3_IFvSH_ISM_EEES3_IFvS1B_SE_EES3_IFvSH_IS6_EEES3_IFvS1G_SE_EEEEEEEDcSt16in_place_index_tIXT_EEOT0_
FN:289,_ZNSt8__detail9__variant5__getILm9ERKNS0_15_Variadic_unionIJSt8functionIFvRKN8nav_msgs3msg9Odometry_ISaIvEEERKN6rclcpp11MessageInfoEEES3_IFvRKNSB_17SerializedMessageEEES3_IFvSJ_SE_EES3_IFvSt10unique_ptrIS8_St14default_deleteIS8_EEEES3_IFvSR_SE_EES3_IFvSO_ISH_SP_ISH_EEEES3_IFvSX_SE_EES3_IFvSt10shared_ptrIS9_EEES3_IFvS13_SE_EES3_IFvS12_ISI_EEES3_IFvS18_SE_EES3_IFvRKS13_EES3_IFvS1E_SE_EES3_IFvRKS18_EES3_IFvS1K_SE_EES3_IFvS12_IS8_EEES3_IFvS1P_SE_EES3_IFvS12_ISH_EEES3_IFvS1U_SE_EEEEEEEDcSt16in_place_index_tIXT_EEOT0_
FNDA:0,_ZNSt8__detail9__variant5__getILm9ERKNS0_15_Variadic_unionIJSt8functionIFvRKN8nav_msgs3msg9Odometry_ISaIvEEERKN6rclcpp11MessageInfoEEES3_IFvRKNSB_17SerializedMessageEEES3_IFvSJ_SE_EES3_IFvSt10unique_ptrIS8_St14default_deleteIS8_EEEES3_IFvSR_SE_EES3_IFvSO_ISH_SP_ISH_EEEES3_IFvSX_SE_EES3_IFvSt10shared_ptrIS9_EEES3_IFvS13_SE_EES3_IFvS12_ISI_EEES3_IFvS18_SE_EES3_IFvRKS13_EES3_IFvS1E_SE_EES3_IFvRKS18_EES3_IFvS1K_SE_EES3_IFvS12_IS8_EEES3_IFvS1P_SE_EES3_IFvS12_ISH_EEES3_IFvS1U_SE_EEEEEEEDcSt16in_place_index_tIXT_EEOT0_
FN:289,_ZNSt8__detail9__variant5__getILm12ERNS0_15_Variadic_unionIJSt8functionIFvSt10unique_ptrIN6rclcpp17SerializedMessageESt14default_deleteIS6_EERKNS5_11MessageInfoEEES3_IFvSt10shared_ptrIKN8nav_msgs3msg9Odometry_ISaIvEEEEEES3_IFvSM_SC_EES3_IFvSF_IKS6_EEES3_IFvSS_SC_EES3_IFvRKSM_EES3_IFvSY_SC_EES3_IFvRKSS_EES3_IFvS14_SC_EES3_IFvSF_ISK_EEES3_IFvS19_SC_EES3_IFvSF_IS6_EEES3_IFvS1E_SC_EEEEEEEDcSt16in_place_index_tIXT_EEOT0_
FNDA:0,_ZNSt8__detail9__variant5__getILm12ERNS0_15_Variadic_unionIJSt8functionIFvSt10unique_ptrIN6rclcpp17SerializedMessageESt14default_deleteIS6_EERKNS5_11MessageInfoEEES3_IFvSt10shared_ptrIKN8nav_msgs3msg9Odometry_ISaIvEEEEEES3_IFvSM_SC_EES3_IFvSF_IKS6_EEES3_IFvSS_SC_EES3_IFvRKSM_EES3_IFvSY_SC_EES3_IFvRKSS_EES3_IFvS14_SC_EES3_IFvSF_ISK_EEES3_IFvS19_SC_EES3_IFvSF_IS6_EEES3_IFvS1E_SC_EEEEEEEDcSt16in_place_index_tIXT_EEOT0_
FN:289,_ZNSt8__detail9__variant5__getILm1ERKNS0_15_Variadic_unionIJSt8functionIFvRKSt10shared_ptrIKN8nav_msgs3msg9Odometry_ISaIvEEEEEES3_IFvSD_RKN6rclcpp11MessageInfoEEES3_IFvRKS4_IKNSG_17SerializedMessageEEEES3_IFvSQ_SJ_EES3_IFvS4_IS9_EEES3_IFvSV_SJ_EES3_IFvS4_ISM_EEES3_IFvS10_SJ_EEEEEEEDcSt16in_place_index_tIXT_EEOT0_
FNDA:0,_ZNSt8__detail9__variant5__getILm1ERKNS0_15_Variadic_unionIJSt8functionIFvRKSt10shared_ptrIKN8nav_msgs3msg9Odometry_ISaIvEEEEEES3_IFvSD_RKN6rclcpp11MessageInfoEEES3_IFvRKS4_IKNSG_17SerializedMessageEEEES3_IFvSQ_SJ_EES3_IFvS4_IS9_EEES3_IFvSV_SJ_EES3_IFvS4_ISM_EEES3_IFvS10_SJ_EEEEEEEDcSt16in_place_index_tIXT_EEOT0_
FN:289,_ZNSt8__detail9__variant5__getILm2ERKNS0_15_Variadic_unionIJSt8functionIFvSt10shared_ptrIKN6rclcpp17SerializedMessageEERKNS5_11MessageInfoEEES3_IFvRKS4_IKN8nav_msgs3msg9Odometry_ISaIvEEEEEES3_IFvSM_SB_EES3_IFvRKS8_EES3_IFvSS_SB_EES3_IFvS4_ISI_EEES3_IFvSX_SB_EES3_IFvS4_IS6_EEES3_IFvS12_SB_EEEEEEEDcSt16in_place_index_tIXT_EEOT0_
FNDA:0,_ZNSt8__detail9__variant5__getILm2ERKNS0_15_Variadic_unionIJSt8functionIFvSt10shared_ptrIKN6rclcpp17SerializedMessageEERKNS5_11MessageInfoEEES3_IFvRKS4_IKN8nav_msgs3msg9Odometry_ISaIvEEEEEES3_IFvSM_SB_EES3_IFvRKS8_EES3_IFvSS_SB_EES3_IFvS4_ISI_EEES3_IFvSX_SB_EES3_IFvS4_IS6_EEES3_IFvS12_SB_EEEEEEEDcSt16in_place_index_tIXT_EEOT0_
FN:289,_ZNSt8__detail9__variant5__getILm15ERKNS0_15_Variadic_unionIJSt8functionIFvRKN8nav_msgs3msg9Odometry_ISaIvEEERKN6rclcpp11MessageInfoEEES3_IFvRKNSB_17SerializedMessageEEES3_IFvSJ_SE_EES3_IFvSt10unique_ptrIS8_St14default_deleteIS8_EEEES3_IFvSR_SE_EES3_IFvSO_ISH_SP_ISH_EEEES3_IFvSX_SE_EES3_IFvSt10shared_ptrIS9_EEES3_IFvS13_SE_EES3_IFvS12_ISI_EEES3_IFvS18_SE_EES3_IFvRKS13_EES3_IFvS1E_SE_EES3_IFvRKS18_EES3_IFvS1K_SE_EES3_IFvS12_IS8_EEES3_IFvS1P_SE_EES3_IFvS12_ISH_EEES3_IFvS1U_SE_EEEEEEEDcSt16in_place_index_tIXT_EEOT0_
FNDA:0,_ZNSt8__detail9__variant5__getILm15ERKNS0_15_Variadic_unionIJSt8functionIFvRKN8nav_msgs3msg9Odometry_ISaIvEEERKN6rclcpp11MessageInfoEEES3_IFvRKNSB_17SerializedMessageEEES3_IFvSJ_SE_EES3_IFvSt10unique_ptrIS8_St14default_deleteIS8_EEEES3_IFvSR_SE_EES3_IFvSO_ISH_SP_ISH_EEEES3_IFvSX_SE_EES3_IFvSt10shared_ptrIS9_EEES3_IFvS13_SE_EES3_IFvS12_ISI_EEES3_IFvS18_SE_EES3_IFvRKS13_EES3_IFvS1E_SE_EES3_IFvRKS18_EES3_IFvS1K_SE_EES3_IFvS12_IS8_EEES3_IFvS1P_SE_EES3_IFvS12_ISH_EEES3_IFvS1U_SE_EEEEEEEDcSt16in_place_index_tIXT_EEOT0_
FN:289,_ZNSt8__detail9__variant5__getILm2ERKNS0_15_Variadic_unionIJSt8functionIFvRKSt10shared_ptrIKN6rclcpp17SerializedMessageEEEES3_IFvSA_RKNS5_11MessageInfoEEES3_IFvS4_IN8nav_msgs3msg9Odometry_ISaIvEEEEEES3_IFvSN_SF_EES3_IFvS4_IS6_EEES3_IFvSS_SF_EEEEEEEDcSt16in_place_index_tIXT_EEOT0_
FNDA:0,_ZNSt8__detail9__variant5__getILm2ERKNS0_15_Variadic_unionIJSt8functionIFvRKSt10shared_ptrIKN6rclcpp17SerializedMessageEEEES3_IFvSA_RKNS5_11MessageInfoEEES3_IFvS4_IN8nav_msgs3msg9Odometry_ISaIvEEEEEES3_IFvSN_SF_EES3_IFvS4_IS6_EEES3_IFvSS_SF_EEEEEEEDcSt16in_place_index_tIXT_EEOT0_
FN:289,_ZNSt8__detail9__variant5__getILm3ERKNS0_15_Variadic_unionIJSt8functionIFvRKSt10shared_ptrIKN8nav_msgs3msg9Odometry_ISaIvEEEERKN6rclcpp11MessageInfoEEES3_IFvRKS4_IKNSE_17SerializedMessageEEEES3_IFvSO_SH_EES3_IFvS4_IS9_EEES3_IFvST_SH_EES3_IFvS4_ISK_EEES3_IFvSY_SH_EEEEEEEDcSt16in_place_index_tIXT_EEOT0_
FNDA:0,_ZNSt8__detail9__variant5__getILm3ERKNS0_15_Variadic_unionIJSt8functionIFvRKSt10shared_ptrIKN8nav_msgs3msg9Odometry_ISaIvEEEERKN6rclcpp11MessageInfoEEES3_IFvRKS4_IKNSE_17SerializedMessageEEEES3_IFvSO_SH_EES3_IFvS4_IS9_EEES3_IFvST_SH_EES3_IFvS4_ISK_EEES3_IFvSY_SH_EEEEEEEDcSt16in_place_index_tIXT_EEOT0_
FN:289,_ZNSt8__detail9__variant5__getILm4ERKNS0_15_Variadic_unionIJSt8functionIFvRKSt10shared_ptrIKN8nav_msgs3msg9Odometry_ISaIvEEEEEES3_IFvSD_RKN6rclcpp11MessageInfoEEES3_IFvRKS4_IKNSG_17SerializedMessageEEEES3_IFvSQ_SJ_EES3_IFvS4_IS9_EEES3_IFvSV_SJ_EES3_IFvS4_ISM_EEES3_IFvS10_SJ_EEEEEEEDcSt16in_place_index_tIXT_EEOT0_
FNDA:0,_ZNSt8__detail9__variant5__getILm4ERKNS0_15_Variadic_unionIJSt8functionIFvRKSt10shared_ptrIKN8nav_msgs3msg9Odometry_ISaIvEEEEEES3_IFvSD_RKN6rclcpp11MessageInfoEEES3_IFvRKS4_IKNSG_17SerializedMessageEEEES3_IFvSQ_SJ_EES3_IFvS4_IS9_EEES3_IFvSV_SJ_EES3_IFvS4_ISM_EEES3_IFvS10_SJ_EEEEEEEDcSt16in_place_index_tIXT_EEOT0_
FN:289,_ZNSt8__detail9__variant5__getILm5ERKNS0_15_Variadic_unionIJSt8functionIFvSt10shared_ptrIKN6rclcpp17SerializedMessageEERKNS5_11MessageInfoEEES3_IFvRKS4_IKN8nav_msgs3msg9Odometry_ISaIvEEEEEES3_IFvSM_SB_EES3_IFvRKS8_EES3_IFvSS_SB_EES3_IFvS4_ISI_EEES3_IFvSX_SB_EES3_IFvS4_IS6_EEES3_IFvS12_SB_EEEEEEEDcSt16in_place_index_tIXT_EEOT0_
FNDA:0,_ZNSt8__detail9__variant5__getILm5ERKNS0_15_Variadic_unionIJSt8functionIFvSt10shared_ptrIKN6rclcpp17SerializedMessageEERKNS5_11MessageInfoEEES3_IFvRKS4_IKN8nav_msgs3msg9Odometry_ISaIvEEEEEES3_IFvSM_SB_EES3_IFvRKS8_EES3_IFvSS_SB_EES3_IFvS4_ISI_EEES3_IFvSX_SB_EES3_IFvS4_IS6_EEES3_IFvS12_SB_EEEEEEEDcSt16in_place_index_tIXT_EEOT0_
FN:289,_ZNSt8__detail9__variant5__getILm6ERKNS0_15_Variadic_unionIJSt8functionIFvSt10shared_ptrIKN6rclcpp17SerializedMessageEEEES3_IFvS8_RKNS5_11MessageInfoEEES3_IFvRKS4_IKN8nav_msgs3msg9Odometry_ISaIvEEEEEES3_IFvSO_SD_EES3_IFvRKS8_EES3_IFvSU_SD_EES3_IFvS4_ISK_EEES3_IFvSZ_SD_EES3_IFvS4_IS6_EEES3_IFvS14_SD_EEEEEEEDcSt16in_place_index_tIXT_EEOT0_
FNDA:0,_ZNSt8__detail9__variant5__getILm6ERKNS0_15_Variadic_unionIJSt8functionIFvSt10shared_ptrIKN6rclcpp17SerializedMessageEEEES3_IFvS8_RKNS5_11MessageInfoEEES3_IFvRKS4_IKN8nav_msgs3msg9Odometry_ISaIvEEEEEES3_IFvSO_SD_EES3_IFvRKS8_EES3_IFvSU_SD_EES3_IFvS4_ISK_EEES3_IFvSZ_SD_EES3_IFvS4_IS6_EEES3_IFvS14_SD_EEEEEEEDcSt16in_place_index_tIXT_EEOT0_
FN:289,_ZNSt8__detail9__variant5__getILm7ERKNS0_15_Variadic_unionIJSt8functionIFvSt10shared_ptrIKN8nav_msgs3msg9Odometry_ISaIvEEEERKN6rclcpp11MessageInfoEEES3_IFvS4_IKNSC_17SerializedMessageEEEES3_IFvSK_SF_EES3_IFvRKSB_EES3_IFvSQ_SF_EES3_IFvRKSK_EES3_IFvSW_SF_EES3_IFvS4_IS9_EEES3_IFvS11_SF_EES3_IFvS4_ISI_EEES3_IFvS16_SF_EEEEEEEDcSt16in_place_index_tIXT_EEOT0_
FNDA:0,_ZNSt8__detail9__variant5__getILm7ERKNS0_15_Variadic_unionIJSt8functionIFvSt10shared_ptrIKN8nav_msgs3msg9Odometry_ISaIvEEEERKN6rclcpp11MessageInfoEEES3_IFvS4_IKNSC_17SerializedMessageEEEES3_IFvSK_SF_EES3_IFvRKSB_EES3_IFvSQ_SF_EES3_IFvRKSK_EES3_IFvSW_SF_EES3_IFvS4_IS9_EEES3_IFvS11_SF_EES3_IFvS4_ISI_EEES3_IFvS16_SF_EEEEEEEDcSt16in_place_index_tIXT_EEOT0_
FN:289,_ZNSt8__detail9__variant5__getILm8ERKNS0_15_Variadic_unionIJSt8functionIFvSt10shared_ptrIKN8nav_msgs3msg9Odometry_ISaIvEEEEEES3_IFvSB_RKN6rclcpp11MessageInfoEEES3_IFvS4_IKNSE_17SerializedMessageEEEES3_IFvSM_SH_EES3_IFvRKSB_EES3_IFvSS_SH_EES3_IFvRKSM_EES3_IFvSY_SH_EES3_IFvS4_IS9_EEES3_IFvS13_SH_EES3_IFvS4_ISK_EEES3_IFvS18_SH_EEEEEEEDcSt16in_place_index_tIXT_EEOT0_
FNDA:0,_ZNSt8__detail9__variant5__getILm8ERKNS0_15_Variadic_unionIJSt8functionIFvSt10shared_ptrIKN8nav_msgs3msg9Odometry_ISaIvEEEEEES3_IFvSB_RKN6rclcpp11MessageInfoEEES3_IFvS4_IKNSE_17SerializedMessageEEEES3_IFvSM_SH_EES3_IFvRKSB_EES3_IFvSS_SH_EES3_IFvRKSM_EES3_IFvSY_SH_EES3_IFvS4_IS9_EEES3_IFvS13_SH_EES3_IFvS4_ISK_EEES3_IFvS18_SH_EEEEEEEDcSt16in_place_index_tIXT_EEOT0_
FN:289,_ZNSt8__detail9__variant5__getILm9ERKNS0_15_Variadic_unionIJSt8functionIFvSt10unique_ptrIN6rclcpp17SerializedMessageESt14default_deleteIS6_EERKNS5_11MessageInfoEEES3_IFvSt10shared_ptrIKN8nav_msgs3msg9Odometry_ISaIvEEEEEES3_IFvSM_SC_EES3_IFvSF_IKS6_EEES3_IFvSS_SC_EES3_IFvRKSM_EES3_IFvSY_SC_EES3_IFvRKSS_EES3_IFvS14_SC_EES3_IFvSF_ISK_EEES3_IFvS19_SC_EES3_IFvSF_IS6_EEES3_IFvS1E_SC_EEEEEEEDcSt16in_place_index_tIXT_EEOT0_
FNDA:0,_ZNSt8__detail9__variant5__getILm9ERKNS0_15_Variadic_unionIJSt8functionIFvSt10unique_ptrIN6rclcpp17SerializedMessageESt14default_deleteIS6_EERKNS5_11MessageInfoEEES3_IFvSt10shared_ptrIKN8nav_msgs3msg9Odometry_ISaIvEEEEEES3_IFvSM_SC_EES3_IFvSF_IKS6_EEES3_IFvSS_SC_EES3_IFvRKSM_EES3_IFvSY_SC_EES3_IFvRKSS_EES3_IFvS14_SC_EES3_IFvSF_ISK_EEES3_IFvS19_SC_EES3_IFvSF_IS6_EEES3_IFvS1E_SC_EEEEEEEDcSt16in_place_index_tIXT_EEOT0_
FN:289,_ZNSt8__detail9__variant5__getILm10ERKNS0_15_Variadic_unionIJSt8functionIFvSt10unique_ptrIN6rclcpp17SerializedMessageESt14default_deleteIS6_EEEES3_IFvS9_RKNS5_11MessageInfoEEES3_IFvSt10shared_ptrIKN8nav_msgs3msg9Odometry_ISaIvEEEEEES3_IFvSO_SE_EES3_IFvSH_IKS6_EEES3_IFvSU_SE_EES3_IFvRKSO_EES3_IFvS10_SE_EES3_IFvRKSU_EES3_IFvS16_SE_EES3_IFvSH_ISM_EEES3_IFvS1B_SE_EES3_IFvSH_IS6_EEES3_IFvS1G_SE_EEEEEEEDcSt16in_place_index_tIXT_EEOT0_
FNDA:0,_ZNSt8__detail9__variant5__getILm10ERKNS0_15_Variadic_unionIJSt8functionIFvSt10unique_ptrIN6rclcpp17SerializedMessageESt14default_deleteIS6_EEEES3_IFvS9_RKNS5_11MessageInfoEEES3_IFvSt10shared_ptrIKN8nav_msgs3msg9Odometry_ISaIvEEEEEES3_IFvSO_SE_EES3_IFvSH_IKS6_EEES3_IFvSU_SE_EES3_IFvRKSO_EES3_IFvS10_SE_EES3_IFvRKSU_EES3_IFvS16_SE_EES3_IFvSH_ISM_EEES3_IFvS1B_SE_EES3_IFvSH_IS6_EEES3_IFvS1G_SE_EEEEEEEDcSt16in_place_index_tIXT_EEOT0_
FN:289,_ZNSt8__detail9__variant5__getILm11ERKNS0_15_Variadic_unionIJSt8functionIFvSt10unique_ptrIN8nav_msgs3msg9Odometry_ISaIvEEESt14default_deleteIS9_EERKN6rclcpp11MessageInfoEEES3_IFvS4_INSD_17SerializedMessageESA_ISJ_EEEES3_IFvSL_SG_EES3_IFvSt10shared_ptrIKS9_EEES3_IFvSS_SG_EES3_IFvSQ_IKSJ_EEES3_IFvSY_SG_EES3_IFvRKSS_EES3_IFvS14_SG_EES3_IFvRKSY_EES3_IFvS1A_SG_EES3_IFvSQ_IS9_EEES3_IFvS1F_SG_EES3_IFvSQ_ISJ_EEES3_IFvS1K_SG_EEEEEEEDcSt16in_place_index_tIXT_EEOT0_
FNDA:0,_ZNSt8__detail9__variant5__getILm11ERKNS0_15_Variadic_unionIJSt8functionIFvSt10unique_ptrIN8nav_msgs3msg9Odometry_ISaIvEEESt14default_deleteIS9_EERKN6rclcpp11MessageInfoEEES3_IFvS4_INSD_17SerializedMessageESA_ISJ_EEEES3_IFvSL_SG_EES3_IFvSt10shared_ptrIKS9_EEES3_IFvSS_SG_EES3_IFvSQ_IKSJ_EEES3_IFvSY_SG_EES3_IFvRKSS_EES3_IFvS14_SG_EES3_IFvRKSY_EES3_IFvS1A_SG_EES3_IFvSQ_IS9_EEES3_IFvS1F_SG_EES3_IFvSQ_ISJ_EEES3_IFvS1K_SG_EEEEEEEDcSt16in_place_index_tIXT_EEOT0_
FN:289,_ZNSt8__detail9__variant5__getILm12ERKNS0_15_Variadic_unionIJSt8functionIFvSt10unique_ptrIN8nav_msgs3msg9Odometry_ISaIvEEESt14default_deleteIS9_EEEES3_IFvSC_RKN6rclcpp11MessageInfoEEES3_IFvS4_INSF_17SerializedMessageESA_ISL_EEEES3_IFvSN_SI_EES3_IFvSt10shared_ptrIKS9_EEES3_IFvSU_SI_EES3_IFvSS_IKSL_EEES3_IFvS10_SI_EES3_IFvRKSU_EES3_IFvS16_SI_EES3_IFvRKS10_EES3_IFvS1C_SI_EES3_IFvSS_IS9_EEES3_IFvS1H_SI_EES3_IFvSS_ISL_EEES3_IFvS1M_SI_EEEEEEEDcSt16in_place_index_tIXT_EEOT0_
FNDA:0,_ZNSt8__detail9__variant5__getILm12ERKNS0_15_Variadic_unionIJSt8functionIFvSt10unique_ptrIN8nav_msgs3msg9Odometry_ISaIvEEESt14default_deleteIS9_EEEES3_IFvSC_RKN6rclcpp11MessageInfoEEES3_IFvS4_INSF_17SerializedMessageESA_ISL_EEEES3_IFvSN_SI_EES3_IFvSt10shared_ptrIKS9_EEES3_IFvSU_SI_EES3_IFvSS_IKSL_EEES3_IFvS10_SI_EES3_IFvRKSU_EES3_IFvS16_SI_EES3_IFvRKS10_EES3_IFvS1C_SI_EES3_IFvSS_IS9_EEES3_IFvS1H_SI_EES3_IFvSS_ISL_EEES3_IFvS1M_SI_EEEEEEEDcSt16in_place_index_tIXT_EEOT0_
FN:289,_ZNSt8__detail9__variant5__getILm13ERKNS0_15_Variadic_unionIJSt8functionIFvRKN6rclcpp17SerializedMessageERKNS4_11MessageInfoEEES3_IFvSt10unique_ptrIN8nav_msgs3msg9Odometry_ISaIvEEESt14default_deleteISI_EEEES3_IFvSL_SA_EES3_IFvSD_IS5_SJ_IS5_EEEES3_IFvSR_SA_EES3_IFvSt10shared_ptrIKSI_EEES3_IFvSY_SA_EES3_IFvSW_IS6_EEES3_IFvS13_SA_EES3_IFvRKSY_EES3_IFvS19_SA_EES3_IFvRKS13_EES3_IFvS1F_SA_EES3_IFvSW_ISI_EEES3_IFvS1K_SA_EES3_IFvSW_IS5_EEES3_IFvS1P_SA_EEEEEEEDcSt16in_place_index_tIXT_EEOT0_
FNDA:0,_ZNSt8__detail9__variant5__getILm13ERKNS0_15_Variadic_unionIJSt8functionIFvRKN6rclcpp17SerializedMessageERKNS4_11MessageInfoEEES3_IFvSt10unique_ptrIN8nav_msgs3msg9Odometry_ISaIvEEESt14default_deleteISI_EEEES3_IFvSL_SA_EES3_IFvSD_IS5_SJ_IS5_EEEES3_IFvSR_SA_EES3_IFvSt10shared_ptrIKSI_EEES3_IFvSY_SA_EES3_IFvSW_IS6_EEES3_IFvS13_SA_EES3_IFvRKSY_EES3_IFvS19_SA_EES3_IFvRKS13_EES3_IFvS1F_SA_EES3_IFvSW_ISI_EEES3_IFvS1K_SA_EES3_IFvSW_IS5_EEES3_IFvS1P_SA_EEEEEEEDcSt16in_place_index_tIXT_EEOT0_
FN:289,_ZNSt8__detail9__variant5__getILm14ERKNS0_15_Variadic_unionIJSt8functionIFvRKN6rclcpp17SerializedMessageEEES3_IFvS7_RKNS4_11MessageInfoEEES3_IFvSt10unique_ptrIN8nav_msgs3msg9Odometry_ISaIvEEESt14default_deleteISK_EEEES3_IFvSN_SC_EES3_IFvSF_IS5_SL_IS5_EEEES3_IFvST_SC_EES3_IFvSt10shared_ptrIKSK_EEES3_IFvS10_SC_EES3_IFvSY_IS6_EEES3_IFvS15_SC_EES3_IFvRKS10_EES3_IFvS1B_SC_EES3_IFvRKS15_EES3_IFvS1H_SC_EES3_IFvSY_ISK_EEES3_IFvS1M_SC_EES3_IFvSY_IS5_EEES3_IFvS1R_SC_EEEEEEEDcSt16in_place_index_tIXT_EEOT0_
FNDA:0,_ZNSt8__detail9__variant5__getILm14ERKNS0_15_Variadic_unionIJSt8functionIFvRKN6rclcpp17SerializedMessageEEES3_IFvS7_RKNS4_11MessageInfoEEES3_IFvSt10unique_ptrIN8nav_msgs3msg9Odometry_ISaIvEEESt14default_deleteISK_EEEES3_IFvSN_SC_EES3_IFvSF_IS5_SL_IS5_EEEES3_IFvST_SC_EES3_IFvSt10shared_ptrIKSK_EEES3_IFvS10_SC_EES3_IFvSY_IS6_EEES3_IFvS15_SC_EES3_IFvRKS10_EES3_IFvS1B_SC_EES3_IFvRKS15_EES3_IFvS1H_SC_EES3_IFvSY_ISK_EEES3_IFvS1M_SC_EES3_IFvSY_IS5_EEES3_IFvS1R_SC_EEEEEEEDcSt16in_place_index_tIXT_EEOT0_
FN:289,_ZNSt8__detail9__variant5__getILm1ERKNS0_15_Variadic_unionIJSt8functionIFvRKSt10shared_ptrIKN6rclcpp17SerializedMessageEERKNS5_11MessageInfoEEES3_IFvS4_IN8nav_msgs3msg9Odometry_ISaIvEEEEEES3_IFvSL_SD_EES3_IFvS4_IS6_EEES3_IFvSQ_SD_EEEEEEEDcSt16in_place_index_tIXT_EEOT0_
FNDA:0,_ZNSt8__detail9__variant5__getILm1ERKNS0_15_Variadic_unionIJSt8functionIFvRKSt10shared_ptrIKN6rclcpp17SerializedMessageEERKNS5_11MessageInfoEEES3_IFvS4_IN8nav_msgs3msg9Odometry_ISaIvEEEEEES3_IFvSL_SD_EES3_IFvS4_IS6_EEES3_IFvSQ_SD_EEEEEEEDcSt16in_place_index_tIXT_EEOT0_
FN:289,_ZNSt8__detail9__variant5__getILm16ERKNS0_15_Variadic_unionIJSt8functionIFvRKN8nav_msgs3msg9Odometry_ISaIvEEEEES3_IFvSA_RKN6rclcpp11MessageInfoEEES3_IFvRKNSD_17SerializedMessageEEES3_IFvSL_SG_EES3_IFvSt10unique_ptrIS8_St14default_deleteIS8_EEEES3_IFvST_SG_EES3_IFvSQ_ISJ_SR_ISJ_EEEES3_IFvSZ_SG_EES3_IFvSt10shared_ptrIS9_EEES3_IFvS15_SG_EES3_IFvS14_ISK_EEES3_IFvS1A_SG_EES3_IFvRKS15_EES3_IFvS1G_SG_EES3_IFvRKS1A_EES3_IFvS1M_SG_EES3_IFvS14_IS8_EEES3_IFvS1R_SG_EES3_IFvS14_ISJ_EEES3_IFvS1W_SG_EEEEEEEDcSt16in_place_index_tIXT_EEOT0_
FNDA:0,_ZNSt8__detail9__variant5__getILm16ERKNS0_15_Variadic_unionIJSt8functionIFvRKN8nav_msgs3msg9Odometry_ISaIvEEEEES3_IFvSA_RKN6rclcpp11MessageInfoEEES3_IFvRKNSD_17SerializedMessageEEES3_IFvSL_SG_EES3_IFvSt10unique_ptrIS8_St14default_deleteIS8_EEEES3_IFvST_SG_EES3_IFvSQ_ISJ_SR_ISJ_EEEES3_IFvSZ_SG_EES3_IFvSt10shared_ptrIS9_EEES3_IFvS15_SG_EES3_IFvS14_ISK_EEES3_IFvS1A_SG_EES3_IFvRKS15_EES3_IFvS1G_SG_EES3_IFvRKS1A_EES3_IFvS1M_SG_EES3_IFvS14_IS8_EEES3_IFvS1R_SG_EES3_IFvS14_ISJ_EEES3_IFvS1W_SG_EEEEEEEDcSt16in_place_index_tIXT_EEOT0_
FN:289,_ZNSt8__detail9__variant5__getILm2ERKNS0_15_Variadic_unionIJSt8functionIFvSt10shared_ptrIKN8nav_msgs3msg9Odometry_ISaIvEEEEEES3_IFvSB_RKN6rclcpp11MessageInfoEEES3_IFvS4_IKNSE_17SerializedMessageEEEES3_IFvSM_SH_EES3_IFvRKSB_EES3_IFvSS_SH_EES3_IFvRKSM_EES3_IFvSY_SH_EES3_IFvS4_IS9_EEES3_IFvS13_SH_EES3_IFvS4_ISK_EEES3_IFvS18_SH_EEEEEEEDcSt16in_place_index_tIXT_EEOT0_
FNDA:0,_ZNSt8__detail9__variant5__getILm2ERKNS0_15_Variadic_unionIJSt8functionIFvSt10shared_ptrIKN8nav_msgs3msg9Odometry_ISaIvEEEEEES3_IFvSB_RKN6rclcpp11MessageInfoEEES3_IFvS4_IKNSE_17SerializedMessageEEEES3_IFvSM_SH_EES3_IFvRKSB_EES3_IFvSS_SH_EES3_IFvRKSM_EES3_IFvSY_SH_EES3_IFvS4_IS9_EEES3_IFvS13_SH_EES3_IFvS4_ISK_EEES3_IFvS18_SH_EEEEEEEDcSt16in_place_index_tIXT_EEOT0_
FN:289,_ZNSt8__detail9__variant5__getILm9ERKNS0_15_Variadic_unionIJSt8functionIFvRKN6rclcpp17SerializedMessageEEES3_IFvS7_RKNS4_11MessageInfoEEES3_IFvSt10unique_ptrIN8nav_msgs3msg9Odometry_ISaIvEEESt14default_deleteISK_EEEES3_IFvSN_SC_EES3_IFvSF_IS5_SL_IS5_EEEES3_IFvST_SC_EES3_IFvSt10shared_ptrIKSK_EEES3_IFvS10_SC_EES3_IFvSY_IS6_EEES3_IFvS15_SC_EES3_IFvRKS10_EES3_IFvS1B_SC_EES3_IFvRKS15_EES3_IFvS1H_SC_EES3_IFvSY_ISK_EEES3_IFvS1M_SC_EES3_IFvSY_IS5_EEES3_IFvS1R_SC_EEEEEEEDcSt16in_place_index_tIXT_EEOT0_
FNDA:0,_ZNSt8__detail9__variant5__getILm9ERKNS0_15_Variadic_unionIJSt8functionIFvRKN6rclcpp17SerializedMessageEEES3_IFvS7_RKNS4_11MessageInfoEEES3_IFvSt10unique_ptrIN8nav_msgs3msg9Odometry_ISaIvEEESt14default_deleteISK_EEEES3_IFvSN_SC_EES3_IFvSF_IS5_SL_IS5_EEEES3_IFvST_SC_EES3_IFvSt10shared_ptrIKSK_EEES3_IFvS10_SC_EES3_IFvSY_IS6_EEES3_IFvS15_SC_EES3_IFvRKS10_EES3_IFvS1B_SC_EES3_IFvRKS15_EES3_IFvS1H_SC_EES3_IFvSY_ISK_EEES3_IFvS1M_SC_EES3_IFvSY_IS5_EEES3_IFvS1R_SC_EEEEEEEDcSt16in_place_index_tIXT_EEOT0_
FN:289,_ZNSt8__detail9__variant5__getILm1ERKNS0_15_Variadic_unionIJSt8functionIFvSt10shared_ptrIKN8nav_msgs3msg9Odometry_ISaIvEEEERKN6rclcpp11MessageInfoEEES3_IFvS4_IKNSC_17SerializedMessageEEEES3_IFvSK_SF_EES3_IFvRKSB_EES3_IFvSQ_SF_EES3_IFvRKSK_EES3_IFvSW_SF_EES3_IFvS4_IS9_EEES3_IFvS11_SF_EES3_IFvS4_ISI_EEES3_IFvS16_SF_EEEEEEEDcSt16in_place_index_tIXT_EEOT0_
FNDA:0,_ZNSt8__detail9__variant5__getILm1ERKNS0_15_Variadic_unionIJSt8functionIFvSt10shared_ptrIKN8nav_msgs3msg9Odometry_ISaIvEEEERKN6rclcpp11MessageInfoEEES3_IFvS4_IKNSC_17SerializedMessageEEEES3_IFvSK_SF_EES3_IFvRKSB_EES3_IFvSQ_SF_EES3_IFvRKSK_EES3_IFvSW_SF_EES3_IFvS4_IS9_EEES3_IFvS11_SF_EES3_IFvS4_ISI_EEES3_IFvS16_SF_EEEEEEEDcSt16in_place_index_tIXT_EEOT0_
FN:289,_ZNSt8__detail9__variant5__getILm4ERNS0_15_Variadic_unionIJSt8functionIFvRKSt10shared_ptrIKN6rclcpp17SerializedMessageEERKNS5_11MessageInfoEEES3_IFvS4_IN8nav_msgs3msg9Odometry_ISaIvEEEEEES3_IFvSL_SD_EES3_IFvS4_IS6_EEES3_IFvSQ_SD_EEEEEEEDcSt16in_place_index_tIXT_EEOT0_
FNDA:0,_ZNSt8__detail9__variant5__getILm4ERNS0_15_Variadic_unionIJSt8functionIFvRKSt10shared_ptrIKN6rclcpp17SerializedMessageEERKNS5_11MessageInfoEEES3_IFvS4_IN8nav_msgs3msg9Odometry_ISaIvEEEEEES3_IFvSL_SD_EES3_IFvS4_IS6_EEES3_IFvSQ_SD_EEEEEEEDcSt16in_place_index_tIXT_EEOT0_
FN:289,_ZNSt8__detail9__variant5__getILm1ERKNS0_15_Variadic_unionIJSt8functionIFvSt10shared_ptrIN8nav_msgs3msg9Odometry_ISaIvEEEEEES3_IFvSA_RKN6rclcpp11MessageInfoEEES3_IFvS4_INSD_17SerializedMessageEEEES3_IFvSK_SG_EEEEEEEDcSt16in_place_index_tIXT_EEOT0_
FNDA:0,_ZNSt8__detail9__variant5__getILm1ERKNS0_15_Variadic_unionIJSt8functionIFvSt10shared_ptrIN8nav_msgs3msg9Odometry_ISaIvEEEEEES3_IFvSA_RKN6rclcpp11MessageInfoEEES3_IFvS4_INSD_17SerializedMessageEEEES3_IFvSK_SG_EEEEEEEDcSt16in_place_index_tIXT_EEOT0_
FN:289,_ZNSt8__detail9__variant5__getILm2ERKNS0_15_Variadic_unionIJSt8functionIFvRKSt10shared_ptrIKN6rclcpp17SerializedMessageEERKNS5_11MessageInfoEEES3_IFvS4_IN8nav_msgs3msg9Odometry_ISaIvEEEEEES3_IFvSL_SD_EES3_IFvS4_IS6_EEES3_IFvSQ_SD_EEEEEEEDcSt16in_place_index_tIXT_EEOT0_
FNDA:0,_ZNSt8__detail9__variant5__getILm2ERKNS0_15_Variadic_unionIJSt8functionIFvRKSt10shared_ptrIKN6rclcpp17SerializedMessageEERKNS5_11MessageInfoEEES3_IFvS4_IN8nav_msgs3msg9Odometry_ISaIvEEEEEES3_IFvSL_SD_EES3_IFvS4_IS6_EEES3_IFvSQ_SD_EEEEEEEDcSt16in_place_index_tIXT_EEOT0_
FN:289,_ZNSt8__detail9__variant5__getILm3ERKNS0_15_Variadic_unionIJSt8functionIFvRKSt10shared_ptrIKN6rclcpp17SerializedMessageEEEES3_IFvSA_RKNS5_11MessageInfoEEES3_IFvS4_IN8nav_msgs3msg9Odometry_ISaIvEEEEEES3_IFvSN_SF_EES3_IFvS4_IS6_EEES3_IFvSS_SF_EEEEEEEDcSt16in_place_index_tIXT_EEOT0_
FNDA:0,_ZNSt8__detail9__variant5__getILm3ERKNS0_15_Variadic_unionIJSt8functionIFvRKSt10shared_ptrIKN6rclcpp17SerializedMessageEEEES3_IFvSA_RKNS5_11MessageInfoEEES3_IFvS4_IN8nav_msgs3msg9Odometry_ISaIvEEEEEES3_IFvSN_SF_EES3_IFvS4_IS6_EEES3_IFvSS_SF_EEEEEEEDcSt16in_place_index_tIXT_EEOT0_
FN:289,_ZNSt8__detail9__variant5__getILm4ERKNS0_15_Variadic_unionIJSt8functionIFvRKSt10shared_ptrIKN8nav_msgs3msg9Odometry_ISaIvEEEERKN6rclcpp11MessageInfoEEES3_IFvRKS4_IKNSE_17SerializedMessageEEEES3_IFvSO_SH_EES3_IFvS4_IS9_EEES3_IFvST_SH_EES3_IFvS4_ISK_EEES3_IFvSY_SH_EEEEEEEDcSt16in_place_index_tIXT_EEOT0_
FNDA:0,_ZNSt8__detail9__variant5__getILm4ERKNS0_15_Variadic_unionIJSt8functionIFvRKSt10shared_ptrIKN8nav_msgs3msg9Odometry_ISaIvEEEERKN6rclcpp11MessageInfoEEES3_IFvRKS4_IKNSE_17SerializedMessageEEEES3_IFvSO_SH_EES3_IFvS4_IS9_EEES3_IFvST_SH_EES3_IFvS4_ISK_EEES3_IFvSY_SH_EEEEEEEDcSt16in_place_index_tIXT_EEOT0_
FN:289,_ZNSt8__detail9__variant5__getILm5ERKNS0_15_Variadic_unionIJSt8functionIFvRKSt10shared_ptrIKN8nav_msgs3msg9Odometry_ISaIvEEEEEES3_IFvSD_RKN6rclcpp11MessageInfoEEES3_IFvRKS4_IKNSG_17SerializedMessageEEEES3_IFvSQ_SJ_EES3_IFvS4_IS9_EEES3_IFvSV_SJ_EES3_IFvS4_ISM_EEES3_IFvS10_SJ_EEEEEEEDcSt16in_place_index_tIXT_EEOT0_
FNDA:0,_ZNSt8__detail9__variant5__getILm5ERKNS0_15_Variadic_unionIJSt8functionIFvRKSt10shared_ptrIKN8nav_msgs3msg9Odometry_ISaIvEEEEEES3_IFvSD_RKN6rclcpp11MessageInfoEEES3_IFvRKS4_IKNSG_17SerializedMessageEEEES3_IFvSQ_SJ_EES3_IFvS4_IS9_EEES3_IFvSV_SJ_EES3_IFvS4_ISM_EEES3_IFvS10_SJ_EEEEEEEDcSt16in_place_index_tIXT_EEOT0_
FN:289,_ZNSt8__detail9__variant5__getILm6ERKNS0_15_Variadic_unionIJSt8functionIFvSt10shared_ptrIKN6rclcpp17SerializedMessageEERKNS5_11MessageInfoEEES3_IFvRKS4_IKN8nav_msgs3msg9Odometry_ISaIvEEEEEES3_IFvSM_SB_EES3_IFvRKS8_EES3_IFvSS_SB_EES3_IFvS4_ISI_EEES3_IFvSX_SB_EES3_IFvS4_IS6_EEES3_IFvS12_SB_EEEEEEEDcSt16in_place_index_tIXT_EEOT0_
FNDA:0,_ZNSt8__detail9__variant5__getILm6ERKNS0_15_Variadic_unionIJSt8functionIFvSt10shared_ptrIKN6rclcpp17SerializedMessageEERKNS5_11MessageInfoEEES3_IFvRKS4_IKN8nav_msgs3msg9Odometry_ISaIvEEEEEES3_IFvSM_SB_EES3_IFvRKS8_EES3_IFvSS_SB_EES3_IFvS4_ISI_EEES3_IFvSX_SB_EES3_IFvS4_IS6_EEES3_IFvS12_SB_EEEEEEEDcSt16in_place_index_tIXT_EEOT0_
FN:289,_ZNSt8__detail9__variant5__getILm7ERKNS0_15_Variadic_unionIJSt8functionIFvSt10shared_ptrIKN6rclcpp17SerializedMessageEEEES3_IFvS8_RKNS5_11MessageInfoEEES3_IFvRKS4_IKN8nav_msgs3msg9Odometry_ISaIvEEEEEES3_IFvSO_SD_EES3_IFvRKS8_EES3_IFvSU_SD_EES3_IFvS4_ISK_EEES3_IFvSZ_SD_EES3_IFvS4_IS6_EEES3_IFvS14_SD_EEEEEEEDcSt16in_place_index_tIXT_EEOT0_
FNDA:0,_ZNSt8__detail9__variant5__getILm7ERKNS0_15_Variadic_unionIJSt8functionIFvSt10shared_ptrIKN6rclcpp17SerializedMessageEEEES3_IFvS8_RKNS5_11MessageInfoEEES3_IFvRKS4_IKN8nav_msgs3msg9Odometry_ISaIvEEEEEES3_IFvSO_SD_EES3_IFvRKS8_EES3_IFvSU_SD_EES3_IFvS4_ISK_EEES3_IFvSZ_SD_EES3_IFvS4_IS6_EEES3_IFvS14_SD_EEEEEEEDcSt16in_place_index_tIXT_EEOT0_
FN:289,_ZNSt8__detail9__variant5__getILm8ERKNS0_15_Variadic_unionIJSt8functionIFvSt10unique_ptrIN6rclcpp17SerializedMessageESt14default_deleteIS6_EERKNS5_11MessageInfoEEES3_IFvSt10shared_ptrIKN8nav_msgs3msg9Odometry_ISaIvEEEEEES3_IFvSM_SC_EES3_IFvSF_IKS6_EEES3_IFvSS_SC_EES3_IFvRKSM_EES3_IFvSY_SC_EES3_IFvRKSS_EES3_IFvS14_SC_EES3_IFvSF_ISK_EEES3_IFvS19_SC_EES3_IFvSF_IS6_EEES3_IFvS1E_SC_EEEEEEEDcSt16in_place_index_tIXT_EEOT0_
FNDA:0,_ZNSt8__detail9__variant5__getILm8ERKNS0_15_Variadic_unionIJSt8functionIFvSt10unique_ptrIN6rclcpp17SerializedMessageESt14default_deleteIS6_EERKNS5_11MessageInfoEEES3_IFvSt10shared_ptrIKN8nav_msgs3msg9Odometry_ISaIvEEEEEES3_IFvSM_SC_EES3_IFvSF_IKS6_EEES3_IFvSS_SC_EES3_IFvRKSM_EES3_IFvSY_SC_EES3_IFvRKSS_EES3_IFvS14_SC_EES3_IFvSF_ISK_EEES3_IFvS19_SC_EES3_IFvSF_IS6_EEES3_IFvS1E_SC_EEEEEEEDcSt16in_place_index_tIXT_EEOT0_
FN:289,_ZNSt8__detail9__variant5__getILm14ERKNS0_15_Variadic_unionIJSt8functionIFvRKN8nav_msgs3msg9Odometry_ISaIvEEEEES3_IFvSA_RKN6rclcpp11MessageInfoEEES3_IFvRKNSD_17SerializedMessageEEES3_IFvSL_SG_EES3_IFvSt10unique_ptrIS8_St14default_deleteIS8_EEEES3_IFvST_SG_EES3_IFvSQ_ISJ_SR_ISJ_EEEES3_IFvSZ_SG_EES3_IFvSt10shared_ptrIS9_EEES3_IFvS15_SG_EES3_IFvS14_ISK_EEES3_IFvS1A_SG_EES3_IFvRKS15_EES3_IFvS1G_SG_EES3_IFvRKS1A_EES3_IFvS1M_SG_EES3_IFvS14_IS8_EEES3_IFvS1R_SG_EES3_IFvS14_ISJ_EEES3_IFvS1W_SG_EEEEEEEDcSt16in_place_index_tIXT_EEOT0_
FNDA:0,_ZNSt8__detail9__variant5__getILm14ERKNS0_15_Variadic_unionIJSt8functionIFvRKN8nav_msgs3msg9Odometry_ISaIvEEEEES3_IFvSA_RKN6rclcpp11MessageInfoEEES3_IFvRKNSD_17SerializedMessageEEES3_IFvSL_SG_EES3_IFvSt10unique_ptrIS8_St14default_deleteIS8_EEEES3_IFvST_SG_EES3_IFvSQ_ISJ_SR_ISJ_EEEES3_IFvSZ_SG_EES3_IFvSt10shared_ptrIS9_EEES3_IFvS15_SG_EES3_IFvS14_ISK_EEES3_IFvS1A_SG_EES3_IFvRKS15_EES3_IFvS1G_SG_EES3_IFvRKS1A_EES3_IFvS1M_SG_EES3_IFvS14_IS8_EEES3_IFvS1R_SG_EES3_IFvS14_ISJ_EEES3_IFvS1W_SG_EEEEEEEDcSt16in_place_index_tIXT_EEOT0_
FN:289,_ZNSt8__detail9__variant5__getILm6ERKNS0_15_Variadic_unionIJSt8functionIFvSt10unique_ptrIN8nav_msgs3msg9Odometry_ISaIvEEESt14default_deleteIS9_EEEES3_IFvSC_RKN6rclcpp11MessageInfoEEES3_IFvS4_INSF_17SerializedMessageESA_ISL_EEEES3_IFvSN_SI_EES3_IFvSt10shared_ptrIKS9_EEES3_IFvSU_SI_EES3_IFvSS_IKSL_EEES3_IFvS10_SI_EES3_IFvRKSU_EES3_IFvS16_SI_EES3_IFvRKS10_EES3_IFvS1C_SI_EES3_IFvSS_IS9_EEES3_IFvS1H_SI_EES3_IFvSS_ISL_EEES3_IFvS1M_SI_EEEEEEEDcSt16in_place_index_tIXT_EEOT0_
FNDA:0,_ZNSt8__detail9__variant5__getILm6ERKNS0_15_Variadic_unionIJSt8functionIFvSt10unique_ptrIN8nav_msgs3msg9Odometry_ISaIvEEESt14default_deleteIS9_EEEES3_IFvSC_RKN6rclcpp11MessageInfoEEES3_IFvS4_INSF_17SerializedMessageESA_ISL_EEEES3_IFvSN_SI_EES3_IFvSt10shared_ptrIKS9_EEES3_IFvSU_SI_EES3_IFvSS_IKSL_EEES3_IFvS10_SI_EES3_IFvRKSU_EES3_IFvS16_SI_EES3_IFvRKS10_EES3_IFvS1C_SI_EES3_IFvSS_IS9_EEES3_IFvS1H_SI_EES3_IFvSS_ISL_EEES3_IFvS1M_SI_EEEEEEEDcSt16in_place_index_tIXT_EEOT0_
FN:289,_ZNSt8__detail9__variant5__getILm9ERNS0_15_Variadic_unionIJSt8functionIFvSt10shared_ptrIKN6rclcpp17SerializedMessageEEEES3_IFvS8_RKNS5_11MessageInfoEEES3_IFvRKS4_IKN8nav_msgs3msg9Odometry_ISaIvEEEEEES3_IFvSO_SD_EES3_IFvRKS8_EES3_IFvSU_SD_EES3_IFvS4_ISK_EEES3_IFvSZ_SD_EES3_IFvS4_IS6_EEES3_IFvS14_SD_EEEEEEEDcSt16in_place_index_tIXT_EEOT0_
FNDA:0,_ZNSt8__detail9__variant5__getILm9ERNS0_15_Variadic_unionIJSt8functionIFvSt10shared_ptrIKN6rclcpp17SerializedMessageEEEES3_IFvS8_RKNS5_11MessageInfoEEES3_IFvRKS4_IKN8nav_msgs3msg9Odometry_ISaIvEEEEEES3_IFvSO_SD_EES3_IFvRKS8_EES3_IFvSU_SD_EES3_IFvS4_ISK_EEES3_IFvSZ_SD_EES3_IFvS4_IS6_EEES3_IFvS14_SD_EEEEEEEDcSt16in_place_index_tIXT_EEOT0_
FN:289,_ZNSt8__detail9__variant5__getILm5ERKNS0_15_Variadic_unionIJSt8functionIFvSt10unique_ptrIN8nav_msgs3msg9Odometry_ISaIvEEESt14default_deleteIS9_EERKN6rclcpp11MessageInfoEEES3_IFvS4_INSD_17SerializedMessageESA_ISJ_EEEES3_IFvSL_SG_EES3_IFvSt10shared_ptrIKS9_EEES3_IFvSS_SG_EES3_IFvSQ_IKSJ_EEES3_IFvSY_SG_EES3_IFvRKSS_EES3_IFvS14_SG_EES3_IFvRKSY_EES3_IFvS1A_SG_EES3_IFvSQ_IS9_EEES3_IFvS1F_SG_EES3_IFvSQ_ISJ_EEES3_IFvS1K_SG_EEEEEEEDcSt16in_place_index_tIXT_EEOT0_
FNDA:0,_ZNSt8__detail9__variant5__getILm5ERKNS0_15_Variadic_unionIJSt8functionIFvSt10unique_ptrIN8nav_msgs3msg9Odometry_ISaIvEEESt14default_deleteIS9_EERKN6rclcpp11MessageInfoEEES3_IFvS4_INSD_17SerializedMessageESA_ISJ_EEEES3_IFvSL_SG_EES3_IFvSt10shared_ptrIKS9_EEES3_IFvSS_SG_EES3_IFvSQ_IKSJ_EEES3_IFvSY_SG_EES3_IFvRKSS_EES3_IFvS14_SG_EES3_IFvRKSY_EES3_IFvS1A_SG_EES3_IFvSQ_IS9_EEES3_IFvS1F_SG_EES3_IFvSQ_ISJ_EEES3_IFvS1K_SG_EEEEEEEDcSt16in_place_index_tIXT_EEOT0_
FN:289,_ZNSt8__detail9__variant5__getILm8ERNS0_15_Variadic_unionIJSt8functionIFvSt10shared_ptrIKN6rclcpp17SerializedMessageEERKNS5_11MessageInfoEEES3_IFvRKS4_IKN8nav_msgs3msg9Odometry_ISaIvEEEEEES3_IFvSM_SB_EES3_IFvRKS8_EES3_IFvSS_SB_EES3_IFvS4_ISI_EEES3_IFvSX_SB_EES3_IFvS4_IS6_EEES3_IFvS12_SB_EEEEEEEDcSt16in_place_index_tIXT_EEOT0_
FNDA:0,_ZNSt8__detail9__variant5__getILm8ERNS0_15_Variadic_unionIJSt8functionIFvSt10shared_ptrIKN6rclcpp17SerializedMessageEERKNS5_11MessageInfoEEES3_IFvRKS4_IKN8nav_msgs3msg9Odometry_ISaIvEEEEEES3_IFvSM_SB_EES3_IFvRKS8_EES3_IFvSS_SB_EES3_IFvS4_ISI_EEES3_IFvSX_SB_EES3_IFvS4_IS6_EEES3_IFvS12_SB_EEEEEEEDcSt16in_place_index_tIXT_EEOT0_
FN:289,_ZNSt8__detail9__variant5__getILm1ERKNS0_15_Variadic_unionIJSt8functionIFvRKSt10shared_ptrIKN6rclcpp17SerializedMessageEEEES3_IFvSA_RKNS5_11MessageInfoEEES3_IFvS4_IN8nav_msgs3msg9Odometry_ISaIvEEEEEES3_IFvSN_SF_EES3_IFvS4_IS6_EEES3_IFvSS_SF_EEEEEEEDcSt16in_place_index_tIXT_EEOT0_
FNDA:0,_ZNSt8__detail9__variant5__getILm1ERKNS0_15_Variadic_unionIJSt8functionIFvRKSt10shared_ptrIKN6rclcpp17SerializedMessageEEEES3_IFvSA_RKNS5_11MessageInfoEEES3_IFvS4_IN8nav_msgs3msg9Odometry_ISaIvEEEEEES3_IFvSN_SF_EES3_IFvS4_IS6_EEES3_IFvSS_SF_EEEEEEEDcSt16in_place_index_tIXT_EEOT0_
FN:289,_ZNSt8__detail9__variant5__getILm2ERKNS0_15_Variadic_unionIJSt8functionIFvRKSt10shared_ptrIKN8nav_msgs3msg9Odometry_ISaIvEEEERKN6rclcpp11MessageInfoEEES3_IFvRKS4_IKNSE_17SerializedMessageEEEES3_IFvSO_SH_EES3_IFvS4_IS9_EEES3_IFvST_SH_EES3_IFvS4_ISK_EEES3_IFvSY_SH_EEEEEEEDcSt16in_place_index_tIXT_EEOT0_
FNDA:0,_ZNSt8__detail9__variant5__getILm2ERKNS0_15_Variadic_unionIJSt8functionIFvRKSt10shared_ptrIKN8nav_msgs3msg9Odometry_ISaIvEEEERKN6rclcpp11MessageInfoEEES3_IFvRKS4_IKNSE_17SerializedMessageEEEES3_IFvSO_SH_EES3_IFvS4_IS9_EEES3_IFvST_SH_EES3_IFvS4_ISK_EEES3_IFvSY_SH_EEEEEEEDcSt16in_place_index_tIXT_EEOT0_
FN:289,_ZNSt8__detail9__variant5__getILm3ERKNS0_15_Variadic_unionIJSt8functionIFvRKSt10shared_ptrIKN8nav_msgs3msg9Odometry_ISaIvEEEEEES3_IFvSD_RKN6rclcpp11MessageInfoEEES3_IFvRKS4_IKNSG_17SerializedMessageEEEES3_IFvSQ_SJ_EES3_IFvS4_IS9_EEES3_IFvSV_SJ_EES3_IFvS4_ISM_EEES3_IFvS10_SJ_EEEEEEEDcSt16in_place_index_tIXT_EEOT0_
FNDA:0,_ZNSt8__detail9__variant5__getILm3ERKNS0_15_Variadic_unionIJSt8functionIFvRKSt10shared_ptrIKN8nav_msgs3msg9Odometry_ISaIvEEEEEES3_IFvSD_RKN6rclcpp11MessageInfoEEES3_IFvRKS4_IKNSG_17SerializedMessageEEEES3_IFvSQ_SJ_EES3_IFvS4_IS9_EEES3_IFvSV_SJ_EES3_IFvS4_ISM_EEES3_IFvS10_SJ_EEEEEEEDcSt16in_place_index_tIXT_EEOT0_
FN:289,_ZNSt8__detail9__variant5__getILm4ERKNS0_15_Variadic_unionIJSt8functionIFvSt10shared_ptrIKN6rclcpp17SerializedMessageEERKNS5_11MessageInfoEEES3_IFvRKS4_IKN8nav_msgs3msg9Odometry_ISaIvEEEEEES3_IFvSM_SB_EES3_IFvRKS8_EES3_IFvSS_SB_EES3_IFvS4_ISI_EEES3_IFvSX_SB_EES3_IFvS4_IS6_EEES3_IFvS12_SB_EEEEEEEDcSt16in_place_index_tIXT_EEOT0_
FNDA:0,_ZNSt8__detail9__variant5__getILm4ERKNS0_15_Variadic_unionIJSt8functionIFvSt10shared_ptrIKN6rclcpp17SerializedMessageEERKNS5_11MessageInfoEEES3_IFvRKS4_IKN8nav_msgs3msg9Odometry_ISaIvEEEEEES3_IFvSM_SB_EES3_IFvRKS8_EES3_IFvSS_SB_EES3_IFvS4_ISI_EEES3_IFvSX_SB_EES3_IFvS4_IS6_EEES3_IFvS12_SB_EEEEEEEDcSt16in_place_index_tIXT_EEOT0_
FN:289,_ZNSt8__detail9__variant5__getILm5ERKNS0_15_Variadic_unionIJSt8functionIFvSt10shared_ptrIKN6rclcpp17SerializedMessageEEEES3_IFvS8_RKNS5_11MessageInfoEEES3_IFvRKS4_IKN8nav_msgs3msg9Odometry_ISaIvEEEEEES3_IFvSO_SD_EES3_IFvRKS8_EES3_IFvSU_SD_EES3_IFvS4_ISK_EEES3_IFvSZ_SD_EES3_IFvS4_IS6_EEES3_IFvS14_SD_EEEEEEEDcSt16in_place_index_tIXT_EEOT0_
FNDA:0,_ZNSt8__detail9__variant5__getILm5ERKNS0_15_Variadic_unionIJSt8functionIFvSt10shared_ptrIKN6rclcpp17SerializedMessageEEEES3_IFvS8_RKNS5_11MessageInfoEEES3_IFvRKS4_IKN8nav_msgs3msg9Odometry_ISaIvEEEEEES3_IFvSO_SD_EES3_IFvRKS8_EES3_IFvSU_SD_EES3_IFvS4_ISK_EEES3_IFvSZ_SD_EES3_IFvS4_IS6_EEES3_IFvS14_SD_EEEEEEEDcSt16in_place_index_tIXT_EEOT0_
FN:289,_ZNSt8__detail9__variant5__getILm6ERKNS0_15_Variadic_unionIJSt8functionIFvSt10shared_ptrIKN8nav_msgs3msg9Odometry_ISaIvEEEERKN6rclcpp11MessageInfoEEES3_IFvS4_IKNSC_17SerializedMessageEEEES3_IFvSK_SF_EES3_IFvRKSB_EES3_IFvSQ_SF_EES3_IFvRKSK_EES3_IFvSW_SF_EES3_IFvS4_IS9_EEES3_IFvS11_SF_EES3_IFvS4_ISI_EEES3_IFvS16_SF_EEEEEEEDcSt16in_place_index_tIXT_EEOT0_
FNDA:0,_ZNSt8__detail9__variant5__getILm6ERKNS0_15_Variadic_unionIJSt8functionIFvSt10shared_ptrIKN8nav_msgs3msg9Odometry_ISaIvEEEERKN6rclcpp11MessageInfoEEES3_IFvS4_IKNSC_17SerializedMessageEEEES3_IFvSK_SF_EES3_IFvRKSB_EES3_IFvSQ_SF_EES3_IFvRKSK_EES3_IFvSW_SF_EES3_IFvS4_IS9_EEES3_IFvS11_SF_EES3_IFvS4_ISI_EEES3_IFvS16_SF_EEEEEEEDcSt16in_place_index_tIXT_EEOT0_
FN:289,_ZNSt8__detail9__variant5__getILm7ERKNS0_15_Variadic_unionIJSt8functionIFvSt10shared_ptrIKN8nav_msgs3msg9Odometry_ISaIvEEEEEES3_IFvSB_RKN6rclcpp11MessageInfoEEES3_IFvS4_IKNSE_17SerializedMessageEEEES3_IFvSM_SH_EES3_IFvRKSB_EES3_IFvSS_SH_EES3_IFvRKSM_EES3_IFvSY_SH_EES3_IFvS4_IS9_EEES3_IFvS13_SH_EES3_IFvS4_ISK_EEES3_IFvS18_SH_EEEEEEEDcSt16in_place_index_tIXT_EEOT0_
FNDA:0,_ZNSt8__detail9__variant5__getILm7ERKNS0_15_Variadic_unionIJSt8functionIFvSt10shared_ptrIKN8nav_msgs3msg9Odometry_ISaIvEEEEEES3_IFvSB_RKN6rclcpp11MessageInfoEEES3_IFvS4_IKNSE_17SerializedMessageEEEES3_IFvSM_SH_EES3_IFvRKSB_EES3_IFvSS_SH_EES3_IFvRKSM_EES3_IFvSY_SH_EES3_IFvS4_IS9_EEES3_IFvS13_SH_EES3_IFvS4_ISK_EEES3_IFvS18_SH_EEEEEEEDcSt16in_place_index_tIXT_EEOT0_
FN:289,_ZNSt8__detail9__variant5__getILm8ERKNS0_15_Variadic_unionIJSt8functionIFvSt10shared_ptrIKN8nav_msgs3msg9Odometry_ISaIvEEEERKN6rclcpp11MessageInfoEEES3_IFvS4_IKNSC_17SerializedMessageEEEES3_IFvSK_SF_EES3_IFvRKSB_EES3_IFvSQ_SF_EES3_IFvRKSK_EES3_IFvSW_SF_EES3_IFvS4_IS9_EEES3_IFvS11_SF_EES3_IFvS4_ISI_EEES3_IFvS16_SF_EEEEEEEDcSt16in_place_index_tIXT_EEOT0_
FNDA:0,_ZNSt8__detail9__variant5__getILm8ERKNS0_15_Variadic_unionIJSt8functionIFvSt10shared_ptrIKN8nav_msgs3msg9Odometry_ISaIvEEEERKN6rclcpp11MessageInfoEEES3_IFvS4_IKNSC_17SerializedMessageEEEES3_IFvSK_SF_EES3_IFvRKSB_EES3_IFvSQ_SF_EES3_IFvRKSK_EES3_IFvSW_SF_EES3_IFvS4_IS9_EEES3_IFvS11_SF_EES3_IFvS4_ISI_EEES3_IFvS16_SF_EEEEEEEDcSt16in_place_index_tIXT_EEOT0_
FN:289,_ZNSt8__detail9__variant5__getILm9ERKNS0_15_Variadic_unionIJSt8functionIFvSt10unique_ptrIN6rclcpp17SerializedMessageESt14default_deleteIS6_EEEES3_IFvS9_RKNS5_11MessageInfoEEES3_IFvSt10shared_ptrIKN8nav_msgs3msg9Odometry_ISaIvEEEEEES3_IFvSO_SE_EES3_IFvSH_IKS6_EEES3_IFvSU_SE_EES3_IFvRKSO_EES3_IFvS10_SE_EES3_IFvRKSU_EES3_IFvS16_SE_EES3_IFvSH_ISM_EEES3_IFvS1B_SE_EES3_IFvSH_IS6_EEES3_IFvS1G_SE_EEEEEEEDcSt16in_place_index_tIXT_EEOT0_
FNDA:0,_ZNSt8__detail9__variant5__getILm9ERKNS0_15_Variadic_unionIJSt8functionIFvSt10unique_ptrIN6rclcpp17SerializedMessageESt14default_deleteIS6_EEEES3_IFvS9_RKNS5_11MessageInfoEEES3_IFvSt10shared_ptrIKN8nav_msgs3msg9Odometry_ISaIvEEEEEES3_IFvSO_SE_EES3_IFvSH_IKS6_EEES3_IFvSU_SE_EES3_IFvRKSO_EES3_IFvS10_SE_EES3_IFvRKSU_EES3_IFvS16_SE_EES3_IFvSH_ISM_EEES3_IFvS1B_SE_EES3_IFvSH_IS6_EEES3_IFvS1G_SE_EEEEEEEDcSt16in_place_index_tIXT_EEOT0_
FN:289,_ZNSt8__detail9__variant5__getILm10ERKNS0_15_Variadic_unionIJSt8functionIFvSt10unique_ptrIN8nav_msgs3msg9Odometry_ISaIvEEESt14default_deleteIS9_EERKN6rclcpp11MessageInfoEEES3_IFvS4_INSD_17SerializedMessageESA_ISJ_EEEES3_IFvSL_SG_EES3_IFvSt10shared_ptrIKS9_EEES3_IFvSS_SG_EES3_IFvSQ_IKSJ_EEES3_IFvSY_SG_EES3_IFvRKSS_EES3_IFvS14_SG_EES3_IFvRKSY_EES3_IFvS1A_SG_EES3_IFvSQ_IS9_EEES3_IFvS1F_SG_EES3_IFvSQ_ISJ_EEES3_IFvS1K_SG_EEEEEEEDcSt16in_place_index_tIXT_EEOT0_
FNDA:0,_ZNSt8__detail9__variant5__getILm10ERKNS0_15_Variadic_unionIJSt8functionIFvSt10unique_ptrIN8nav_msgs3msg9Odometry_ISaIvEEESt14default_deleteIS9_EERKN6rclcpp11MessageInfoEEES3_IFvS4_INSD_17SerializedMessageESA_ISJ_EEEES3_IFvSL_SG_EES3_IFvSt10shared_ptrIKS9_EEES3_IFvSS_SG_EES3_IFvSQ_IKSJ_EEES3_IFvSY_SG_EES3_IFvRKSS_EES3_IFvS14_SG_EES3_IFvRKSY_EES3_IFvS1A_SG_EES3_IFvSQ_IS9_EEES3_IFvS1F_SG_EES3_IFvSQ_ISJ_EEES3_IFvS1K_SG_EEEEEEEDcSt16in_place_index_tIXT_EEOT0_
FN:289,_ZNSt8__detail9__variant5__getILm11ERKNS0_15_Variadic_unionIJSt8functionIFvSt10unique_ptrIN8nav_msgs3msg9Odometry_ISaIvEEESt14default_deleteIS9_EEEES3_IFvSC_RKN6rclcpp11MessageInfoEEES3_IFvS4_INSF_17SerializedMessageESA_ISL_EEEES3_IFvSN_SI_EES3_IFvSt10shared_ptrIKS9_EEES3_IFvSU_SI_EES3_IFvSS_IKSL_EEES3_IFvS10_SI_EES3_IFvRKSU_EES3_IFvS16_SI_EES3_IFvRKS10_EES3_IFvS1C_SI_EES3_IFvSS_IS9_EEES3_IFvS1H_SI_EES3_IFvSS_ISL_EEES3_IFvS1M_SI_EEEEEEEDcSt16in_place_index_tIXT_EEOT0_
FNDA:0,_ZNSt8__detail9__variant5__getILm11ERKNS0_15_Variadic_unionIJSt8functionIFvSt10unique_ptrIN8nav_msgs3msg9Odometry_ISaIvEEESt14default_deleteIS9_EEEES3_IFvSC_RKN6rclcpp11MessageInfoEEES3_IFvS4_INSF_17SerializedMessageESA_ISL_EEEES3_IFvSN_SI_EES3_IFvSt10shared_ptrIKS9_EEES3_IFvSU_SI_EES3_IFvSS_IKSL_EEES3_IFvS10_SI_EES3_IFvRKSU_EES3_IFvS16_SI_EES3_IFvRKS10_EES3_IFvS1C_SI_EES3_IFvSS_IS9_EEES3_IFvS1H_SI_EES3_IFvSS_ISL_EEES3_IFvS1M_SI_EEEEEEEDcSt16in_place_index_tIXT_EEOT0_
FN:289,_ZNSt8__detail9__variant5__getILm12ERKNS0_15_Variadic_unionIJSt8functionIFvRKN6rclcpp17SerializedMessageERKNS4_11MessageInfoEEES3_IFvSt10unique_ptrIN8nav_msgs3msg9Odometry_ISaIvEEESt14default_deleteISI_EEEES3_IFvSL_SA_EES3_IFvSD_IS5_SJ_IS5_EEEES3_IFvSR_SA_EES3_IFvSt10shared_ptrIKSI_EEES3_IFvSY_SA_EES3_IFvSW_IS6_EEES3_IFvS13_SA_EES3_IFvRKSY_EES3_IFvS19_SA_EES3_IFvRKS13_EES3_IFvS1F_SA_EES3_IFvSW_ISI_EEES3_IFvS1K_SA_EES3_IFvSW_IS5_EEES3_IFvS1P_SA_EEEEEEEDcSt16in_place_index_tIXT_EEOT0_
FNDA:0,_ZNSt8__detail9__variant5__getILm12ERKNS0_15_Variadic_unionIJSt8functionIFvRKN6rclcpp17SerializedMessageERKNS4_11MessageInfoEEES3_IFvSt10unique_ptrIN8nav_msgs3msg9Odometry_ISaIvEEESt14default_deleteISI_EEEES3_IFvSL_SA_EES3_IFvSD_IS5_SJ_IS5_EEEES3_IFvSR_SA_EES3_IFvSt10shared_ptrIKSI_EEES3_IFvSY_SA_EES3_IFvSW_IS6_EEES3_IFvS13_SA_EES3_IFvRKSY_EES3_IFvS19_SA_EES3_IFvRKS13_EES3_IFvS1F_SA_EES3_IFvSW_ISI_EEES3_IFvS1K_SA_EES3_IFvSW_IS5_EEES3_IFvS1P_SA_EEEEEEEDcSt16in_place_index_tIXT_EEOT0_
FN:289,_ZNSt8__detail9__variant5__getILm13ERKNS0_15_Variadic_unionIJSt8functionIFvRKN6rclcpp17SerializedMessageEEES3_IFvS7_RKNS4_11MessageInfoEEES3_IFvSt10unique_ptrIN8nav_msgs3msg9Odometry_ISaIvEEESt14default_deleteISK_EEEES3_IFvSN_SC_EES3_IFvSF_IS5_SL_IS5_EEEES3_IFvST_SC_EES3_IFvSt10shared_ptrIKSK_EEES3_IFvS10_SC_EES3_IFvSY_IS6_EEES3_IFvS15_SC_EES3_IFvRKS10_EES3_IFvS1B_SC_EES3_IFvRKS15_EES3_IFvS1H_SC_EES3_IFvSY_ISK_EEES3_IFvS1M_SC_EES3_IFvSY_IS5_EEES3_IFvS1R_SC_EEEEEEEDcSt16in_place_index_tIXT_EEOT0_
FNDA:0,_ZNSt8__detail9__variant5__getILm13ERKNS0_15_Variadic_unionIJSt8functionIFvRKN6rclcpp17SerializedMessageEEES3_IFvS7_RKNS4_11MessageInfoEEES3_IFvSt10unique_ptrIN8nav_msgs3msg9Odometry_ISaIvEEESt14default_deleteISK_EEEES3_IFvSN_SC_EES3_IFvSF_IS5_SL_IS5_EEEES3_IFvST_SC_EES3_IFvSt10shared_ptrIKSK_EEES3_IFvS10_SC_EES3_IFvSY_IS6_EEES3_IFvS15_SC_EES3_IFvRKS10_EES3_IFvS1B_SC_EES3_IFvRKS15_EES3_IFvS1H_SC_EES3_IFvSY_ISK_EEES3_IFvS1M_SC_EES3_IFvSY_IS5_EEES3_IFvS1R_SC_EEEEEEEDcSt16in_place_index_tIXT_EEOT0_
FN:289,_ZNSt8__detail9__variant5__getILm14ERKNS0_15_Variadic_unionIJSt8functionIFvRKN8nav_msgs3msg9Odometry_ISaIvEEERKN6rclcpp11MessageInfoEEES3_IFvRKNSB_17SerializedMessageEEES3_IFvSJ_SE_EES3_IFvSt10unique_ptrIS8_St14default_deleteIS8_EEEES3_IFvSR_SE_EES3_IFvSO_ISH_SP_ISH_EEEES3_IFvSX_SE_EES3_IFvSt10shared_ptrIS9_EEES3_IFvS13_SE_EES3_IFvS12_ISI_EEES3_IFvS18_SE_EES3_IFvRKS13_EES3_IFvS1E_SE_EES3_IFvRKS18_EES3_IFvS1K_SE_EES3_IFvS12_IS8_EEES3_IFvS1P_SE_EES3_IFvS12_ISH_EEES3_IFvS1U_SE_EEEEEEEDcSt16in_place_index_tIXT_EEOT0_
FNDA:0,_ZNSt8__detail9__variant5__getILm14ERKNS0_15_Variadic_unionIJSt8functionIFvRKN8nav_msgs3msg9Odometry_ISaIvEEERKN6rclcpp11MessageInfoEEES3_IFvRKNSB_17SerializedMessageEEES3_IFvSJ_SE_EES3_IFvSt10unique_ptrIS8_St14default_deleteIS8_EEEES3_IFvSR_SE_EES3_IFvSO_ISH_SP_ISH_EEEES3_IFvSX_SE_EES3_IFvSt10shared_ptrIS9_EEES3_IFvS13_SE_EES3_IFvS12_ISI_EEES3_IFvS18_SE_EES3_IFvRKS13_EES3_IFvS1E_SE_EES3_IFvRKS18_EES3_IFvS1K_SE_EES3_IFvS12_IS8_EEES3_IFvS1P_SE_EES3_IFvS12_ISH_EEES3_IFvS1U_SE_EEEEEEEDcSt16in_place_index_tIXT_EEOT0_
FN:289,_ZNSt8__detail9__variant5__getILm15ERKNS0_15_Variadic_unionIJSt8functionIFvRKN8nav_msgs3msg9Odometry_ISaIvEEEEES3_IFvSA_RKN6rclcpp11MessageInfoEEES3_IFvRKNSD_17SerializedMessageEEES3_IFvSL_SG_EES3_IFvSt10unique_ptrIS8_St14default_deleteIS8_EEEES3_IFvST_SG_EES3_IFvSQ_ISJ_SR_ISJ_EEEES3_IFvSZ_SG_EES3_IFvSt10shared_ptrIS9_EEES3_IFvS15_SG_EES3_IFvS14_ISK_EEES3_IFvS1A_SG_EES3_IFvRKS15_EES3_IFvS1G_SG_EES3_IFvRKS1A_EES3_IFvS1M_SG_EES3_IFvS14_IS8_EEES3_IFvS1R_SG_EES3_IFvS14_ISJ_EEES3_IFvS1W_SG_EEEEEEEDcSt16in_place_index_tIXT_EEOT0_
FNDA:0,_ZNSt8__detail9__variant5__getILm15ERKNS0_15_Variadic_unionIJSt8functionIFvRKN8nav_msgs3msg9Odometry_ISaIvEEEEES3_IFvSA_RKN6rclcpp11MessageInfoEEES3_IFvRKNSD_17SerializedMessageEEES3_IFvSL_SG_EES3_IFvSt10unique_ptrIS8_St14default_deleteIS8_EEEES3_IFvST_SG_EES3_IFvSQ_ISJ_SR_ISJ_EEEES3_IFvSZ_SG_EES3_IFvSt10shared_ptrIS9_EEES3_IFvS15_SG_EES3_IFvS14_ISK_EEES3_IFvS1A_SG_EES3_IFvRKS15_EES3_IFvS1G_SG_EES3_IFvRKS1A_EES3_IFvS1M_SG_EES3_IFvS14_IS8_EEES3_IFvS1R_SG_EES3_IFvS14_ISJ_EEES3_IFvS1W_SG_EEEEEEEDcSt16in_place_index_tIXT_EEOT0_
FN:289,_ZNSt8__detail9__variant5__getILm4ERKNS0_15_Variadic_unionIJSt8functionIFvSt10unique_ptrIN6rclcpp17SerializedMessageESt14default_deleteIS6_EEEES3_IFvS9_RKNS5_11MessageInfoEEES3_IFvSt10shared_ptrIKN8nav_msgs3msg9Odometry_ISaIvEEEEEES3_IFvSO_SE_EES3_IFvSH_IKS6_EEES3_IFvSU_SE_EES3_IFvRKSO_EES3_IFvS10_SE_EES3_IFvRKSU_EES3_IFvS16_SE_EES3_IFvSH_ISM_EEES3_IFvS1B_SE_EES3_IFvSH_IS6_EEES3_IFvS1G_SE_EEEEEEEDcSt16in_place_index_tIXT_EEOT0_
FNDA:0,_ZNSt8__detail9__variant5__getILm4ERKNS0_15_Variadic_unionIJSt8functionIFvSt10unique_ptrIN6rclcpp17SerializedMessageESt14default_deleteIS6_EEEES3_IFvS9_RKNS5_11MessageInfoEEES3_IFvSt10shared_ptrIKN8nav_msgs3msg9Odometry_ISaIvEEEEEES3_IFvSO_SE_EES3_IFvSH_IKS6_EEES3_IFvSU_SE_EES3_IFvRKSO_EES3_IFvS10_SE_EES3_IFvRKSU_EES3_IFvS16_SE_EES3_IFvSH_ISM_EEES3_IFvS1B_SE_EES3_IFvSH_IS6_EEES3_IFvS1G_SE_EEEEEEEDcSt16in_place_index_tIXT_EEOT0_
FN:289,_ZNSt8__detail9__variant5__getILm7ERNS0_15_Variadic_unionIJSt8functionIFvRKSt10shared_ptrIKN8nav_msgs3msg9Odometry_ISaIvEEEEEES3_IFvSD_RKN6rclcpp11MessageInfoEEES3_IFvRKS4_IKNSG_17SerializedMessageEEEES3_IFvSQ_SJ_EES3_IFvS4_IS9_EEES3_IFvSV_SJ_EES3_IFvS4_ISM_EEES3_IFvS10_SJ_EEEEEEEDcSt16in_place_index_tIXT_EEOT0_
FNDA:0,_ZNSt8__detail9__variant5__getILm7ERNS0_15_Variadic_unionIJSt8functionIFvRKSt10shared_ptrIKN8nav_msgs3msg9Odometry_ISaIvEEEEEES3_IFvSD_RKN6rclcpp11MessageInfoEEES3_IFvRKS4_IKNSG_17SerializedMessageEEEES3_IFvSQ_SJ_EES3_IFvS4_IS9_EEES3_IFvSV_SJ_EES3_IFvS4_ISM_EEES3_IFvS10_SJ_EEEEEEEDcSt16in_place_index_tIXT_EEOT0_
FN:289,_ZNSt8__detail9__variant5__getILm3ERKNS0_15_Variadic_unionIJSt8functionIFvSt10unique_ptrIN6rclcpp17SerializedMessageESt14default_deleteIS6_EERKNS5_11MessageInfoEEES3_IFvSt10shared_ptrIKN8nav_msgs3msg9Odometry_ISaIvEEEEEES3_IFvSM_SC_EES3_IFvSF_IKS6_EEES3_IFvSS_SC_EES3_IFvRKSM_EES3_IFvSY_SC_EES3_IFvRKSS_EES3_IFvS14_SC_EES3_IFvSF_ISK_EEES3_IFvS19_SC_EES3_IFvSF_IS6_EEES3_IFvS1E_SC_EEEEEEEDcSt16in_place_index_tIXT_EEOT0_
FNDA:0,_ZNSt8__detail9__variant5__getILm3ERKNS0_15_Variadic_unionIJSt8functionIFvSt10unique_ptrIN6rclcpp17SerializedMessageESt14default_deleteIS6_EERKNS5_11MessageInfoEEES3_IFvSt10shared_ptrIKN8nav_msgs3msg9Odometry_ISaIvEEEEEES3_IFvSM_SC_EES3_IFvSF_IKS6_EEES3_IFvSS_SC_EES3_IFvRKSM_EES3_IFvSY_SC_EES3_IFvRKSS_EES3_IFvS14_SC_EES3_IFvSF_ISK_EEES3_IFvS19_SC_EES3_IFvSF_IS6_EEES3_IFvS1E_SC_EEEEEEEDcSt16in_place_index_tIXT_EEOT0_
FN:289,_ZNSt8__detail9__variant5__getILm6ERKNS0_15_Variadic_unionIJSt8functionIFvSt10unique_ptrIN8nav_msgs3msg9Odometry_ISaIvEEESt14default_deleteIS9_EERKN6rclcpp11MessageInfoEEES3_IFvS4_INSD_17SerializedMessageESA_ISJ_EEEES3_IFvSL_SG_EES3_IFvSt10shared_ptrIKS9_EEES3_IFvSS_SG_EES3_IFvSQ_IKSJ_EEES3_IFvSY_SG_EES3_IFvRKSS_EES3_IFvS14_SG_EES3_IFvRKSY_EES3_IFvS1A_SG_EES3_IFvSQ_IS9_EEES3_IFvS1F_SG_EES3_IFvSQ_ISJ_EEES3_IFvS1K_SG_EEEEEEEDcSt16in_place_index_tIXT_EEOT0_
FNDA:0,_ZNSt8__detail9__variant5__getILm6ERKNS0_15_Variadic_unionIJSt8functionIFvSt10unique_ptrIN8nav_msgs3msg9Odometry_ISaIvEEESt14default_deleteIS9_EERKN6rclcpp11MessageInfoEEES3_IFvS4_INSD_17SerializedMessageESA_ISJ_EEEES3_IFvSL_SG_EES3_IFvSt10shared_ptrIKS9_EEES3_IFvSS_SG_EES3_IFvSQ_IKSJ_EEES3_IFvSY_SG_EES3_IFvRKSS_EES3_IFvS14_SG_EES3_IFvRKSY_EES3_IFvS1A_SG_EES3_IFvSQ_IS9_EEES3_IFvS1F_SG_EES3_IFvSQ_ISJ_EEES3_IFvS1K_SG_EEEEEEEDcSt16in_place_index_tIXT_EEOT0_
FN:289,_ZNSt8__detail9__variant5__getILm6ERNS0_15_Variadic_unionIJSt8functionIFvRKSt10shared_ptrIKN8nav_msgs3msg9Odometry_ISaIvEEEERKN6rclcpp11MessageInfoEEES3_IFvRKS4_IKNSE_17SerializedMessageEEEES3_IFvSO_SH_EES3_IFvS4_IS9_EEES3_IFvST_SH_EES3_IFvS4_ISK_EEES3_IFvSY_SH_EEEEEEEDcSt16in_place_index_tIXT_EEOT0_
FNDA:0,_ZNSt8__detail9__variant5__getILm6ERNS0_15_Variadic_unionIJSt8functionIFvRKSt10shared_ptrIKN8nav_msgs3msg9Odometry_ISaIvEEEERKN6rclcpp11MessageInfoEEES3_IFvRKS4_IKNSE_17SerializedMessageEEEES3_IFvSO_SH_EES3_IFvS4_IS9_EEES3_IFvST_SH_EES3_IFvS4_ISK_EEES3_IFvSY_SH_EEEEEEEDcSt16in_place_index_tIXT_EEOT0_
FN:289,_ZNSt8__detail9__variant5__getILm3ERNS0_15_Variadic_unionIJSt8functionIFvSt10shared_ptrIKN8nav_msgs3msg9Odometry_ISaIvEEEEEES3_IFvSB_RKN6rclcpp11MessageInfoEEES3_IFvS4_IKNSE_17SerializedMessageEEEES3_IFvSM_SH_EES3_IFvRKSB_EES3_IFvSS_SH_EES3_IFvRKSM_EES3_IFvSY_SH_EES3_IFvS4_IS9_EEES3_IFvS13_SH_EES3_IFvS4_ISK_EEES3_IFvS18_SH_EEEEEEEDcSt16in_place_index_tIXT_EEOT0_
FNDA:0,_ZNSt8__detail9__variant5__getILm3ERNS0_15_Variadic_unionIJSt8functionIFvSt10shared_ptrIKN8nav_msgs3msg9Odometry_ISaIvEEEEEES3_IFvSB_RKN6rclcpp11MessageInfoEEES3_IFvS4_IKNSE_17SerializedMessageEEEES3_IFvSM_SH_EES3_IFvRKSB_EES3_IFvSS_SH_EES3_IFvRKSM_EES3_IFvSY_SH_EES3_IFvS4_IS9_EEES3_IFvS13_SH_EES3_IFvS4_ISK_EEES3_IFvS18_SH_EEEEEEEDcSt16in_place_index_tIXT_EEOT0_
FN:289,_ZNSt8__detail9__variant5__getILm4ERNS0_15_Variadic_unionIJSt8functionIFvSt10shared_ptrIKN8nav_msgs3msg9Odometry_ISaIvEEEEEES3_IFvSB_RKN6rclcpp11MessageInfoEEES3_IFvS4_IKNSE_17SerializedMessageEEEES3_IFvSM_SH_EES3_IFvRKSB_EES3_IFvSS_SH_EES3_IFvRKSM_EES3_IFvSY_SH_EES3_IFvS4_IS9_EEES3_IFvS13_SH_EES3_IFvS4_ISK_EEES3_IFvS18_SH_EEEEEEEDcSt16in_place_index_tIXT_EEOT0_
FNDA:0,_ZNSt8__detail9__variant5__getILm4ERNS0_15_Variadic_unionIJSt8functionIFvSt10shared_ptrIKN8nav_msgs3msg9Odometry_ISaIvEEEEEES3_IFvSB_RKN6rclcpp11MessageInfoEEES3_IFvS4_IKNSE_17SerializedMessageEEEES3_IFvSM_SH_EES3_IFvRKSB_EES3_IFvSS_SH_EES3_IFvRKSM_EES3_IFvSY_SH_EES3_IFvS4_IS9_EEES3_IFvS13_SH_EES3_IFvS4_ISK_EEES3_IFvS18_SH_EEEEEEEDcSt16in_place_index_tIXT_EEOT0_
FN:289,_ZNSt8__detail9__variant5__getILm3ERNS0_15_Variadic_unionIJSt8functionIFvSt10shared_ptrIKN8nav_msgs3msg9Odometry_ISaIvEEEERKN6rclcpp11MessageInfoEEES3_IFvS4_IKNSC_17SerializedMessageEEEES3_IFvSK_SF_EES3_IFvRKSB_EES3_IFvSQ_SF_EES3_IFvRKSK_EES3_IFvSW_SF_EES3_IFvS4_IS9_EEES3_IFvS11_SF_EES3_IFvS4_ISI_EEES3_IFvS16_SF_EEEEEEEDcSt16in_place_index_tIXT_EEOT0_
FNDA:0,_ZNSt8__detail9__variant5__getILm3ERNS0_15_Variadic_unionIJSt8functionIFvSt10shared_ptrIKN8nav_msgs3msg9Odometry_ISaIvEEEERKN6rclcpp11MessageInfoEEES3_IFvS4_IKNSC_17SerializedMessageEEEES3_IFvSK_SF_EES3_IFvRKSB_EES3_IFvSQ_SF_EES3_IFvRKSK_EES3_IFvSW_SF_EES3_IFvS4_IS9_EEES3_IFvS11_SF_EES3_IFvS4_ISI_EEES3_IFvS16_SF_EEEEEEEDcSt16in_place_index_tIXT_EEOT0_
FN:289,_ZNSt8__detail9__variant5__getILm2ERNS0_15_Variadic_unionIJSt8functionIFvSt10shared_ptrIKN6rclcpp17SerializedMessageEEEES3_IFvS8_RKNS5_11MessageInfoEEES3_IFvRKS4_IKN8nav_msgs3msg9Odometry_ISaIvEEEEEES3_IFvSO_SD_EES3_IFvRKS8_EES3_IFvSU_SD_EES3_IFvS4_ISK_EEES3_IFvSZ_SD_EES3_IFvS4_IS6_EEES3_IFvS14_SD_EEEEEEEDcSt16in_place_index_tIXT_EEOT0_
FNDA:0,_ZNSt8__detail9__variant5__getILm2ERNS0_15_Variadic_unionIJSt8functionIFvSt10shared_ptrIKN6rclcpp17SerializedMessageEEEES3_IFvS8_RKNS5_11MessageInfoEEES3_IFvRKS4_IKN8nav_msgs3msg9Odometry_ISaIvEEEEEES3_IFvSO_SD_EES3_IFvRKS8_EES3_IFvSU_SD_EES3_IFvS4_ISK_EEES3_IFvSZ_SD_EES3_IFvS4_IS6_EEES3_IFvS14_SD_EEEEEEEDcSt16in_place_index_tIXT_EEOT0_
FN:289,_ZNSt8__detail9__variant5__getILm1ERNS0_15_Variadic_unionIJSt8functionIFvSt10shared_ptrIKN6rclcpp17SerializedMessageEERKNS5_11MessageInfoEEES3_IFvRKS4_IKN8nav_msgs3msg9Odometry_ISaIvEEEEEES3_IFvSM_SB_EES3_IFvRKS8_EES3_IFvSS_SB_EES3_IFvS4_ISI_EEES3_IFvSX_SB_EES3_IFvS4_IS6_EEES3_IFvS12_SB_EEEEEEEDcSt16in_place_index_tIXT_EEOT0_
FNDA:0,_ZNSt8__detail9__variant5__getILm1ERNS0_15_Variadic_unionIJSt8functionIFvSt10shared_ptrIKN6rclcpp17SerializedMessageEERKNS5_11MessageInfoEEES3_IFvRKS4_IKN8nav_msgs3msg9Odometry_ISaIvEEEEEES3_IFvSM_SB_EES3_IFvRKS8_EES3_IFvSS_SB_EES3_IFvS4_ISI_EEES3_IFvSX_SB_EES3_IFvS4_IS6_EEES3_IFvS12_SB_EEEEEEEDcSt16in_place_index_tIXT_EEOT0_
FN:289,_ZNSt8__detail9__variant5__getILm11ERNS0_15_Variadic_unionIJSt8functionIFvRKN8nav_msgs3msg9Odometry_ISaIvEEEEES3_IFvSA_RKN6rclcpp11MessageInfoEEES3_IFvRKNSD_17SerializedMessageEEES3_IFvSL_SG_EES3_IFvSt10unique_ptrIS8_St14default_deleteIS8_EEEES3_IFvST_SG_EES3_IFvSQ_ISJ_SR_ISJ_EEEES3_IFvSZ_SG_EES3_IFvSt10shared_ptrIS9_EEES3_IFvS15_SG_EES3_IFvS14_ISK_EEES3_IFvS1A_SG_EES3_IFvRKS15_EES3_IFvS1G_SG_EES3_IFvRKS1A_EES3_IFvS1M_SG_EES3_IFvS14_IS8_EEES3_IFvS1R_SG_EES3_IFvS14_ISJ_EEES3_IFvS1W_SG_EEEEEEEDcSt16in_place_index_tIXT_EEOT0_
FNDA:0,_ZNSt8__detail9__variant5__getILm11ERNS0_15_Variadic_unionIJSt8functionIFvRKN8nav_msgs3msg9Odometry_ISaIvEEEEES3_IFvSA_RKN6rclcpp11MessageInfoEEES3_IFvRKNSD_17SerializedMessageEEES3_IFvSL_SG_EES3_IFvSt10unique_ptrIS8_St14default_deleteIS8_EEEES3_IFvST_SG_EES3_IFvSQ_ISJ_SR_ISJ_EEEES3_IFvSZ_SG_EES3_IFvSt10shared_ptrIS9_EEES3_IFvS15_SG_EES3_IFvS14_ISK_EEES3_IFvS1A_SG_EES3_IFvRKS15_EES3_IFvS1G_SG_EES3_IFvRKS1A_EES3_IFvS1M_SG_EES3_IFvS14_IS8_EEES3_IFvS1R_SG_EES3_IFvS14_ISJ_EEES3_IFvS1W_SG_EEEEEEEDcSt16in_place_index_tIXT_EEOT0_
FN:289,_ZNSt8__detail9__variant5__getILm10ERNS0_15_Variadic_unionIJSt8functionIFvRKN8nav_msgs3msg9Odometry_ISaIvEEERKN6rclcpp11MessageInfoEEES3_IFvRKNSB_17SerializedMessageEEES3_IFvSJ_SE_EES3_IFvSt10unique_ptrIS8_St14default_deleteIS8_EEEES3_IFvSR_SE_EES3_IFvSO_ISH_SP_ISH_EEEES3_IFvSX_SE_EES3_IFvSt10shared_ptrIS9_EEES3_IFvS13_SE_EES3_IFvS12_ISI_EEES3_IFvS18_SE_EES3_IFvRKS13_EES3_IFvS1E_SE_EES3_IFvRKS18_EES3_IFvS1K_SE_EES3_IFvS12_IS8_EEES3_IFvS1P_SE_EES3_IFvS12_ISH_EEES3_IFvS1U_SE_EEEEEEEDcSt16in_place_index_tIXT_EEOT0_
FNDA:0,_ZNSt8__detail9__variant5__getILm10ERNS0_15_Variadic_unionIJSt8functionIFvRKN8nav_msgs3msg9Odometry_ISaIvEEERKN6rclcpp11MessageInfoEEES3_IFvRKNSB_17SerializedMessageEEES3_IFvSJ_SE_EES3_IFvSt10unique_ptrIS8_St14default_deleteIS8_EEEES3_IFvSR_SE_EES3_IFvSO_ISH_SP_ISH_EEEES3_IFvSX_SE_EES3_IFvSt10shared_ptrIS9_EEES3_IFvS13_SE_EES3_IFvS12_ISI_EEES3_IFvS18_SE_EES3_IFvRKS13_EES3_IFvS1E_SE_EES3_IFvRKS18_EES3_IFvS1K_SE_EES3_IFvS12_IS8_EEES3_IFvS1P_SE_EES3_IFvS12_ISH_EEES3_IFvS1U_SE_EEEEEEEDcSt16in_place_index_tIXT_EEOT0_
FN:289,_ZNSt8__detail9__variant5__getILm9ERNS0_15_Variadic_unionIJSt8functionIFvRKN6rclcpp17SerializedMessageEEES3_IFvS7_RKNS4_11MessageInfoEEES3_IFvSt10unique_ptrIN8nav_msgs3msg9Odometry_ISaIvEEESt14default_deleteISK_EEEES3_IFvSN_SC_EES3_IFvSF_IS5_SL_IS5_EEEES3_IFvST_SC_EES3_IFvSt10shared_ptrIKSK_EEES3_IFvS10_SC_EES3_IFvSY_IS6_EEES3_IFvS15_SC_EES3_IFvRKS10_EES3_IFvS1B_SC_EES3_IFvRKS15_EES3_IFvS1H_SC_EES3_IFvSY_ISK_EEES3_IFvS1M_SC_EES3_IFvSY_IS5_EEES3_IFvS1R_SC_EEEEEEEDcSt16in_place_index_tIXT_EEOT0_
FNDA:0,_ZNSt8__detail9__variant5__getILm9ERNS0_15_Variadic_unionIJSt8functionIFvRKN6rclcpp17SerializedMessageEEES3_IFvS7_RKNS4_11MessageInfoEEES3_IFvSt10unique_ptrIN8nav_msgs3msg9Odometry_ISaIvEEESt14default_deleteISK_EEEES3_IFvSN_SC_EES3_IFvSF_IS5_SL_IS5_EEEES3_IFvST_SC_EES3_IFvSt10shared_ptrIKSK_EEES3_IFvS10_SC_EES3_IFvSY_IS6_EEES3_IFvS15_SC_EES3_IFvRKS10_EES3_IFvS1B_SC_EES3_IFvRKS15_EES3_IFvS1H_SC_EES3_IFvSY_ISK_EEES3_IFvS1M_SC_EES3_IFvSY_IS5_EEES3_IFvS1R_SC_EEEEEEEDcSt16in_place_index_tIXT_EEOT0_
FN:289,_ZNSt8__detail9__variant5__getILm8ERNS0_15_Variadic_unionIJSt8functionIFvRKN6rclcpp17SerializedMessageERKNS4_11MessageInfoEEES3_IFvSt10unique_ptrIN8nav_msgs3msg9Odometry_ISaIvEEESt14default_deleteISI_EEEES3_IFvSL_SA_EES3_IFvSD_IS5_SJ_IS5_EEEES3_IFvSR_SA_EES3_IFvSt10shared_ptrIKSI_EEES3_IFvSY_SA_EES3_IFvSW_IS6_EEES3_IFvS13_SA_EES3_IFvRKSY_EES3_IFvS19_SA_EES3_IFvRKS13_EES3_IFvS1F_SA_EES3_IFvSW_ISI_EEES3_IFvS1K_SA_EES3_IFvSW_IS5_EEES3_IFvS1P_SA_EEEEEEEDcSt16in_place_index_tIXT_EEOT0_
FNDA:0,_ZNSt8__detail9__variant5__getILm8ERNS0_15_Variadic_unionIJSt8functionIFvRKN6rclcpp17SerializedMessageERKNS4_11MessageInfoEEES3_IFvSt10unique_ptrIN8nav_msgs3msg9Odometry_ISaIvEEESt14default_deleteISI_EEEES3_IFvSL_SA_EES3_IFvSD_IS5_SJ_IS5_EEEES3_IFvSR_SA_EES3_IFvSt10shared_ptrIKSI_EEES3_IFvSY_SA_EES3_IFvSW_IS6_EEES3_IFvS13_SA_EES3_IFvRKSY_EES3_IFvS19_SA_EES3_IFvRKS13_EES3_IFvS1F_SA_EES3_IFvSW_ISI_EEES3_IFvS1K_SA_EES3_IFvSW_IS5_EEES3_IFvS1P_SA_EEEEEEEDcSt16in_place_index_tIXT_EEOT0_
FN:289,_ZNSt8__detail9__variant5__getILm7ERNS0_15_Variadic_unionIJSt8functionIFvSt10unique_ptrIN8nav_msgs3msg9Odometry_ISaIvEEESt14default_deleteIS9_EEEES3_IFvSC_RKN6rclcpp11MessageInfoEEES3_IFvS4_INSF_17SerializedMessageESA_ISL_EEEES3_IFvSN_SI_EES3_IFvSt10shared_ptrIKS9_EEES3_IFvSU_SI_EES3_IFvSS_IKSL_EEES3_IFvS10_SI_EES3_IFvRKSU_EES3_IFvS16_SI_EES3_IFvRKS10_EES3_IFvS1C_SI_EES3_IFvSS_IS9_EEES3_IFvS1H_SI_EES3_IFvSS_ISL_EEES3_IFvS1M_SI_EEEEEEEDcSt16in_place_index_tIXT_EEOT0_
FNDA:0,_ZNSt8__detail9__variant5__getILm7ERNS0_15_Variadic_unionIJSt8functionIFvSt10unique_ptrIN8nav_msgs3msg9Odometry_ISaIvEEESt14default_deleteIS9_EEEES3_IFvSC_RKN6rclcpp11MessageInfoEEES3_IFvS4_INSF_17SerializedMessageESA_ISL_EEEES3_IFvSN_SI_EES3_IFvSt10shared_ptrIKS9_EEES3_IFvSU_SI_EES3_IFvSS_IKSL_EEES3_IFvS10_SI_EES3_IFvRKSU_EES3_IFvS16_SI_EES3_IFvRKS10_EES3_IFvS1C_SI_EES3_IFvSS_IS9_EEES3_IFvS1H_SI_EES3_IFvSS_ISL_EEES3_IFvS1M_SI_EEEEEEEDcSt16in_place_index_tIXT_EEOT0_
FN:289,_ZNSt8__detail9__variant5__getILm6ERNS0_15_Variadic_unionIJSt8functionIFvSt10unique_ptrIN8nav_msgs3msg9Odometry_ISaIvEEESt14default_deleteIS9_EERKN6rclcpp11MessageInfoEEES3_IFvS4_INSD_17SerializedMessageESA_ISJ_EEEES3_IFvSL_SG_EES3_IFvSt10shared_ptrIKS9_EEES3_IFvSS_SG_EES3_IFvSQ_IKSJ_EEES3_IFvSY_SG_EES3_IFvRKSS_EES3_IFvS14_SG_EES3_IFvRKSY_EES3_IFvS1A_SG_EES3_IFvSQ_IS9_EEES3_IFvS1F_SG_EES3_IFvSQ_ISJ_EEES3_IFvS1K_SG_EEEEEEEDcSt16in_place_index_tIXT_EEOT0_
FNDA:0,_ZNSt8__detail9__variant5__getILm6ERNS0_15_Variadic_unionIJSt8functionIFvSt10unique_ptrIN8nav_msgs3msg9Odometry_ISaIvEEESt14default_deleteIS9_EERKN6rclcpp11MessageInfoEEES3_IFvS4_INSD_17SerializedMessageESA_ISJ_EEEES3_IFvSL_SG_EES3_IFvSt10shared_ptrIKS9_EEES3_IFvSS_SG_EES3_IFvSQ_IKSJ_EEES3_IFvSY_SG_EES3_IFvRKSS_EES3_IFvS14_SG_EES3_IFvRKSY_EES3_IFvS1A_SG_EES3_IFvSQ_IS9_EEES3_IFvS1F_SG_EES3_IFvSQ_ISJ_EEES3_IFvS1K_SG_EEEEEEEDcSt16in_place_index_tIXT_EEOT0_
FN:289,_ZNSt8__detail9__variant5__getILm5ERNS0_15_Variadic_unionIJSt8functionIFvSt10unique_ptrIN6rclcpp17SerializedMessageESt14default_deleteIS6_EEEES3_IFvS9_RKNS5_11MessageInfoEEES3_IFvSt10shared_ptrIKN8nav_msgs3msg9Odometry_ISaIvEEEEEES3_IFvSO_SE_EES3_IFvSH_IKS6_EEES3_IFvSU_SE_EES3_IFvRKSO_EES3_IFvS10_SE_EES3_IFvRKSU_EES3_IFvS16_SE_EES3_IFvSH_ISM_EEES3_IFvS1B_SE_EES3_IFvSH_IS6_EEES3_IFvS1G_SE_EEEEEEEDcSt16in_place_index_tIXT_EEOT0_
FNDA:0,_ZNSt8__detail9__variant5__getILm5ERNS0_15_Variadic_unionIJSt8functionIFvSt10unique_ptrIN6rclcpp17SerializedMessageESt14default_deleteIS6_EEEES3_IFvS9_RKNS5_11MessageInfoEEES3_IFvSt10shared_ptrIKN8nav_msgs3msg9Odometry_ISaIvEEEEEES3_IFvSO_SE_EES3_IFvSH_IKS6_EEES3_IFvSU_SE_EES3_IFvRKSO_EES3_IFvS10_SE_EES3_IFvRKSU_EES3_IFvS16_SE_EES3_IFvSH_ISM_EEES3_IFvS1B_SE_EES3_IFvSH_IS6_EEES3_IFvS1G_SE_EEEEEEEDcSt16in_place_index_tIXT_EEOT0_
FN:289,_ZNSt8__detail9__variant5__getILm4ERNS0_15_Variadic_unionIJSt8functionIFvSt10unique_ptrIN6rclcpp17SerializedMessageESt14default_deleteIS6_EERKNS5_11MessageInfoEEES3_IFvSt10shared_ptrIKN8nav_msgs3msg9Odometry_ISaIvEEEEEES3_IFvSM_SC_EES3_IFvSF_IKS6_EEES3_IFvSS_SC_EES3_IFvRKSM_EES3_IFvSY_SC_EES3_IFvRKSS_EES3_IFvS14_SC_EES3_IFvSF_ISK_EEES3_IFvS19_SC_EES3_IFvSF_IS6_EEES3_IFvS1E_SC_EEEEEEEDcSt16in_place_index_tIXT_EEOT0_
FNDA:0,_ZNSt8__detail9__variant5__getILm4ERNS0_15_Variadic_unionIJSt8functionIFvSt10unique_ptrIN6rclcpp17SerializedMessageESt14default_deleteIS6_EERKNS5_11MessageInfoEEES3_IFvSt10shared_ptrIKN8nav_msgs3msg9Odometry_ISaIvEEEEEES3_IFvSM_SC_EES3_IFvSF_IKS6_EEES3_IFvSS_SC_EES3_IFvRKSM_EES3_IFvSY_SC_EES3_IFvRKSS_EES3_IFvS14_SC_EES3_IFvSF_ISK_EEES3_IFvS19_SC_EES3_IFvSF_IS6_EEES3_IFvS1E_SC_EEEEEEEDcSt16in_place_index_tIXT_EEOT0_
FN:289,_ZNSt8__detail9__variant5__getILm5ERNS0_15_Variadic_unionIJSt8functionIFvSt10unique_ptrIN6rclcpp17SerializedMessageESt14default_deleteIS6_EERKNS5_11MessageInfoEEES3_IFvSt10shared_ptrIKN8nav_msgs3msg9Odometry_ISaIvEEEEEES3_IFvSM_SC_EES3_IFvSF_IKS6_EEES3_IFvSS_SC_EES3_IFvRKSM_EES3_IFvSY_SC_EES3_IFvRKSS_EES3_IFvS14_SC_EES3_IFvSF_ISK_EEES3_IFvS19_SC_EES3_IFvSF_IS6_EEES3_IFvS1E_SC_EEEEEEEDcSt16in_place_index_tIXT_EEOT0_
FNDA:0,_ZNSt8__detail9__variant5__getILm5ERNS0_15_Variadic_unionIJSt8functionIFvSt10unique_ptrIN6rclcpp17SerializedMessageESt14default_deleteIS6_EERKNS5_11MessageInfoEEES3_IFvSt10shared_ptrIKN8nav_msgs3msg9Odometry_ISaIvEEEEEES3_IFvSM_SC_EES3_IFvSF_IKS6_EEES3_IFvSS_SC_EES3_IFvRKSM_EES3_IFvSY_SC_EES3_IFvRKSS_EES3_IFvS14_SC_EES3_IFvSF_ISK_EEES3_IFvS19_SC_EES3_IFvSF_IS6_EEES3_IFvS1E_SC_EEEEEEEDcSt16in_place_index_tIXT_EEOT0_
FN:289,_ZNSt8__detail9__variant5__getILm2ERNS0_15_Variadic_unionIJSt8functionIFvSt10shared_ptrIKN8nav_msgs3msg9Odometry_ISaIvEEEERKN6rclcpp11MessageInfoEEES3_IFvS4_IKNSC_17SerializedMessageEEEES3_IFvSK_SF_EES3_IFvRKSB_EES3_IFvSQ_SF_EES3_IFvRKSK_EES3_IFvSW_SF_EES3_IFvS4_IS9_EEES3_IFvS11_SF_EES3_IFvS4_ISI_EEES3_IFvS16_SF_EEEEEEEDcSt16in_place_index_tIXT_EEOT0_
FNDA:0,_ZNSt8__detail9__variant5__getILm2ERNS0_15_Variadic_unionIJSt8functionIFvSt10shared_ptrIKN8nav_msgs3msg9Odometry_ISaIvEEEERKN6rclcpp11MessageInfoEEES3_IFvS4_IKNSC_17SerializedMessageEEEES3_IFvSK_SF_EES3_IFvRKSB_EES3_IFvSQ_SF_EES3_IFvRKSK_EES3_IFvSW_SF_EES3_IFvS4_IS9_EEES3_IFvS11_SF_EES3_IFvS4_ISI_EEES3_IFvS16_SF_EEEEEEEDcSt16in_place_index_tIXT_EEOT0_
FN:289,_ZNSt8__detail9__variant5__getILm1ERNS0_15_Variadic_unionIJSt8functionIFvSt10shared_ptrIKN6rclcpp17SerializedMessageEEEES3_IFvS8_RKNS5_11MessageInfoEEES3_IFvRKS4_IKN8nav_msgs3msg9Odometry_ISaIvEEEEEES3_IFvSO_SD_EES3_IFvRKS8_EES3_IFvSU_SD_EES3_IFvS4_ISK_EEES3_IFvSZ_SD_EES3_IFvS4_IS6_EEES3_IFvS14_SD_EEEEEEEDcSt16in_place_index_tIXT_EEOT0_
FNDA:0,_ZNSt8__detail9__variant5__getILm1ERNS0_15_Variadic_unionIJSt8functionIFvSt10shared_ptrIKN6rclcpp17SerializedMessageEEEES3_IFvS8_RKNS5_11MessageInfoEEES3_IFvRKS4_IKN8nav_msgs3msg9Odometry_ISaIvEEEEEES3_IFvSO_SD_EES3_IFvRKS8_EES3_IFvSU_SD_EES3_IFvS4_ISK_EEES3_IFvSZ_SD_EES3_IFvS4_IS6_EEES3_IFvS14_SD_EEEEEEEDcSt16in_place_index_tIXT_EEOT0_
FN:289,_ZNSt8__detail9__variant5__getILm3ERKNS0_15_Variadic_unionIJSt8functionIFvRKN8nav_msgs3msg9Odometry_ISaIvEEEEES3_IFvSA_RKN6rclcpp11MessageInfoEEES3_IFvRKNSD_17SerializedMessageEEES3_IFvSL_SG_EES3_IFvSt10unique_ptrIS8_St14default_deleteIS8_EEEES3_IFvST_SG_EES3_IFvSQ_ISJ_SR_ISJ_EEEES3_IFvSZ_SG_EES3_IFvSt10shared_ptrIS9_EEES3_IFvS15_SG_EES3_IFvS14_ISK_EEES3_IFvS1A_SG_EES3_IFvRKS15_EES3_IFvS1G_SG_EES3_IFvRKS1A_EES3_IFvS1M_SG_EES3_IFvS14_IS8_EEES3_IFvS1R_SG_EES3_IFvS14_ISJ_EEES3_IFvS1W_SG_EEEEEEEDcSt16in_place_index_tIXT_EEOT0_
FNDA:0,_ZNSt8__detail9__variant5__getILm3ERKNS0_15_Variadic_unionIJSt8functionIFvRKN8nav_msgs3msg9Odometry_ISaIvEEEEES3_IFvSA_RKN6rclcpp11MessageInfoEEES3_IFvRKNSD_17SerializedMessageEEES3_IFvSL_SG_EES3_IFvSt10unique_ptrIS8_St14default_deleteIS8_EEEES3_IFvST_SG_EES3_IFvSQ_ISJ_SR_ISJ_EEEES3_IFvSZ_SG_EES3_IFvSt10shared_ptrIS9_EEES3_IFvS15_SG_EES3_IFvS14_ISK_EEES3_IFvS1A_SG_EES3_IFvRKS15_EES3_IFvS1G_SG_EES3_IFvRKS1A_EES3_IFvS1M_SG_EES3_IFvS14_IS8_EEES3_IFvS1R_SG_EES3_IFvS14_ISJ_EEES3_IFvS1W_SG_EEEEEEEDcSt16in_place_index_tIXT_EEOT0_
FN:289,_ZNSt8__detail9__variant5__getILm2ERKNS0_15_Variadic_unionIJSt8functionIFvRKN8nav_msgs3msg9Odometry_ISaIvEEERKN6rclcpp11MessageInfoEEES3_IFvRKNSB_17SerializedMessageEEES3_IFvSJ_SE_EES3_IFvSt10unique_ptrIS8_St14default_deleteIS8_EEEES3_IFvSR_SE_EES3_IFvSO_ISH_SP_ISH_EEEES3_IFvSX_SE_EES3_IFvSt10shared_ptrIS9_EEES3_IFvS13_SE_EES3_IFvS12_ISI_EEES3_IFvS18_SE_EES3_IFvRKS13_EES3_IFvS1E_SE_EES3_IFvRKS18_EES3_IFvS1K_SE_EES3_IFvS12_IS8_EEES3_IFvS1P_SE_EES3_IFvS12_ISH_EEES3_IFvS1U_SE_EEEEEEEDcSt16in_place_index_tIXT_EEOT0_
FNDA:0,_ZNSt8__detail9__variant5__getILm2ERKNS0_15_Variadic_unionIJSt8functionIFvRKN8nav_msgs3msg9Odometry_ISaIvEEERKN6rclcpp11MessageInfoEEES3_IFvRKNSB_17SerializedMessageEEES3_IFvSJ_SE_EES3_IFvSt10unique_ptrIS8_St14default_deleteIS8_EEEES3_IFvSR_SE_EES3_IFvSO_ISH_SP_ISH_EEEES3_IFvSX_SE_EES3_IFvSt10shared_ptrIS9_EEES3_IFvS13_SE_EES3_IFvS12_ISI_EEES3_IFvS18_SE_EES3_IFvRKS13_EES3_IFvS1E_SE_EES3_IFvRKS18_EES3_IFvS1K_SE_EES3_IFvS12_IS8_EEES3_IFvS1P_SE_EES3_IFvS12_ISH_EEES3_IFvS1U_SE_EEEEEEEDcSt16in_place_index_tIXT_EEOT0_
FN:289,_ZNSt8__detail9__variant5__getILm10ERNS0_15_Variadic_unionIJSt8functionIFvRKN8nav_msgs3msg9Odometry_ISaIvEEEEES3_IFvSA_RKN6rclcpp11MessageInfoEEES3_IFvRKNSD_17SerializedMessageEEES3_IFvSL_SG_EES3_IFvSt10unique_ptrIS8_St14default_deleteIS8_EEEES3_IFvST_SG_EES3_IFvSQ_ISJ_SR_ISJ_EEEES3_IFvSZ_SG_EES3_IFvSt10shared_ptrIS9_EEES3_IFvS15_SG_EES3_IFvS14_ISK_EEES3_IFvS1A_SG_EES3_IFvRKS15_EES3_IFvS1G_SG_EES3_IFvRKS1A_EES3_IFvS1M_SG_EES3_IFvS14_IS8_EEES3_IFvS1R_SG_EES3_IFvS14_ISJ_EEES3_IFvS1W_SG_EEEEEEEDcSt16in_place_index_tIXT_EEOT0_
FNDA:0,_ZNSt8__detail9__variant5__getILm10ERNS0_15_Variadic_unionIJSt8functionIFvRKN8nav_msgs3msg9Odometry_ISaIvEEEEES3_IFvSA_RKN6rclcpp11MessageInfoEEES3_IFvRKNSD_17SerializedMessageEEES3_IFvSL_SG_EES3_IFvSt10unique_ptrIS8_St14default_deleteIS8_EEEES3_IFvST_SG_EES3_IFvSQ_ISJ_SR_ISJ_EEEES3_IFvSZ_SG_EES3_IFvSt10shared_ptrIS9_EEES3_IFvS15_SG_EES3_IFvS14_ISK_EEES3_IFvS1A_SG_EES3_IFvRKS15_EES3_IFvS1G_SG_EES3_IFvRKS1A_EES3_IFvS1M_SG_EES3_IFvS14_IS8_EEES3_IFvS1R_SG_EES3_IFvS14_ISJ_EEES3_IFvS1W_SG_EEEEEEEDcSt16in_place_index_tIXT_EEOT0_
FN:289,_ZNSt8__detail9__variant5__getILm9ERNS0_15_Variadic_unionIJSt8functionIFvRKN8nav_msgs3msg9Odometry_ISaIvEEERKN6rclcpp11MessageInfoEEES3_IFvRKNSB_17SerializedMessageEEES3_IFvSJ_SE_EES3_IFvSt10unique_ptrIS8_St14default_deleteIS8_EEEES3_IFvSR_SE_EES3_IFvSO_ISH_SP_ISH_EEEES3_IFvSX_SE_EES3_IFvSt10shared_ptrIS9_EEES3_IFvS13_SE_EES3_IFvS12_ISI_EEES3_IFvS18_SE_EES3_IFvRKS13_EES3_IFvS1E_SE_EES3_IFvRKS18_EES3_IFvS1K_SE_EES3_IFvS12_IS8_EEES3_IFvS1P_SE_EES3_IFvS12_ISH_EEES3_IFvS1U_SE_EEEEEEEDcSt16in_place_index_tIXT_EEOT0_
FNDA:0,_ZNSt8__detail9__variant5__getILm9ERNS0_15_Variadic_unionIJSt8functionIFvRKN8nav_msgs3msg9Odometry_ISaIvEEERKN6rclcpp11MessageInfoEEES3_IFvRKNSB_17SerializedMessageEEES3_IFvSJ_SE_EES3_IFvSt10unique_ptrIS8_St14default_deleteIS8_EEEES3_IFvSR_SE_EES3_IFvSO_ISH_SP_ISH_EEEES3_IFvSX_SE_EES3_IFvSt10shared_ptrIS9_EEES3_IFvS13_SE_EES3_IFvS12_ISI_EEES3_IFvS18_SE_EES3_IFvRKS13_EES3_IFvS1E_SE_EES3_IFvRKS18_EES3_IFvS1K_SE_EES3_IFvS12_IS8_EEES3_IFvS1P_SE_EES3_IFvS12_ISH_EEES3_IFvS1U_SE_EEEEEEEDcSt16in_place_index_tIXT_EEOT0_
FN:289,_ZNSt8__detail9__variant5__getILm8ERNS0_15_Variadic_unionIJSt8functionIFvRKN6rclcpp17SerializedMessageEEES3_IFvS7_RKNS4_11MessageInfoEEES3_IFvSt10unique_ptrIN8nav_msgs3msg9Odometry_ISaIvEEESt14default_deleteISK_EEEES3_IFvSN_SC_EES3_IFvSF_IS5_SL_IS5_EEEES3_IFvST_SC_EES3_IFvSt10shared_ptrIKSK_EEES3_IFvS10_SC_EES3_IFvSY_IS6_EEES3_IFvS15_SC_EES3_IFvRKS10_EES3_IFvS1B_SC_EES3_IFvRKS15_EES3_IFvS1H_SC_EES3_IFvSY_ISK_EEES3_IFvS1M_SC_EES3_IFvSY_IS5_EEES3_IFvS1R_SC_EEEEEEEDcSt16in_place_index_tIXT_EEOT0_
FNDA:0,_ZNSt8__detail9__variant5__getILm8ERNS0_15_Variadic_unionIJSt8functionIFvRKN6rclcpp17SerializedMessageEEES3_IFvS7_RKNS4_11MessageInfoEEES3_IFvSt10unique_ptrIN8nav_msgs3msg9Odometry_ISaIvEEESt14default_deleteISK_EEEES3_IFvSN_SC_EES3_IFvSF_IS5_SL_IS5_EEEES3_IFvST_SC_EES3_IFvSt10shared_ptrIKSK_EEES3_IFvS10_SC_EES3_IFvSY_IS6_EEES3_IFvS15_SC_EES3_IFvRKS10_EES3_IFvS1B_SC_EES3_IFvRKS15_EES3_IFvS1H_SC_EES3_IFvSY_ISK_EEES3_IFvS1M_SC_EES3_IFvSY_IS5_EEES3_IFvS1R_SC_EEEEEEEDcSt16in_place_index_tIXT_EEOT0_
FN:289,_ZNSt8__detail9__variant5__getILm7ERNS0_15_Variadic_unionIJSt8functionIFvRKN6rclcpp17SerializedMessageERKNS4_11MessageInfoEEES3_IFvSt10unique_ptrIN8nav_msgs3msg9Odometry_ISaIvEEESt14default_deleteISI_EEEES3_IFvSL_SA_EES3_IFvSD_IS5_SJ_IS5_EEEES3_IFvSR_SA_EES3_IFvSt10shared_ptrIKSI_EEES3_IFvSY_SA_EES3_IFvSW_IS6_EEES3_IFvS13_SA_EES3_IFvRKSY_EES3_IFvS19_SA_EES3_IFvRKS13_EES3_IFvS1F_SA_EES3_IFvSW_ISI_EEES3_IFvS1K_SA_EES3_IFvSW_IS5_EEES3_IFvS1P_SA_EEEEEEEDcSt16in_place_index_tIXT_EEOT0_
FNDA:0,_ZNSt8__detail9__variant5__getILm7ERNS0_15_Variadic_unionIJSt8functionIFvRKN6rclcpp17SerializedMessageERKNS4_11MessageInfoEEES3_IFvSt10unique_ptrIN8nav_msgs3msg9Odometry_ISaIvEEESt14default_deleteISI_EEEES3_IFvSL_SA_EES3_IFvSD_IS5_SJ_IS5_EEEES3_IFvSR_SA_EES3_IFvSt10shared_ptrIKSI_EEES3_IFvSY_SA_EES3_IFvSW_IS6_EEES3_IFvS13_SA_EES3_IFvRKSY_EES3_IFvS19_SA_EES3_IFvRKS13_EES3_IFvS1F_SA_EES3_IFvSW_ISI_EEES3_IFvS1K_SA_EES3_IFvSW_IS5_EEES3_IFvS1P_SA_EEEEEEEDcSt16in_place_index_tIXT_EEOT0_
FN:289,_ZNSt8__detail9__variant5__getILm6ERNS0_15_Variadic_unionIJSt8functionIFvSt10unique_ptrIN8nav_msgs3msg9Odometry_ISaIvEEESt14default_deleteIS9_EEEES3_IFvSC_RKN6rclcpp11MessageInfoEEES3_IFvS4_INSF_17SerializedMessageESA_ISL_EEEES3_IFvSN_SI_EES3_IFvSt10shared_ptrIKS9_EEES3_IFvSU_SI_EES3_IFvSS_IKSL_EEES3_IFvS10_SI_EES3_IFvRKSU_EES3_IFvS16_SI_EES3_IFvRKS10_EES3_IFvS1C_SI_EES3_IFvSS_IS9_EEES3_IFvS1H_SI_EES3_IFvSS_ISL_EEES3_IFvS1M_SI_EEEEEEEDcSt16in_place_index_tIXT_EEOT0_
FNDA:0,_ZNSt8__detail9__variant5__getILm6ERNS0_15_Variadic_unionIJSt8functionIFvSt10unique_ptrIN8nav_msgs3msg9Odometry_ISaIvEEESt14default_deleteIS9_EEEES3_IFvSC_RKN6rclcpp11MessageInfoEEES3_IFvS4_INSF_17SerializedMessageESA_ISL_EEEES3_IFvSN_SI_EES3_IFvSt10shared_ptrIKS9_EEES3_IFvSU_SI_EES3_IFvSS_IKSL_EEES3_IFvS10_SI_EES3_IFvRKSU_EES3_IFvS16_SI_EES3_IFvRKS10_EES3_IFvS1C_SI_EES3_IFvSS_IS9_EEES3_IFvS1H_SI_EES3_IFvSS_ISL_EEES3_IFvS1M_SI_EEEEEEEDcSt16in_place_index_tIXT_EEOT0_
FN:289,_ZNSt8__detail9__variant5__getILm5ERNS0_15_Variadic_unionIJSt8functionIFvSt10unique_ptrIN8nav_msgs3msg9Odometry_ISaIvEEESt14default_deleteIS9_EERKN6rclcpp11MessageInfoEEES3_IFvS4_INSD_17SerializedMessageESA_ISJ_EEEES3_IFvSL_SG_EES3_IFvSt10shared_ptrIKS9_EEES3_IFvSS_SG_EES3_IFvSQ_IKSJ_EEES3_IFvSY_SG_EES3_IFvRKSS_EES3_IFvS14_SG_EES3_IFvRKSY_EES3_IFvS1A_SG_EES3_IFvSQ_IS9_EEES3_IFvS1F_SG_EES3_IFvSQ_ISJ_EEES3_IFvS1K_SG_EEEEEEEDcSt16in_place_index_tIXT_EEOT0_
FNDA:0,_ZNSt8__detail9__variant5__getILm5ERNS0_15_Variadic_unionIJSt8functionIFvSt10unique_ptrIN8nav_msgs3msg9Odometry_ISaIvEEESt14default_deleteIS9_EERKN6rclcpp11MessageInfoEEES3_IFvS4_INSD_17SerializedMessageESA_ISJ_EEEES3_IFvSL_SG_EES3_IFvSt10shared_ptrIKS9_EEES3_IFvSS_SG_EES3_IFvSQ_IKSJ_EEES3_IFvSY_SG_EES3_IFvRKSS_EES3_IFvS14_SG_EES3_IFvRKSY_EES3_IFvS1A_SG_EES3_IFvSQ_IS9_EEES3_IFvS1F_SG_EES3_IFvSQ_ISJ_EEES3_IFvS1K_SG_EEEEEEEDcSt16in_place_index_tIXT_EEOT0_
FN:289,_ZNSt8__detail9__variant5__getILm4ERNS0_15_Variadic_unionIJSt8functionIFvSt10unique_ptrIN6rclcpp17SerializedMessageESt14default_deleteIS6_EEEES3_IFvS9_RKNS5_11MessageInfoEEES3_IFvSt10shared_ptrIKN8nav_msgs3msg9Odometry_ISaIvEEEEEES3_IFvSO_SE_EES3_IFvSH_IKS6_EEES3_IFvSU_SE_EES3_IFvRKSO_EES3_IFvS10_SE_EES3_IFvRKSU_EES3_IFvS16_SE_EES3_IFvSH_ISM_EEES3_IFvS1B_SE_EES3_IFvSH_IS6_EEES3_IFvS1G_SE_EEEEEEEDcSt16in_place_index_tIXT_EEOT0_
FNDA:0,_ZNSt8__detail9__variant5__getILm4ERNS0_15_Variadic_unionIJSt8functionIFvSt10unique_ptrIN6rclcpp17SerializedMessageESt14default_deleteIS6_EEEES3_IFvS9_RKNS5_11MessageInfoEEES3_IFvSt10shared_ptrIKN8nav_msgs3msg9Odometry_ISaIvEEEEEES3_IFvSO_SE_EES3_IFvSH_IKS6_EEES3_IFvSU_SE_EES3_IFvRKSO_EES3_IFvS10_SE_EES3_IFvRKSU_EES3_IFvS16_SE_EES3_IFvSH_ISM_EEES3_IFvS1B_SE_EES3_IFvSH_IS6_EEES3_IFvS1G_SE_EEEEEEEDcSt16in_place_index_tIXT_EEOT0_
FN:289,_ZNSt8__detail9__variant5__getILm3ERNS0_15_Variadic_unionIJSt8functionIFvSt10unique_ptrIN6rclcpp17SerializedMessageESt14default_deleteIS6_EERKNS5_11MessageInfoEEES3_IFvSt10shared_ptrIKN8nav_msgs3msg9Odometry_ISaIvEEEEEES3_IFvSM_SC_EES3_IFvSF_IKS6_EEES3_IFvSS_SC_EES3_IFvRKSM_EES3_IFvSY_SC_EES3_IFvRKSS_EES3_IFvS14_SC_EES3_IFvSF_ISK_EEES3_IFvS19_SC_EES3_IFvSF_IS6_EEES3_IFvS1E_SC_EEEEEEEDcSt16in_place_index_tIXT_EEOT0_
FNDA:0,_ZNSt8__detail9__variant5__getILm3ERNS0_15_Variadic_unionIJSt8functionIFvSt10unique_ptrIN6rclcpp17SerializedMessageESt14default_deleteIS6_EERKNS5_11MessageInfoEEES3_IFvSt10shared_ptrIKN8nav_msgs3msg9Odometry_ISaIvEEEEEES3_IFvSM_SC_EES3_IFvSF_IKS6_EEES3_IFvSS_SC_EES3_IFvRKSM_EES3_IFvSY_SC_EES3_IFvRKSS_EES3_IFvS14_SC_EES3_IFvSF_ISK_EEES3_IFvS19_SC_EES3_IFvSF_IS6_EEES3_IFvS1E_SC_EEEEEEEDcSt16in_place_index_tIXT_EEOT0_
FN:289,_ZNSt8__detail9__variant5__getILm6ERNS0_15_Variadic_unionIJSt8functionIFvSt10unique_ptrIN6rclcpp17SerializedMessageESt14default_deleteIS6_EERKNS5_11MessageInfoEEES3_IFvSt10shared_ptrIKN8nav_msgs3msg9Odometry_ISaIvEEEEEES3_IFvSM_SC_EES3_IFvSF_IKS6_EEES3_IFvSS_SC_EES3_IFvRKSM_EES3_IFvSY_SC_EES3_IFvRKSS_EES3_IFvS14_SC_EES3_IFvSF_ISK_EEES3_IFvS19_SC_EES3_IFvSF_IS6_EEES3_IFvS1E_SC_EEEEEEEDcSt16in_place_index_tIXT_EEOT0_
FNDA:0,_ZNSt8__detail9__variant5__getILm6ERNS0_15_Variadic_unionIJSt8functionIFvSt10unique_ptrIN6rclcpp17SerializedMessageESt14default_deleteIS6_EERKNS5_11MessageInfoEEES3_IFvSt10shared_ptrIKN8nav_msgs3msg9Odometry_ISaIvEEEEEES3_IFvSM_SC_EES3_IFvSF_IKS6_EEES3_IFvSS_SC_EES3_IFvRKSM_EES3_IFvSY_SC_EES3_IFvRKSS_EES3_IFvS14_SC_EES3_IFvSF_ISK_EEES3_IFvS19_SC_EES3_IFvSF_IS6_EEES3_IFvS1E_SC_EEEEEEEDcSt16in_place_index_tIXT_EEOT0_
FN:289,_ZNSt8__detail9__variant5__getILm3ERNS0_15_Variadic_unionIJSt8functionIFvSt10shared_ptrIKN6rclcpp17SerializedMessageEERKNS5_11MessageInfoEEES3_IFvRKS4_IKN8nav_msgs3msg9Odometry_ISaIvEEEEEES3_IFvSM_SB_EES3_IFvRKS8_EES3_IFvSS_SB_EES3_IFvS4_ISI_EEES3_IFvSX_SB_EES3_IFvS4_IS6_EEES3_IFvS12_SB_EEEEEEEDcSt16in_place_index_tIXT_EEOT0_
FNDA:0,_ZNSt8__detail9__variant5__getILm3ERNS0_15_Variadic_unionIJSt8functionIFvSt10shared_ptrIKN6rclcpp17SerializedMessageEERKNS5_11MessageInfoEEES3_IFvRKS4_IKN8nav_msgs3msg9Odometry_ISaIvEEEEEES3_IFvSM_SB_EES3_IFvRKS8_EES3_IFvSS_SB_EES3_IFvS4_ISI_EEES3_IFvSX_SB_EES3_IFvS4_IS6_EEES3_IFvS12_SB_EEEEEEEDcSt16in_place_index_tIXT_EEOT0_
FN:289,_ZNSt8__detail9__variant5__getILm2ERNS0_15_Variadic_unionIJSt8functionIFvRKSt10shared_ptrIKN8nav_msgs3msg9Odometry_ISaIvEEEEEES3_IFvSD_RKN6rclcpp11MessageInfoEEES3_IFvRKS4_IKNSG_17SerializedMessageEEEES3_IFvSQ_SJ_EES3_IFvS4_IS9_EEES3_IFvSV_SJ_EES3_IFvS4_ISM_EEES3_IFvS10_SJ_EEEEEEEDcSt16in_place_index_tIXT_EEOT0_
FNDA:0,_ZNSt8__detail9__variant5__getILm2ERNS0_15_Variadic_unionIJSt8functionIFvRKSt10shared_ptrIKN8nav_msgs3msg9Odometry_ISaIvEEEEEES3_IFvSD_RKN6rclcpp11MessageInfoEEES3_IFvRKS4_IKNSG_17SerializedMessageEEEES3_IFvSQ_SJ_EES3_IFvS4_IS9_EEES3_IFvSV_SJ_EES3_IFvS4_ISM_EEES3_IFvS10_SJ_EEEEEEEDcSt16in_place_index_tIXT_EEOT0_
FN:289,_ZNSt8__detail9__variant5__getILm1ERNS0_15_Variadic_unionIJSt8functionIFvRKSt10shared_ptrIKN8nav_msgs3msg9Odometry_ISaIvEEEERKN6rclcpp11MessageInfoEEES3_IFvRKS4_IKNSE_17SerializedMessageEEEES3_IFvSO_SH_EES3_IFvS4_IS9_EEES3_IFvST_SH_EES3_IFvS4_ISK_EEES3_IFvSY_SH_EEEEEEEDcSt16in_place_index_tIXT_EEOT0_
FNDA:0,_ZNSt8__detail9__variant5__getILm1ERNS0_15_Variadic_unionIJSt8functionIFvRKSt10shared_ptrIKN8nav_msgs3msg9Odometry_ISaIvEEEERKN6rclcpp11MessageInfoEEES3_IFvRKS4_IKNSE_17SerializedMessageEEEES3_IFvSO_SH_EES3_IFvS4_IS9_EEES3_IFvST_SH_EES3_IFvS4_ISK_EEES3_IFvSY_SH_EEEEEEEDcSt16in_place_index_tIXT_EEOT0_
FN:289,_ZNSt8__detail9__variant5__getILm2ERKNS0_15_Variadic_unionIJSt8functionIFvRKN6rclcpp17SerializedMessageEEES3_IFvS7_RKNS4_11MessageInfoEEES3_IFvSt10unique_ptrIN8nav_msgs3msg9Odometry_ISaIvEEESt14default_deleteISK_EEEES3_IFvSN_SC_EES3_IFvSF_IS5_SL_IS5_EEEES3_IFvST_SC_EES3_IFvSt10shared_ptrIKSK_EEES3_IFvS10_SC_EES3_IFvSY_IS6_EEES3_IFvS15_SC_EES3_IFvRKS10_EES3_IFvS1B_SC_EES3_IFvRKS15_EES3_IFvS1H_SC_EES3_IFvSY_ISK_EEES3_IFvS1M_SC_EES3_IFvSY_IS5_EEES3_IFvS1R_SC_EEEEEEEDcSt16in_place_index_tIXT_EEOT0_
FNDA:0,_ZNSt8__detail9__variant5__getILm2ERKNS0_15_Variadic_unionIJSt8functionIFvRKN6rclcpp17SerializedMessageEEES3_IFvS7_RKNS4_11MessageInfoEEES3_IFvSt10unique_ptrIN8nav_msgs3msg9Odometry_ISaIvEEESt14default_deleteISK_EEEES3_IFvSN_SC_EES3_IFvSF_IS5_SL_IS5_EEEES3_IFvST_SC_EES3_IFvSt10shared_ptrIKSK_EEES3_IFvS10_SC_EES3_IFvSY_IS6_EEES3_IFvS15_SC_EES3_IFvRKS10_EES3_IFvS1B_SC_EES3_IFvRKS15_EES3_IFvS1H_SC_EES3_IFvSY_ISK_EEES3_IFvS1M_SC_EES3_IFvSY_IS5_EEES3_IFvS1R_SC_EEEEEEEDcSt16in_place_index_tIXT_EEOT0_
FN:289,_ZNSt8__detail9__variant5__getILm1ERKNS0_15_Variadic_unionIJSt8functionIFvRKN6rclcpp17SerializedMessageERKNS4_11MessageInfoEEES3_IFvSt10unique_ptrIN8nav_msgs3msg9Odometry_ISaIvEEESt14default_deleteISI_EEEES3_IFvSL_SA_EES3_IFvSD_IS5_SJ_IS5_EEEES3_IFvSR_SA_EES3_IFvSt10shared_ptrIKSI_EEES3_IFvSY_SA_EES3_IFvSW_IS6_EEES3_IFvS13_SA_EES3_IFvRKSY_EES3_IFvS19_SA_EES3_IFvRKS13_EES3_IFvS1F_SA_EES3_IFvSW_ISI_EEES3_IFvS1K_SA_EES3_IFvSW_IS5_EEES3_IFvS1P_SA_EEEEEEEDcSt16in_place_index_tIXT_EEOT0_
FNDA:0,_ZNSt8__detail9__variant5__getILm1ERKNS0_15_Variadic_unionIJSt8functionIFvRKN6rclcpp17SerializedMessageERKNS4_11MessageInfoEEES3_IFvSt10unique_ptrIN8nav_msgs3msg9Odometry_ISaIvEEESt14default_deleteISI_EEEES3_IFvSL_SA_EES3_IFvSD_IS5_SJ_IS5_EEEES3_IFvSR_SA_EES3_IFvSt10shared_ptrIKSI_EEES3_IFvSY_SA_EES3_IFvSW_IS6_EEES3_IFvS13_SA_EES3_IFvRKSY_EES3_IFvS19_SA_EES3_IFvRKS13_EES3_IFvS1F_SA_EES3_IFvSW_ISI_EEES3_IFvS1K_SA_EES3_IFvSW_IS5_EEES3_IFvS1P_SA_EEEEEEEDcSt16in_place_index_tIXT_EEOT0_
FN:289,_ZNSt8__detail9__variant5__getILm13ERNS0_15_Variadic_unionIJSt8functionIFvRKN8nav_msgs3msg9Odometry_ISaIvEEEEES3_IFvSA_RKN6rclcpp11MessageInfoEEES3_IFvRKNSD_17SerializedMessageEEES3_IFvSL_SG_EES3_IFvSt10unique_ptrIS8_St14default_deleteIS8_EEEES3_IFvST_SG_EES3_IFvSQ_ISJ_SR_ISJ_EEEES3_IFvSZ_SG_EES3_IFvSt10shared_ptrIS9_EEES3_IFvS15_SG_EES3_IFvS14_ISK_EEES3_IFvS1A_SG_EES3_IFvRKS15_EES3_IFvS1G_SG_EES3_IFvRKS1A_EES3_IFvS1M_SG_EES3_IFvS14_IS8_EEES3_IFvS1R_SG_EES3_IFvS14_ISJ_EEES3_IFvS1W_SG_EEEEEEEDcSt16in_place_index_tIXT_EEOT0_
FNDA:0,_ZNSt8__detail9__variant5__getILm13ERNS0_15_Variadic_unionIJSt8functionIFvRKN8nav_msgs3msg9Odometry_ISaIvEEEEES3_IFvSA_RKN6rclcpp11MessageInfoEEES3_IFvRKNSD_17SerializedMessageEEES3_IFvSL_SG_EES3_IFvSt10unique_ptrIS8_St14default_deleteIS8_EEEES3_IFvST_SG_EES3_IFvSQ_ISJ_SR_ISJ_EEEES3_IFvSZ_SG_EES3_IFvSt10shared_ptrIS9_EEES3_IFvS15_SG_EES3_IFvS14_ISK_EEES3_IFvS1A_SG_EES3_IFvRKS15_EES3_IFvS1G_SG_EES3_IFvRKS1A_EES3_IFvS1M_SG_EES3_IFvS14_IS8_EEES3_IFvS1R_SG_EES3_IFvS14_ISJ_EEES3_IFvS1W_SG_EEEEEEEDcSt16in_place_index_tIXT_EEOT0_
FN:289,_ZNSt8__detail9__variant5__getILm12ERNS0_15_Variadic_unionIJSt8functionIFvRKN8nav_msgs3msg9Odometry_ISaIvEEERKN6rclcpp11MessageInfoEEES3_IFvRKNSB_17SerializedMessageEEES3_IFvSJ_SE_EES3_IFvSt10unique_ptrIS8_St14default_deleteIS8_EEEES3_IFvSR_SE_EES3_IFvSO_ISH_SP_ISH_EEEES3_IFvSX_SE_EES3_IFvSt10shared_ptrIS9_EEES3_IFvS13_SE_EES3_IFvS12_ISI_EEES3_IFvS18_SE_EES3_IFvRKS13_EES3_IFvS1E_SE_EES3_IFvRKS18_EES3_IFvS1K_SE_EES3_IFvS12_IS8_EEES3_IFvS1P_SE_EES3_IFvS12_ISH_EEES3_IFvS1U_SE_EEEEEEEDcSt16in_place_index_tIXT_EEOT0_
FNDA:0,_ZNSt8__detail9__variant5__getILm12ERNS0_15_Variadic_unionIJSt8functionIFvRKN8nav_msgs3msg9Odometry_ISaIvEEERKN6rclcpp11MessageInfoEEES3_IFvRKNSB_17SerializedMessageEEES3_IFvSJ_SE_EES3_IFvSt10unique_ptrIS8_St14default_deleteIS8_EEEES3_IFvSR_SE_EES3_IFvSO_ISH_SP_ISH_EEEES3_IFvSX_SE_EES3_IFvSt10shared_ptrIS9_EEES3_IFvS13_SE_EES3_IFvS12_ISI_EEES3_IFvS18_SE_EES3_IFvRKS13_EES3_IFvS1E_SE_EES3_IFvRKS18_EES3_IFvS1K_SE_EES3_IFvS12_IS8_EEES3_IFvS1P_SE_EES3_IFvS12_ISH_EEES3_IFvS1U_SE_EEEEEEEDcSt16in_place_index_tIXT_EEOT0_
FN:289,_ZNSt8__detail9__variant5__getILm11ERNS0_15_Variadic_unionIJSt8functionIFvRKN6rclcpp17SerializedMessageEEES3_IFvS7_RKNS4_11MessageInfoEEES3_IFvSt10unique_ptrIN8nav_msgs3msg9Odometry_ISaIvEEESt14default_deleteISK_EEEES3_IFvSN_SC_EES3_IFvSF_IS5_SL_IS5_EEEES3_IFvST_SC_EES3_IFvSt10shared_ptrIKSK_EEES3_IFvS10_SC_EES3_IFvSY_IS6_EEES3_IFvS15_SC_EES3_IFvRKS10_EES3_IFvS1B_SC_EES3_IFvRKS15_EES3_IFvS1H_SC_EES3_IFvSY_ISK_EEES3_IFvS1M_SC_EES3_IFvSY_IS5_EEES3_IFvS1R_SC_EEEEEEEDcSt16in_place_index_tIXT_EEOT0_
FNDA:0,_ZNSt8__detail9__variant5__getILm11ERNS0_15_Variadic_unionIJSt8functionIFvRKN6rclcpp17SerializedMessageEEES3_IFvS7_RKNS4_11MessageInfoEEES3_IFvSt10unique_ptrIN8nav_msgs3msg9Odometry_ISaIvEEESt14default_deleteISK_EEEES3_IFvSN_SC_EES3_IFvSF_IS5_SL_IS5_EEEES3_IFvST_SC_EES3_IFvSt10shared_ptrIKSK_EEES3_IFvS10_SC_EES3_IFvSY_IS6_EEES3_IFvS15_SC_EES3_IFvRKS10_EES3_IFvS1B_SC_EES3_IFvRKS15_EES3_IFvS1H_SC_EES3_IFvSY_ISK_EEES3_IFvS1M_SC_EES3_IFvSY_IS5_EEES3_IFvS1R_SC_EEEEEEEDcSt16in_place_index_tIXT_EEOT0_
FN:289,_ZNSt8__detail9__variant5__getILm10ERNS0_15_Variadic_unionIJSt8functionIFvRKN6rclcpp17SerializedMessageERKNS4_11MessageInfoEEES3_IFvSt10unique_ptrIN8nav_msgs3msg9Odometry_ISaIvEEESt14default_deleteISI_EEEES3_IFvSL_SA_EES3_IFvSD_IS5_SJ_IS5_EEEES3_IFvSR_SA_EES3_IFvSt10shared_ptrIKSI_EEES3_IFvSY_SA_EES3_IFvSW_IS6_EEES3_IFvS13_SA_EES3_IFvRKSY_EES3_IFvS19_SA_EES3_IFvRKS13_EES3_IFvS1F_SA_EES3_IFvSW_ISI_EEES3_IFvS1K_SA_EES3_IFvSW_IS5_EEES3_IFvS1P_SA_EEEEEEEDcSt16in_place_index_tIXT_EEOT0_
FNDA:0,_ZNSt8__detail9__variant5__getILm10ERNS0_15_Variadic_unionIJSt8functionIFvRKN6rclcpp17SerializedMessageERKNS4_11MessageInfoEEES3_IFvSt10unique_ptrIN8nav_msgs3msg9Odometry_ISaIvEEESt14default_deleteISI_EEEES3_IFvSL_SA_EES3_IFvSD_IS5_SJ_IS5_EEEES3_IFvSR_SA_EES3_IFvSt10shared_ptrIKSI_EEES3_IFvSY_SA_EES3_IFvSW_IS6_EEES3_IFvS13_SA_EES3_IFvRKSY_EES3_IFvS19_SA_EES3_IFvRKS13_EES3_IFvS1F_SA_EES3_IFvSW_ISI_EEES3_IFvS1K_SA_EES3_IFvSW_IS5_EEES3_IFvS1P_SA_EEEEEEEDcSt16in_place_index_tIXT_EEOT0_
FN:289,_ZNSt8__detail9__variant5__getILm9ERNS0_15_Variadic_unionIJSt8functionIFvSt10unique_ptrIN8nav_msgs3msg9Odometry_ISaIvEEESt14default_deleteIS9_EEEES3_IFvSC_RKN6rclcpp11MessageInfoEEES3_IFvS4_INSF_17SerializedMessageESA_ISL_EEEES3_IFvSN_SI_EES3_IFvSt10shared_ptrIKS9_EEES3_IFvSU_SI_EES3_IFvSS_IKSL_EEES3_IFvS10_SI_EES3_IFvRKSU_EES3_IFvS16_SI_EES3_IFvRKS10_EES3_IFvS1C_SI_EES3_IFvSS_IS9_EEES3_IFvS1H_SI_EES3_IFvSS_ISL_EEES3_IFvS1M_SI_EEEEEEEDcSt16in_place_index_tIXT_EEOT0_
FNDA:0,_ZNSt8__detail9__variant5__getILm9ERNS0_15_Variadic_unionIJSt8functionIFvSt10unique_ptrIN8nav_msgs3msg9Odometry_ISaIvEEESt14default_deleteIS9_EEEES3_IFvSC_RKN6rclcpp11MessageInfoEEES3_IFvS4_INSF_17SerializedMessageESA_ISL_EEEES3_IFvSN_SI_EES3_IFvSt10shared_ptrIKS9_EEES3_IFvSU_SI_EES3_IFvSS_IKSL_EEES3_IFvS10_SI_EES3_IFvRKSU_EES3_IFvS16_SI_EES3_IFvRKS10_EES3_IFvS1C_SI_EES3_IFvSS_IS9_EEES3_IFvS1H_SI_EES3_IFvSS_ISL_EEES3_IFvS1M_SI_EEEEEEEDcSt16in_place_index_tIXT_EEOT0_
FN:289,_ZNSt8__detail9__variant5__getILm8ERNS0_15_Variadic_unionIJSt8functionIFvSt10unique_ptrIN8nav_msgs3msg9Odometry_ISaIvEEESt14default_deleteIS9_EERKN6rclcpp11MessageInfoEEES3_IFvS4_INSD_17SerializedMessageESA_ISJ_EEEES3_IFvSL_SG_EES3_IFvSt10shared_ptrIKS9_EEES3_IFvSS_SG_EES3_IFvSQ_IKSJ_EEES3_IFvSY_SG_EES3_IFvRKSS_EES3_IFvS14_SG_EES3_IFvRKSY_EES3_IFvS1A_SG_EES3_IFvSQ_IS9_EEES3_IFvS1F_SG_EES3_IFvSQ_ISJ_EEES3_IFvS1K_SG_EEEEEEEDcSt16in_place_index_tIXT_EEOT0_
